
numato-9d00.bin:     file format binary


Disassembly of section .data:

00000000 <.data>:
       0:	0400400f 	jal	0xd000010
       4:	00000000 	nop
       8:	ffff0010 	b	0x8
       c:	00000000 	nop
      10:	e8ffbd27 	addiu	sp,sp,-24
      14:	1000bfaf 	sw	ra,16(sp)
      18:	88bf043c 	lui	a0,0xbf88
      1c:	c0608290 	lbu	v0,24768(a0)
      20:	80ff0324 	li	v1,-128
      24:	25104300 	or	v0,v0,v1
      28:	c06082a0 	sb	v0,24768(a0)
      2c:	88bf023c 	lui	v0,0xbf88
      30:	d060428c 	lw	v0,24784(v0)
      34:	c001427c 	ext	v0,v0,0x7,0x1
      38:	01000324 	li	v1,1
      3c:	04004314 	bne	v0,v1,0x50
      40:	009d023c 	lui	v0,0x9d00
      44:	00604234 	ori	v0,v0,0x6000
      48:	09f84000 	jalr	v0
      4c:	00000000 	nop
      50:	1c00400f 	jal	0xd000070
      54:	00000000 	nop
      58:	2002400f 	jal	0xd000880
      5c:	00000000 	nop
      60:	3700400f 	jal	0xd0000dc
      64:	00000000 	nop
      68:	fbff0010 	b	0x58
      6c:	00000000 	nop
      70:	e8ffbd27 	addiu	sp,sp,-24
      74:	1000bfaf 	sw	ra,16(sp)
      78:	b101400f 	jal	0xd0006c4
      7c:	00000000 	nop
      80:	2500400f 	jal	0xd000094
      84:	00000000 	nop
      88:	1000bf8f 	lw	ra,16(sp)
      8c:	0800e003 	jr	ra
      90:	1800bd27 	addiu	sp,sp,24
      94:	88bf023c 	lui	v0,0xbf88
      98:	6020438c 	lw	v1,8288(v0)
      9c:	6020448c 	lw	a0,8288(v0)
      a0:	001d023c 	lui	v0,0x1d00
      a4:	21208200 	addu	a0,a0,v0
      a8:	021b0300 	srl	v1,v1,0xc
      ac:	01000524 	li	a1,1
      b0:	1c8083a3 	sb	v1,-32740(gp)
      b4:	208084af 	sw	a0,-32736(gp)
      b8:	2c8085a3 	sb	a1,-32724(gp)
      bc:	ffff0224 	li	v0,-1
      c0:	288082af 	sw	v0,-32728(gp)
      c4:	108080af 	sw	zero,-32752(gp)
      c8:	148080af 	sw	zero,-32748(gp)
      cc:	188085af 	sw	a1,-32744(gp)
      d0:	248080a3 	sb	zero,-32732(gp)
      d4:	0800e003 	jr	ra
      d8:	258080a3 	sb	zero,-32731(gp)
      dc:	e8ffbd27 	addiu	sp,sp,-24
      e0:	1000bfaf 	sw	ra,16(sp)
      e4:	3c80828f 	lw	v0,-32708(gp)
      e8:	2000422c 	sltiu	v0,v0,32
      ec:	0a004014 	bnez	v0,0x118
      f0:	1000bf8f 	lw	ra,16(sp)
      f4:	88bf023c 	lui	v0,0xbf88
      f8:	8050428c 	lw	v0,20608(v0)
      fc:	4000427c 	ext	v0,v0,0x1,0x1
     100:	01000324 	li	v1,1
     104:	04004310 	beq	v0,v1,0x118
     108:	00000000 	nop
     10c:	4800400f 	jal	0xd000120
     110:	00000000 	nop
     114:	1000bf8f 	lw	ra,16(sp)
     118:	0800e003 	jr	ra
     11c:	1800bd27 	addiu	sp,sp,24
     120:	e0ffbd27 	addiu	sp,sp,-32
     124:	1800bfaf 	sw	ra,24(sp)
     128:	1400b1af 	sw	s1,20(sp)
     12c:	1000b0af 	sw	s0,16(sp)
     130:	24808293 	lbu	v0,-32732(gp)
     134:	30004014 	bnez	v0,0x1f8
     138:	00a0023c 	lui	v0,0xa000
     13c:	1480828f 	lw	v0,-32748(gp)
     140:	06004050 	beqzl	v0,0x15c
     144:	1080828f 	lw	v0,-32752(gp)
     148:	00004290 	lbu	v0,0(v0)
     14c:	c001427c 	ext	v0,v0,0x7,0x1
     150:	0a014014 	bnez	v0,0x57c
     154:	1800bf8f 	lw	ra,24(sp)
     158:	1080828f 	lw	v0,-32752(gp)
     15c:	06004050 	beqzl	v0,0x178
     160:	00a0023c 	lui	v0,0xa000
     164:	00004290 	lbu	v0,0(v0)
     168:	c001427c 	ext	v0,v0,0x7,0x1
     16c:	03014014 	bnez	v0,0x57c
     170:	1800bf8f 	lw	ra,24(sp)
     174:	00a0023c 	lui	v0,0xa000
     178:	00024724 	addiu	a3,v0,512
     17c:	00a0023c 	lui	v0,0xa000
     180:	80024624 	addiu	a2,v0,640
     184:	21800000 	move	s0,zero
     188:	01000426 	addiu	a0,s0,1
     18c:	21100602 	addu	v0,s0,a2
     190:	00004590 	lbu	a1,0(v0)
     194:	21180702 	addu	v1,s0,a3
     198:	ff009030 	andi	s0,a0,0xff
     19c:	4000022e 	sltiu	v0,s0,64
     1a0:	f9ff4014 	bnez	v0,0x188
     1a4:	000065a0 	sb	a1,0(v1)
     1a8:	00a0063c 	lui	a2,0xa000
     1ac:	8002c624 	addiu	a2,a2,640
     1b0:	01000424 	li	a0,1
     1b4:	21280000 	move	a1,zero
     1b8:	8607400f 	jal	0xd001e18
     1bc:	40000724 	li	a3,64
     1c0:	108082af 	sw	v0,-32752(gp)
     1c4:	01000224 	li	v0,1
     1c8:	248082a3 	sb	v0,-32732(gp)
     1cc:	00a0023c 	lui	v0,0xa000
     1d0:	40024424 	addiu	a0,v0,576
     1d4:	21800000 	move	s0,zero
     1d8:	01000226 	addiu	v0,s0,1
     1dc:	21180402 	addu	v1,s0,a0
     1e0:	ff005030 	andi	s0,v0,0xff
     1e4:	4000022e 	sltiu	v0,s0,64
     1e8:	fbff4014 	bnez	v0,0x1d8
     1ec:	000060a0 	sb	zero,0(v1)
     1f0:	e2000010 	b	0x57c
     1f4:	1800bf8f 	lw	ra,24(sp)
     1f8:	00024290 	lbu	v0,512(v0)
     1fc:	feff4324 	addiu	v1,v0,-2
     200:	0700622c 	sltiu	v0,v1,7
     204:	dd004010 	beqz	v0,0x57c
     208:	1800bf8f 	lw	ra,24(sp)
     20c:	80100300 	sll	v0,v1,0x2
     210:	009d033c 	lui	v1,0x9d00
     214:	98246324 	addiu	v1,v1,9368
     218:	21104300 	addu	v0,v0,v1
     21c:	0000428c 	lw	v0,0(v0)
     220:	08004000 	jr	v0
     224:	00000000 	nop
     228:	00a0053c 	lui	a1,0xa000
     22c:	4002a224 	addiu	v0,a1,576
     230:	001d043c 	lui	a0,0x1d00
     234:	00508434 	ori	a0,a0,0x5000
     238:	02000324 	li	v1,2
     23c:	4002a3a0 	sb	v1,576(a1)
     240:	38000324 	li	v1,56
     244:	010043a0 	sb	v1,1(v0)
     248:	03000324 	li	v1,3
     24c:	020043a0 	sb	v1,2(v0)
     250:	01000324 	li	v1,1
     254:	030043a0 	sb	v1,3(v0)
     258:	070044a8 	swl	a0,7(v0)
     25c:	2080838f 	lw	v1,-32736(gp)
     260:	23186400 	subu	v1,v1,a0
     264:	040044b8 	swr	a0,4(v0)
     268:	1480848f 	lw	a0,-32748(gp)
     26c:	0b0043a8 	swl	v1,11(v0)
     270:	080043b8 	swr	v1,8(v0)
     274:	ffff0324 	li	v1,-1
     278:	05008010 	beqz	a0,0x290
     27c:	0c0043a0 	sb	v1,12(v0)
     280:	00008290 	lbu	v0,0(a0)
     284:	c001427c 	ext	v0,v0,0x7,0x1
     288:	bc004014 	bnez	v0,0x57c
     28c:	1800bf8f 	lw	ra,24(sp)
     290:	00a0063c 	lui	a2,0xa000
     294:	4002c624 	addiu	a2,a2,576
     298:	01000424 	li	a0,1
     29c:	01000524 	li	a1,1
     2a0:	8607400f 	jal	0xd001e18
     2a4:	40000724 	li	a3,64
     2a8:	148082af 	sw	v0,-32748(gp)
     2ac:	b2000010 	b	0x578
     2b0:	248080a3 	sb	zero,-32732(gp)
     2b4:	00a0023c 	lui	v0,0xa000
     2b8:	01024290 	lbu	v0,513(v0)
     2bc:	0a004014 	bnez	v0,0x2e8
     2c0:	88bf023c 	lui	v0,0xbf88
     2c4:	6020438c 	lw	v1,8288(v0)
     2c8:	6020448c 	lw	a0,8288(v0)
     2cc:	001d023c 	lui	v0,0x1d00
     2d0:	21208200 	addu	a0,a0,v0
     2d4:	021b0300 	srl	v1,v1,0xc
     2d8:	1c8083a3 	sb	v1,-32740(gp)
     2dc:	208084af 	sw	a0,-32736(gp)
     2e0:	0a000010 	b	0x30c
     2e4:	2c8080a3 	sb	zero,-32724(gp)
     2e8:	6020438c 	lw	v1,8288(v0)
     2ec:	6020448c 	lw	a0,8288(v0)
     2f0:	001d023c 	lui	v0,0x1d00
     2f4:	21208200 	addu	a0,a0,v0
     2f8:	021b0300 	srl	v1,v1,0xc
     2fc:	1c8083a3 	sb	v1,-32740(gp)
     300:	208084af 	sw	a0,-32736(gp)
     304:	01000224 	li	v0,1
     308:	2c8082a3 	sb	v0,-32724(gp)
     30c:	9a000010 	b	0x578
     310:	248080a3 	sb	zero,-32732(gp)
     314:	1c808393 	lbu	v1,-32740(gp)
     318:	001d023c 	lui	v0,0x1d00
     31c:	00505134 	ori	s1,v0,0x5000
     320:	0a006010 	beqz	v1,0x34c
     324:	21800000 	move	s0,zero
     328:	00231000 	sll	a0,s0,0xc
     32c:	8c08400f 	jal	0xd002230
     330:	21202402 	addu	a0,s1,a0
     334:	2002400f 	jal	0xd000880
     338:	01001026 	addiu	s0,s0,1
     33c:	1c808293 	lbu	v0,-32740(gp)
     340:	2a100202 	slt	v0,s0,v0
     344:	f9ff4014 	bnez	v0,0x32c
     348:	00231000 	sll	a0,s0,0xc
     34c:	81bf023c 	lui	v0,0xbf81
     350:	01f44390 	lbu	v1,-3071(v0)
     354:	bfff0424 	li	a0,-65
     358:	24186400 	and	v1,v1,a0
     35c:	01f443a0 	sb	v1,-3071(v0)
     360:	85000010 	b	0x578
     364:	248080a3 	sb	zero,-32732(gp)
     368:	2880838f 	lw	v1,-32728(gp)
     36c:	ffff0224 	li	v0,-1
     370:	06006214 	bne	v1,v0,0x38c
     374:	00a0023c 	lui	v0,0xa000
     378:	00024224 	addiu	v0,v0,512
     37c:	04004388 	lwl	v1,4(v0)
     380:	01004398 	lwr	v1,1(v0)
     384:	288083af 	sw	v1,-32728(gp)
     388:	00a0023c 	lui	v0,0xa000
     38c:	00024424 	addiu	a0,v0,512
     390:	04008288 	lwl	v0,4(a0)
     394:	01008298 	lwr	v0,1(a0)
     398:	2880838f 	lw	v1,-32728(gp)
     39c:	76006254 	bnel	v1,v0,0x578
     3a0:	248080a3 	sb	zero,-32732(gp)
     3a4:	05008290 	lbu	v0,5(a0)
     3a8:	82100200 	srl	v0,v0,0x2
     3ac:	2a004010 	beqz	v0,0x458
     3b0:	21800000 	move	s0,zero
     3b4:	00a0053c 	lui	a1,0xa000
     3b8:	0002a224 	addiu	v0,a1,512
     3bc:	05004390 	lbu	v1,5(v0)
     3c0:	38000224 	li	v0,56
     3c4:	23104300 	subu	v0,v0,v1
     3c8:	03004424 	addiu	a0,v0,3
     3cc:	00004328 	slti	v1,v0,0
     3d0:	0b108300 	movn	v0,a0,v1
     3d4:	83100200 	sra	v0,v0,0x2
     3d8:	21100202 	addu	v0,s0,v0
     3dc:	80100200 	sll	v0,v0,0x2
     3e0:	0002a524 	addiu	a1,a1,512
     3e4:	21104500 	addu	v0,v0,a1
     3e8:	25808393 	lbu	v1,-32731(gp)
     3ec:	01006324 	addiu	v1,v1,1
     3f0:	25808493 	lbu	a0,-32731(gp)
     3f4:	0b004588 	lwl	a1,11(v0)
     3f8:	258083a3 	sb	v1,-32731(gp)
     3fc:	08004598 	lwr	a1,8(v0)
     400:	80200400 	sll	a0,a0,0x2
     404:	ff006330 	andi	v1,v1,0xff
     408:	00a0023c 	lui	v0,0xa000
     40c:	c0024224 	addiu	v0,v0,704
     410:	21208200 	addu	a0,a0,v0
     414:	2880828f 	lw	v0,-32728(gp)
     418:	04004224 	addiu	v0,v0,4
     41c:	000085ac 	sw	a1,0(a0)
     420:	288082af 	sw	v0,-32728(gp)
     424:	0e000224 	li	v0,14
     428:	04006214 	bne	v1,v0,0x43c
     42c:	00a0023c 	lui	v0,0xa000
     430:	6301400f 	jal	0xd00058c
     434:	00000000 	nop
     438:	00a0023c 	lui	v0,0xa000
     43c:	05024290 	lbu	v0,517(v0)
     440:	01000326 	addiu	v1,s0,1
     444:	ff007030 	andi	s0,v1,0xff
     448:	82100200 	srl	v0,v0,0x2
     44c:	2b100202 	sltu	v0,s0,v0
     450:	d9ff4014 	bnez	v0,0x3b8
     454:	00a0053c 	lui	a1,0xa000
     458:	47000010 	b	0x578
     45c:	248080a3 	sb	zero,-32732(gp)
     460:	6301400f 	jal	0xd00058c
     464:	00000000 	nop
     468:	ffff0224 	li	v0,-1
     46c:	288082af 	sw	v0,-32728(gp)
     470:	41000010 	b	0x578
     474:	248080a3 	sb	zero,-32732(gp)
     478:	1480828f 	lw	v0,-32748(gp)
     47c:	06004010 	beqz	v0,0x498
     480:	00a0083c 	lui	t0,0xa000
     484:	00004290 	lbu	v0,0(v0)
     488:	c001427c 	ext	v0,v0,0x7,0x1
     48c:	3b004014 	bnez	v0,0x57c
     490:	1800bf8f 	lw	ra,24(sp)
     494:	00a0083c 	lui	t0,0xa000
     498:	00020225 	addiu	v0,t0,512
     49c:	04004488 	lwl	a0,4(v0)
     4a0:	05004690 	lbu	a2,5(v0)
     4a4:	01004498 	lwr	a0,1(v0)
     4a8:	00a0053c 	lui	a1,0xa000
     4ac:	4002a324 	addiu	v1,a1,576
     4b0:	05004790 	lbu	a3,5(v0)
     4b4:	07000224 	li	v0,7
     4b8:	4002a2a0 	sb	v0,576(a1)
     4bc:	82300600 	srl	a2,a2,0x2
     4c0:	040064a8 	swl	a0,4(v1)
     4c4:	010064b8 	swr	a0,1(v1)
     4c8:	050067a0 	sb	a3,5(v1)
     4cc:	1600c010 	beqz	a2,0x528
     4d0:	21800000 	move	s0,zero
     4d4:	21486000 	move	t1,v1
     4d8:	0080073c 	lui	a3,0x8000
     4dc:	00020225 	addiu	v0,t0,512
     4e0:	04004388 	lwl	v1,4(v0)
     4e4:	05004490 	lbu	a0,5(v0)
     4e8:	01004398 	lwr	v1,1(v0)
     4ec:	80101000 	sll	v0,s0,0x2
     4f0:	21186200 	addu	v1,v1,v0
     4f4:	82200400 	srl	a0,a0,0x2
     4f8:	25186700 	or	v1,v1,a3
     4fc:	23100402 	subu	v0,s0,a0
     500:	0000658c 	lw	a1,0(v1)
     504:	80100200 	sll	v0,v0,0x2
     508:	01000326 	addiu	v1,s0,1
     50c:	21104900 	addu	v0,v0,t1
     510:	ff007030 	andi	s0,v1,0xff
     514:	430045a8 	swl	a1,67(v0)
     518:	2b200402 	sltu	a0,s0,a0
     51c:	400045b8 	swr	a1,64(v0)
     520:	eeff8014 	bnez	a0,0x4dc
     524:	21400001 	move	t0,t0
     528:	00a0063c 	lui	a2,0xa000
     52c:	4002c624 	addiu	a2,a2,576
     530:	01000424 	li	a0,1
     534:	01000524 	li	a1,1
     538:	8607400f 	jal	0xd001e18
     53c:	40000724 	li	a3,64
     540:	148082af 	sw	v0,-32748(gp)
     544:	0c000010 	b	0x578
     548:	248080a3 	sb	zero,-32732(gp)
     54c:	88bf023c 	lui	v0,0xbf88
     550:	505240ac 	sw	zero,21072(v0)
     554:	21180000 	move	v1,zero
     558:	feff0434 	li	a0,0xfffe
     55c:	40000000 	ssnop
     560:	01006324 	addiu	v1,v1,1
     564:	2b108300 	sltu	v0,a0,v1
     568:	fcff4010 	beqz	v0,0x55c
     56c:	00000000 	nop
     570:	6c08400f 	jal	0xd0021b0
     574:	00000000 	nop
     578:	1800bf8f 	lw	ra,24(sp)
     57c:	1400b18f 	lw	s1,20(sp)
     580:	1000b08f 	lw	s0,16(sp)
     584:	0800e003 	jr	ra
     588:	2000bd27 	addiu	sp,sp,32
     58c:	e8ffbd27 	addiu	sp,sp,-24
     590:	1400bfaf 	sw	ra,20(sp)
     594:	1000b0af 	sw	s0,16(sp)
     598:	25808293 	lbu	v0,-32731(gp)
     59c:	11004010 	beqz	v0,0x5e4
     5a0:	21800000 	move	s0,zero
     5a4:	25808693 	lbu	a2,-32731(gp)
     5a8:	80181000 	sll	v1,s0,0x2
     5ac:	00a0023c 	lui	v0,0xa000
     5b0:	c0024224 	addiu	v0,v0,704
     5b4:	21186200 	addu	v1,v1,v0
     5b8:	80300600 	sll	a2,a2,0x2
     5bc:	0000658c 	lw	a1,0(v1)
     5c0:	2880848f 	lw	a0,-32728(gp)
     5c4:	dc08400f 	jal	0xd002370
     5c8:	23208600 	subu	a0,a0,a2
     5cc:	25808293 	lbu	v0,-32731(gp)
     5d0:	ffff4224 	addiu	v0,v0,-1
     5d4:	258082a3 	sb	v0,-32731(gp)
     5d8:	ff004230 	andi	v0,v0,0xff
     5dc:	f1ff4014 	bnez	v0,0x5a4
     5e0:	01001026 	addiu	s0,s0,1
     5e4:	40000000 	ssnop
     5e8:	1400bf8f 	lw	ra,20(sp)
     5ec:	1000b08f 	lw	s0,16(sp)
     5f0:	0800e003 	jr	ra
     5f4:	1800bd27 	addiu	sp,sp,24
     5f8:	e8ffbd27 	addiu	sp,sp,-24
     5fc:	1000bfaf 	sw	ra,16(sp)
     600:	c707400f 	jal	0xd001f1c
     604:	00000000 	nop
     608:	1000bf8f 	lw	ra,16(sp)
     60c:	0800e003 	jr	ra
     610:	1800bd27 	addiu	sp,sp,24
     614:	e8ffbd27 	addiu	sp,sp,-24
     618:	1000bfaf 	sw	ra,16(sp)
     61c:	01000424 	li	a0,1
     620:	6a07400f 	jal	0xd001da8
     624:	1d000524 	li	a1,29
     628:	00a0063c 	lui	a2,0xa000
     62c:	8002c624 	addiu	a2,a2,640
     630:	01000424 	li	a0,1
     634:	21280000 	move	a1,zero
     638:	8607400f 	jal	0xd001e18
     63c:	40000724 	li	a3,64
     640:	108082af 	sw	v0,-32752(gp)
     644:	1000bf8f 	lw	ra,16(sp)
     648:	0800e003 	jr	ra
     64c:	1800bd27 	addiu	sp,sp,24
     650:	e8ffbd27 	addiu	sp,sp,-24
     654:	1000bfaf 	sw	ra,16(sp)
     658:	03000224 	li	v0,3
     65c:	10008210 	beq	a0,v0,0x6a0
     660:	0400832c 	sltiu	v1,a0,4
     664:	06006010 	beqz	v1,0x680
     668:	72000224 	li	v0,114
     66c:	01000224 	li	v0,1
     670:	07008210 	beq	a0,v0,0x690
     674:	1000bf8f 	lw	ra,16(sp)
     678:	10000010 	b	0x6bc
     67c:	00000000 	nop
     680:	0b008210 	beq	a0,v0,0x6b0
     684:	01000224 	li	v0,1
     688:	0c000010 	b	0x6bc
     68c:	1000bf8f 	lw	ra,16(sp)
     690:	8501400f 	jal	0xd000614
     694:	00000000 	nop
     698:	07000010 	b	0x6b8
     69c:	01000224 	li	v0,1
     6a0:	7e01400f 	jal	0xd0005f8
     6a4:	00000000 	nop
     6a8:	03000010 	b	0x6b8
     6ac:	01000224 	li	v0,1
     6b0:	40000000 	ssnop
     6b4:	01000224 	li	v0,1
     6b8:	1000bf8f 	lw	ra,16(sp)
     6bc:	0800e003 	jr	ra
     6c0:	1800bd27 	addiu	sp,sp,24
     6c4:	88bf043c 	lui	a0,0xbf88
     6c8:	73108390 	lbu	v1,4211(a0)
     6cc:	fdff0224 	li	v0,-3
     6d0:	24186200 	and	v1,v1,v0
     6d4:	ff000524 	li	a1,255
     6d8:	9f000624 	li	a2,159
     6dc:	731083a0 	sb	v1,4211(a0)
     6e0:	88bf023c 	lui	v0,0xbf88
     6e4:	205245ac 	sw	a1,21024(v0)
     6e8:	88bf023c 	lui	v0,0xbf88
     6ec:	005245ac 	sw	a1,20992(v0)
     6f0:	88bf023c 	lui	v0,0xbf88
     6f4:	e05240ac 	sw	zero,21216(v0)
     6f8:	88bf023c 	lui	v0,0xbf88
     6fc:	305246ac 	sw	a2,21040(v0)
     700:	88bf023c 	lui	v0,0xbf88
     704:	105246ac 	sw	a2,21008(v0)
     708:	88bf033c 	lui	v1,0xbf88
     70c:	7050628c 	lw	v0,20592(v1)
     710:	88bf043c 	lui	a0,0xbf88
     714:	0f004230 	andi	v0,v0,0xf
     718:	705062ac 	sw	v0,20592(v1)
     71c:	7050628c 	lw	v0,20592(v1)
     720:	705062ac 	sw	v0,20592(v1)
     724:	80508290 	lbu	v0,20608(a0)
     728:	01004234 	ori	v0,v0,0x1
     72c:	805082a0 	sb	v0,20608(a0)
     730:	00a0023c 	lui	v0,0xa000
     734:	00044224 	addiu	v0,v0,1024
     738:	02120200 	srl	v0,v0,0x8
     73c:	88bf033c 	lui	v1,0xbf88
     740:	705262ac 	sw	v0,21104(v1)
     744:	88bf033c 	lui	v1,0xbf88
     748:	50526290 	lbu	v0,21072(v1)
     74c:	02004234 	ori	v0,v0,0x2
     750:	505262a0 	sb	v0,21072(v1)
     754:	88bf023c 	lui	v0,0xbf88
     758:	605240ac 	sw	zero,21088(v0)
     75c:	88bf023c 	lui	v0,0xbf88
     760:	10534324 	addiu	v1,v0,21264
     764:	21100000 	move	v0,zero
     768:	01004224 	addiu	v0,v0,1
     76c:	ff004230 	andi	v0,v0,0xff
     770:	000060ac 	sw	zero,0(v1)
     774:	fcff4010 	beqz	v0,0x768
     778:	10006324 	addiu	v1,v1,16
     77c:	88bf043c 	lui	a0,0xbf88
     780:	50528290 	lbu	v0,21072(a0)
     784:	fdff0324 	li	v1,-3
     788:	24104300 	and	v0,v0,v1
     78c:	505282a0 	sb	v0,21072(a0)
     790:	00a0023c 	lui	v0,0xa000
     794:	00044424 	addiu	a0,v0,1024
     798:	21280000 	move	a1,zero
     79c:	0100a224 	addiu	v0,a1,1
     7a0:	c0180500 	sll	v1,a1,0x3
     7a4:	ff004530 	andi	a1,v0,0xff
     7a8:	21186400 	addu	v1,v1,a0
     7ac:	0800a22c 	sltiu	v0,a1,8
     7b0:	21300000 	move	a2,zero
     7b4:	21380000 	move	a3,zero
     7b8:	000066ac 	sw	a2,0(v1)
     7bc:	040067ac 	sw	a3,4(v1)
     7c0:	f7ff4014 	bnez	v0,0x7a0
     7c4:	0100a224 	addiu	v0,a1,1
     7c8:	0d000324 	li	v1,13
     7cc:	88bf023c 	lui	v0,0xbf88
     7d0:	005343ac 	sw	v1,21248(v0)
     7d4:	88bf033c 	lui	v1,0xbf88
     7d8:	0052628c 	lw	v0,20992(v1)
     7dc:	c000427c 	ext	v0,v0,0x3,0x1
     7e0:	21206000 	move	a0,v1
     7e4:	01000324 	li	v1,1
     7e8:	09004354 	bnel	v0,v1,0x810
     7ec:	88bf043c 	lui	a0,0xbf88
     7f0:	88bf063c 	lui	a2,0xbf88
     7f4:	08000524 	li	a1,8
     7f8:	0052c5ac 	sw	a1,20992(a2)
     7fc:	0052828c 	lw	v0,20992(a0)
     800:	c000427c 	ext	v0,v0,0x3,0x1
     804:	fcff4310 	beq	v0,v1,0x7f8
     808:	00000000 	nop
     80c:	88bf043c 	lui	a0,0xbf88
     810:	50528390 	lbu	v1,21072(a0)
     814:	dfff0224 	li	v0,-33
     818:	24186200 	and	v1,v1,v0
     81c:	00a0023c 	lui	v0,0xa000
     820:	40034224 	addiu	v0,v0,832
     824:	505283a0 	sb	v1,21072(a0)
     828:	060040a0 	sb	zero,6(v0)
     82c:	348080a3 	sb	zero,-32716(gp)
     830:	040040a0 	sb	zero,4(v0)
     834:	050040a0 	sb	zero,5(v0)
     838:	21280000 	move	a1,zero
     83c:	44808727 	addiu	a3,gp,-32700
     840:	58808627 	addiu	a2,gp,-32680
     844:	0100a324 	addiu	v1,a1,1
     848:	80100500 	sll	v0,a1,0x2
     84c:	ff006530 	andi	a1,v1,0xff
     850:	21204600 	addu	a0,v0,a2
     854:	21104700 	addu	v0,v0,a3
     858:	0200a32c 	sltiu	v1,a1,2
     85c:	000040ac 	sw	zero,0(v0)
     860:	f8ff6014 	bnez	v1,0x844
     864:	000080ac 	sw	zero,0(a0)
     868:	00a0023c 	lui	v0,0xa000
     86c:	10044224 	addiu	v0,v0,1040
     870:	448082af 	sw	v0,-32700(gp)
     874:	408080a3 	sb	zero,-32704(gp)
     878:	0800e003 	jr	ra
     87c:	3c8080af 	sw	zero,-32708(gp)
     880:	e8ffbd27 	addiu	sp,sp,-24
     884:	1400bfaf 	sw	ra,20(sp)
     888:	1000b0af 	sw	s0,16(sp)
     88c:	3c80828f 	lw	v0,-32708(gp)
     890:	22004014 	bnez	v0,0x91c
     894:	3c80838f 	lw	v1,-32708(gp)
     898:	88bf043c 	lui	a0,0xbf88
     89c:	9f000324 	li	v1,159
     8a0:	88bf023c 	lui	v0,0xbf88
     8a4:	505240ac 	sw	zero,21072(v0)
     8a8:	105280ac 	sw	zero,21008(a0)
     8ac:	88bf023c 	lui	v0,0xbf88
     8b0:	e05240ac 	sw	zero,21216(v0)
     8b4:	88bf023c 	lui	v0,0xbf88
     8b8:	305243ac 	sw	v1,21040(v0)
     8bc:	105283ac 	sw	v1,21008(a0)
     8c0:	88bf033c 	lui	v1,0xbf88
     8c4:	7050628c 	lw	v0,20592(v1)
     8c8:	88bf043c 	lui	a0,0xbf88
     8cc:	0f004230 	andi	v0,v0,0xf
     8d0:	705062ac 	sw	v0,20592(v1)
     8d4:	7050628c 	lw	v0,20592(v1)
     8d8:	21288000 	move	a1,a0
     8dc:	705062ac 	sw	v0,20592(v1)
     8e0:	5052828c 	lw	v0,21072(a0)
     8e4:	0000427c 	ext	v0,v0,0x0,0x1
     8e8:	0a004014 	bnez	v0,0x914
     8ec:	01000224 	li	v0,1
     8f0:	2118a000 	move	v1,a1
     8f4:	5052a290 	lbu	v0,21072(a1)
     8f8:	01004234 	ori	v0,v0,0x1
     8fc:	505262a0 	sb	v0,21072(v1)
     900:	5052628c 	lw	v0,21072(v1)
     904:	0000427c 	ext	v0,v0,0x0,0x1
     908:	faff4010 	beqz	v0,0x8f4
     90c:	2118a000 	move	v1,a1
     910:	01000224 	li	v0,1
     914:	3c8082af 	sw	v0,-32708(gp)
     918:	3c80838f 	lw	v1,-32708(gp)
     91c:	01000224 	li	v0,1
     920:	10006214 	bne	v1,v0,0x964
     924:	88bf023c 	lui	v0,0xbf88
     928:	ff000324 	li	v1,255
     92c:	88bf023c 	lui	v0,0xbf88
     930:	005243ac 	sw	v1,20992(v0)
     934:	88bf023c 	lui	v0,0xbf88
     938:	105240ac 	sw	zero,21008(v0)
     93c:	88bf043c 	lui	a0,0xbf88
     940:	10528290 	lbu	v0,21008(a0)
     944:	01004234 	ori	v0,v0,0x1
     948:	105282a0 	sb	v0,21008(a0)
     94c:	10528290 	lbu	v0,21008(a0)
     950:	02000324 	li	v1,2
     954:	3c8083af 	sw	v1,-32708(gp)
     958:	10004234 	ori	v0,v0,0x10
     95c:	105282a0 	sb	v0,21008(a0)
     960:	88bf023c 	lui	v0,0xbf88
     964:	4050428c 	lw	v0,20544(v0)
     968:	0001427c 	ext	v0,v0,0x4,0x1
     96c:	0c004010 	beqz	v0,0x9a0
     970:	88bf023c 	lui	v0,0xbf88
     974:	88bf023c 	lui	v0,0xbf88
     978:	5050428c 	lw	v0,20560(v0)
     97c:	0001427c 	ext	v0,v0,0x4,0x1
     980:	07004010 	beqz	v0,0x9a0
     984:	88bf023c 	lui	v0,0xbf88
     988:	10000324 	li	v1,16
     98c:	88bf023c 	lui	v0,0xbf88
     990:	405043ac 	sw	v1,20544(v0)
     994:	3f03400f 	jal	0xd000cfc
     998:	00000000 	nop
     99c:	88bf023c 	lui	v0,0xbf88
     9a0:	8050428c 	lw	v0,20608(v0)
     9a4:	4000427c 	ext	v0,v0,0x1,0x1
     9a8:	01000324 	li	v1,1
     9ac:	08004314 	bne	v0,v1,0x9d0
     9b0:	88bf023c 	lui	v0,0xbf88
     9b4:	88bf023c 	lui	v0,0xbf88
     9b8:	43104390 	lbu	v1,4163(v0)
     9bc:	fdff0424 	li	a0,-3
     9c0:	24186400 	and	v1,v1,a0
     9c4:	431043a0 	sb	v1,4163(v0)
     9c8:	95000010 	b	0xc20
     9cc:	1400bf8f 	lw	ra,20(sp)
     9d0:	0052428c 	lw	v0,20992(v0)
     9d4:	0000427c 	ext	v0,v0,0x0,0x1
     9d8:	20004010 	beqz	v0,0xa5c
     9dc:	88bf023c 	lui	v0,0xbf88
     9e0:	88bf023c 	lui	v0,0xbf88
     9e4:	1052428c 	lw	v0,21008(v0)
     9e8:	0000427c 	ext	v0,v0,0x0,0x1
     9ec:	1b004010 	beqz	v0,0xa5c
     9f0:	88bf023c 	lui	v0,0xbf88
     9f4:	b101400f 	jal	0xd0006c4
     9f8:	00000000 	nop
     9fc:	00a0053c 	lui	a1,0xa000
     a00:	70808327 	addiu	v1,gp,-32656
     a04:	ff1f023c 	lui	v0,0x1fff
     a08:	ffff4234 	ori	v0,v0,0xffff
     a0c:	24186200 	and	v1,v1,v0
     a10:	0004a424 	addiu	a0,a1,1024
     a14:	040083ac 	sw	v1,4(a0)
     a18:	02008294 	lhu	v0,2(a0)
     a1c:	08000324 	li	v1,8
     a20:	0448627c 	ins	v0,v1,0x0,0xa
     a24:	020082a4 	sh	v0,2(a0)
     a28:	0004a294 	lhu	v0,1024(a1)
     a2c:	03ff0324 	li	v1,-253
     a30:	24104300 	and	v0,v0,v1
     a34:	0004a2a4 	sh	v0,1024(a1)
     a38:	0004a294 	lhu	v0,1024(a1)
     a3c:	8c004234 	ori	v0,v0,0x8c
     a40:	0004a2a4 	sh	v0,1024(a1)
     a44:	01000324 	li	v1,1
     a48:	88bf023c 	lui	v0,0xbf88
     a4c:	005243ac 	sw	v1,20992(v0)
     a50:	04000224 	li	v0,4
     a54:	3c8082af 	sw	v0,-32708(gp)
     a58:	88bf023c 	lui	v0,0xbf88
     a5c:	0052428c 	lw	v0,20992(v0)
     a60:	0001427c 	ext	v0,v0,0x4,0x1
     a64:	0c004010 	beqz	v0,0xa98
     a68:	88bf023c 	lui	v0,0xbf88
     a6c:	88bf023c 	lui	v0,0xbf88
     a70:	1052428c 	lw	v0,21008(v0)
     a74:	0001427c 	ext	v0,v0,0x4,0x1
     a78:	07004010 	beqz	v0,0xa98
     a7c:	88bf023c 	lui	v0,0xbf88
     a80:	2e03400f 	jal	0xd000cb8
     a84:	00000000 	nop
     a88:	10000324 	li	v1,16
     a8c:	88bf023c 	lui	v0,0xbf88
     a90:	005243ac 	sw	v1,20992(v0)
     a94:	88bf023c 	lui	v0,0xbf88
     a98:	0052428c 	lw	v0,20992(v0)
     a9c:	8000427c 	ext	v0,v0,0x2,0x1
     aa0:	0e004010 	beqz	v0,0xadc
     aa4:	88bf023c 	lui	v0,0xbf88
     aa8:	88bf023c 	lui	v0,0xbf88
     aac:	1052428c 	lw	v0,21008(v0)
     ab0:	8000427c 	ext	v0,v0,0x2,0x1
     ab4:	09004010 	beqz	v0,0xadc
     ab8:	88bf023c 	lui	v0,0xbf88
     abc:	73000424 	li	a0,115
     ac0:	21280000 	move	a1,zero
     ac4:	9401400f 	jal	0xd000650
     ac8:	01000624 	li	a2,1
     acc:	04000324 	li	v1,4
     ad0:	88bf023c 	lui	v0,0xbf88
     ad4:	005243ac 	sw	v1,20992(v0)
     ad8:	88bf023c 	lui	v0,0xbf88
     adc:	0052428c 	lw	v0,20992(v0)
     ae0:	c001427c 	ext	v0,v0,0x7,0x1
     ae4:	09004010 	beqz	v0,0xb0c
     ae8:	88bf023c 	lui	v0,0xbf88
     aec:	88bf023c 	lui	v0,0xbf88
     af0:	1052428c 	lw	v0,21008(v0)
     af4:	c001427c 	ext	v0,v0,0x7,0x1
     af8:	04004010 	beqz	v0,0xb0c
     afc:	88bf023c 	lui	v0,0xbf88
     b00:	0b03400f 	jal	0xd000c2c
     b04:	00000000 	nop
     b08:	88bf023c 	lui	v0,0xbf88
     b0c:	0052428c 	lw	v0,20992(v0)
     b10:	4000427c 	ext	v0,v0,0x1,0x1
     b14:	12004010 	beqz	v0,0xb60
     b18:	3c80828f 	lw	v0,-32708(gp)
     b1c:	88bf023c 	lui	v0,0xbf88
     b20:	1052428c 	lw	v0,21008(v0)
     b24:	4000427c 	ext	v0,v0,0x1,0x1
     b28:	0d004010 	beqz	v0,0xb60
     b2c:	3c80828f 	lw	v0,-32708(gp)
     b30:	ff7f043c 	lui	a0,0x7fff
     b34:	ffff8434 	ori	a0,a0,0xffff
     b38:	21280000 	move	a1,zero
     b3c:	9401400f 	jal	0xd000650
     b40:	01000624 	li	a2,1
     b44:	ff000324 	li	v1,255
     b48:	88bf023c 	lui	v0,0xbf88
     b4c:	205243ac 	sw	v1,21024(v0)
     b50:	02000324 	li	v1,2
     b54:	88bf023c 	lui	v0,0xbf88
     b58:	005243ac 	sw	v1,20992(v0)
     b5c:	3c80828f 	lw	v0,-32708(gp)
     b60:	0400422c 	sltiu	v0,v0,4
     b64:	08004010 	beqz	v0,0xb88
     b68:	88bf023c 	lui	v0,0xbf88
     b6c:	88bf023c 	lui	v0,0xbf88
     b70:	43104390 	lbu	v1,4163(v0)
     b74:	fdff0424 	li	a0,-3
     b78:	24186400 	and	v1,v1,a0
     b7c:	431043a0 	sb	v1,4163(v0)
     b80:	27000010 	b	0xc20
     b84:	1400bf8f 	lw	ra,20(sp)
     b88:	1052428c 	lw	v0,21008(v0)
     b8c:	c000427c 	ext	v0,v0,0x3,0x1
     b90:	1e004010 	beqz	v0,0xc0c
     b94:	88bf023c 	lui	v0,0xbf88
     b98:	21800000 	move	s0,zero
     b9c:	88bf023c 	lui	v0,0xbf88
     ba0:	0052428c 	lw	v0,20992(v0)
     ba4:	c000427c 	ext	v0,v0,0x3,0x1
     ba8:	72000424 	li	a0,114
     bac:	68808527 	addiu	a1,gp,-32664
     bb0:	15004010 	beqz	v0,0xc08
     bb4:	21300000 	move	a2,zero
     bb8:	88bf023c 	lui	v0,0xbf88
     bbc:	4052478c 	lw	a3,21056(v0)
     bc0:	08000324 	li	v1,8
     bc4:	88bf023c 	lui	v0,0xbf88
     bc8:	005243ac 	sw	v1,20992(v0)
     bcc:	ff00e230 	andi	v0,a3,0xff
     bd0:	f0004230 	andi	v0,v0,0xf0
     bd4:	05004014 	bnez	v0,0xbec
     bd8:	688087a3 	sb	a3,-32664(gp)
     bdc:	5003400f 	jal	0xd000d40
     be0:	00000000 	nop
     be4:	04000010 	b	0xbf8
     be8:	01000226 	addiu	v0,s0,1
     bec:	9401400f 	jal	0xd000650
     bf0:	00000000 	nop
     bf4:	01000226 	addiu	v0,s0,1
     bf8:	ff005030 	andi	s0,v0,0xff
     bfc:	0400022e 	sltiu	v0,s0,4
     c00:	e7ff4014 	bnez	v0,0xba0
     c04:	88bf023c 	lui	v0,0xbf88
     c08:	88bf023c 	lui	v0,0xbf88
     c0c:	43104390 	lbu	v1,4163(v0)
     c10:	fdff0424 	li	a0,-3
     c14:	24186400 	and	v1,v1,a0
     c18:	431043a0 	sb	v1,4163(v0)
     c1c:	1400bf8f 	lw	ra,20(sp)
     c20:	1000b08f 	lw	s0,16(sp)
     c24:	0800e003 	jr	ra
     c28:	1800bd27 	addiu	sp,sp,24
     c2c:	88bf053c 	lui	a1,0xbf88
     c30:	0053a28c 	lw	v0,21248(a1)
     c34:	4000427c 	ext	v0,v0,0x1,0x1
     c38:	01000324 	li	v1,1
     c3c:	1a004314 	bne	v0,v1,0xca8
     c40:	80000324 	li	v1,128
     c44:	5080848f 	lw	a0,-32688(gp)
     c48:	00008290 	lbu	v0,0(a0)
     c4c:	01008390 	lbu	v1,1(a0)
     c50:	001a0300 	sll	v1,v1,0x8
     c54:	25186200 	or	v1,v1,v0
     c58:	80000224 	li	v0,128
     c5c:	0d006214 	bne	v1,v0,0xc94
     c60:	4480828f 	lw	v0,-32700(gp)
     c64:	00004390 	lbu	v1,0(v0)
     c68:	01004290 	lbu	v0,1(v0)
     c6c:	00120200 	sll	v0,v0,0x8
     c70:	25104300 	or	v0,v0,v1
     c74:	84000324 	li	v1,132
     c78:	06004314 	bne	v0,v1,0xc94
     c7c:	00000000 	nop
     c80:	00008290 	lbu	v0,0(a0)
     c84:	8cff0224 	li	v0,-116
     c88:	000082a0 	sb	v0,0(a0)
     c8c:	01008290 	lbu	v0,1(a0)
     c90:	010080a0 	sb	zero,1(a0)
     c94:	0053a290 	lbu	v0,21248(a1)
     c98:	fdff0324 	li	v1,-3
     c9c:	24104300 	and	v0,v0,v1
     ca0:	0053a2a0 	sb	v0,21248(a1)
     ca4:	80000324 	li	v1,128
     ca8:	88bf023c 	lui	v0,0xbf88
     cac:	005243ac 	sw	v1,20992(v0)
     cb0:	0800e003 	jr	ra
     cb4:	00000000 	nop
     cb8:	e8ffbd27 	addiu	sp,sp,-24
     cbc:	1000bfaf 	sw	ra,16(sp)
     cc0:	88bf033c 	lui	v1,0xbf88
     cc4:	50506290 	lbu	v0,20560(v1)
     cc8:	10004234 	ori	v0,v0,0x10
     ccc:	75000424 	li	a0,117
     cd0:	21280000 	move	a1,zero
     cd4:	21300000 	move	a2,zero
     cd8:	505062a0 	sb	v0,20560(v1)
     cdc:	10000324 	li	v1,16
     ce0:	88bf023c 	lui	v0,0xbf88
     ce4:	005243ac 	sw	v1,20992(v0)
     ce8:	9401400f 	jal	0xd000650
     cec:	00000000 	nop
     cf0:	1000bf8f 	lw	ra,16(sp)
     cf4:	0800e003 	jr	ra
     cf8:	1800bd27 	addiu	sp,sp,24
     cfc:	e8ffbd27 	addiu	sp,sp,-24
     d00:	1000bfaf 	sw	ra,16(sp)
     d04:	74000424 	li	a0,116
     d08:	21280000 	move	a1,zero
     d0c:	9401400f 	jal	0xd000650
     d10:	21300000 	move	a2,zero
     d14:	88bf043c 	lui	a0,0xbf88
     d18:	50508290 	lbu	v0,20560(a0)
     d1c:	efff0324 	li	v1,-17
     d20:	24104300 	and	v0,v0,v1
     d24:	505082a0 	sb	v0,20560(a0)
     d28:	10000324 	li	v1,16
     d2c:	88bf023c 	lui	v0,0xbf88
     d30:	405043ac 	sw	v1,20544(v0)
     d34:	1000bf8f 	lw	ra,16(sp)
     d38:	0800e003 	jr	ra
     d3c:	1800bd27 	addiu	sp,sp,24
     d40:	e8ffbd27 	addiu	sp,sp,-24
     d44:	1000bfaf 	sw	ra,16(sp)
     d48:	68808393 	lbu	v1,-32664(gp)
     d4c:	fb006230 	andi	v0,v1,0xfb
     d50:	2d004014 	bnez	v0,0xe08
     d54:	68808293 	lbu	v0,-32664(gp)
     d58:	82180300 	srl	v1,v1,0x2
     d5c:	c0180300 	sll	v1,v1,0x3
     d60:	00a0023c 	lui	v0,0xa000
     d64:	00044224 	addiu	v0,v0,1024
     d68:	21206200 	addu	a0,v1,v0
     d6c:	548084af 	sw	a0,-32684(gp)
     d70:	00008390 	lbu	v1,0(a0)
     d74:	54808293 	lbu	v0,-32684(gp)
     d78:	08004238 	xori	v0,v0,0x8
     d7c:	8018637c 	ext	v1,v1,0x2,0x4
     d80:	548082a3 	sb	v0,-32684(gp)
     d84:	0d000224 	li	v0,13
     d88:	1b006214 	bne	v1,v0,0xdf8
     d8c:	508084af 	sw	a0,-32688(gp)
     d90:	07008388 	lwl	v1,7(a0)
     d94:	ff1f023c 	lui	v0,0x1fff
     d98:	ffff4534 	ori	a1,v0,0xffff
     d9c:	04008398 	lwr	v1,4(a0)
     da0:	78808227 	addiu	v0,gp,-32648
     da4:	24104500 	and	v0,v0,a1
     da8:	0f006214 	bne	v1,v0,0xde8
     dac:	70808227 	addiu	v0,gp,-32656
     db0:	24104500 	and	v0,v0,a1
     db4:	070082a8 	swl	v0,7(a0)
     db8:	040082b8 	swr	v0,4(a0)
     dbc:	21300000 	move	a2,zero
     dc0:	70808827 	addiu	t0,gp,-32656
     dc4:	78808727 	addiu	a3,gp,-32648
     dc8:	0100c424 	addiu	a0,a2,1
     dcc:	2110c700 	addu	v0,a2,a3
     dd0:	00004590 	lbu	a1,0(v0)
     dd4:	2118c800 	addu	v1,a2,t0
     dd8:	ff008630 	andi	a2,a0,0xff
     ddc:	0800c22c 	sltiu	v0,a2,8
     de0:	f9ff4014 	bnez	v0,0xdc8
     de4:	000065a0 	sb	a1,0(v1)
     de8:	8b03400f 	jal	0xd000e2c
     dec:	00000000 	nop
     df0:	0c000010 	b	0xe24
     df4:	1000bf8f 	lw	ra,16(sp)
     df8:	a503400f 	jal	0xd000e94
     dfc:	00000000 	nop
     e00:	08000010 	b	0xe24
     e04:	1000bf8f 	lw	ra,16(sp)
     e08:	fb004230 	andi	v0,v0,0xfb
     e0c:	08000324 	li	v1,8
     e10:	04004314 	bne	v0,v1,0xe24
     e14:	1000bf8f 	lw	ra,16(sp)
     e18:	ce03400f 	jal	0xd000f38
     e1c:	00000000 	nop
     e20:	1000bf8f 	lw	ra,16(sp)
     e24:	0800e003 	jr	ra
     e28:	1800bd27 	addiu	sp,sp,24
     e2c:	e8ffbd27 	addiu	sp,sp,-24
     e30:	1000bfaf 	sw	ra,16(sp)
     e34:	4480838f 	lw	v1,-32700(gp)
     e38:	00006290 	lbu	v0,0(v1)
     e3c:	c001427c 	ext	v0,v0,0x7,0x1
     e40:	06004050 	beqzl	v0,0xe5c
     e44:	608080a3 	sb	zero,-32672(gp)
     e48:	00006290 	lbu	v0,0(v1)
     e4c:	000060a0 	sb	zero,0(v1)
     e50:	01006290 	lbu	v0,1(v1)
     e54:	010060a0 	sb	zero,1(v1)
     e58:	608080a3 	sb	zero,-32672(gp)
     e5c:	618080a3 	sb	zero,-32671(gp)
     e60:	358080a3 	sb	zero,-32715(gp)
     e64:	368080a3 	sb	zero,-32714(gp)
     e68:	3604400f 	jal	0xd0010d8
     e6c:	348080a3 	sb	zero,-32716(gp)
     e70:	03000424 	li	a0,3
     e74:	21280000 	move	a1,zero
     e78:	9401400f 	jal	0xd000650
     e7c:	21300000 	move	a2,zero
     e80:	7705400f 	jal	0xd0015dc
     e84:	00000000 	nop
     e88:	1000bf8f 	lw	ra,16(sp)
     e8c:	0800e003 	jr	ra
     e90:	1800bd27 	addiu	sp,sp,24
     e94:	e8ffbd27 	addiu	sp,sp,-24
     e98:	1000bfaf 	sw	ra,16(sp)
     e9c:	61808393 	lbu	v1,-32671(gp)
     ea0:	02000224 	li	v0,2
     ea4:	05006214 	bne	v1,v0,0xebc
     ea8:	00000000 	nop
     eac:	9306400f 	jal	0xd001a4c
     eb0:	00000000 	nop
     eb4:	1e000010 	b	0xf30
     eb8:	1000bf8f 	lw	ra,16(sp)
     ebc:	1404400f 	jal	0xd001050
     ec0:	00000000 	nop
     ec4:	70808227 	addiu	v0,gp,-32656
     ec8:	ff1f033c 	lui	v1,0x1fff
     ecc:	ffff6334 	ori	v1,v1,0xffff
     ed0:	24284300 	and	a1,v0,v1
     ed4:	6c80828f 	lw	v0,-32660(gp)
     ed8:	14004054 	bnezl	v0,0xf2c
     edc:	6c8080af 	sw	zero,-32660(gp)
     ee0:	5480848f 	lw	a0,-32684(gp)
     ee4:	02008290 	lbu	v0,2(a0)
     ee8:	08000224 	li	v0,8
     eec:	020082a0 	sb	v0,2(a0)
     ef0:	03008290 	lbu	v0,3(a0)
     ef4:	fcff0324 	li	v1,-4
     ef8:	24104300 	and	v0,v0,v1
     efc:	030082a0 	sb	v0,3(a0)
     f00:	5480828f 	lw	v0,-32684(gp)
     f04:	070045a8 	swl	a1,7(v0)
     f08:	040045b8 	swr	a1,4(v0)
     f0c:	5480828f 	lw	v0,-32684(gp)
     f10:	00004390 	lbu	v1,0(v0)
     f14:	8cff0324 	li	v1,-116
     f18:	000043a0 	sb	v1,0(v0)
     f1c:	01004390 	lbu	v1,1(v0)
     f20:	010040a0 	sb	zero,1(v0)
     f24:	02000010 	b	0xf30
     f28:	1000bf8f 	lw	ra,16(sp)
     f2c:	1000bf8f 	lw	ra,16(sp)
     f30:	0800e003 	jr	ra
     f34:	1800bd27 	addiu	sp,sp,24
     f38:	e8ffbd27 	addiu	sp,sp,-24
     f3c:	1400bfaf 	sw	ra,20(sp)
     f40:	1000b0af 	sw	s0,16(sp)
     f44:	4480828f 	lw	v0,-32700(gp)
     f48:	00004390 	lbu	v1,0(v0)
     f4c:	44808293 	lbu	v0,-32700(gp)
     f50:	08004238 	xori	v0,v0,0x8
     f54:	448082a3 	sb	v0,-32700(gp)
     f58:	8001707c 	ext	s0,v1,0x6,0x1
     f5c:	3c80838f 	lw	v1,-32708(gp)
     f60:	08000224 	li	v0,8
     f64:	0d006214 	bne	v1,v0,0xf9c
     f68:	61808393 	lbu	v1,-32671(gp)
     f6c:	72808293 	lbu	v0,-32654(gp)
     f70:	88bf033c 	lui	v1,0xbf88
     f74:	ff004230 	andi	v0,v0,0xff
     f78:	605262ac 	sw	v0,21088(v1)
     f7c:	6052628c 	lw	v0,21088(v1)
     f80:	04004010 	beqz	v0,0xf94
     f84:	04000224 	li	v0,4
     f88:	10000224 	li	v0,16
     f8c:	02000010 	b	0xf98
     f90:	3c8082af 	sw	v0,-32708(gp)
     f94:	3c8082af 	sw	v0,-32708(gp)
     f98:	61808393 	lbu	v1,-32671(gp)
     f9c:	01000224 	li	v0,1
     fa0:	25006214 	bne	v1,v0,0x1038
     fa4:	4480838f 	lw	v1,-32700(gp)
     fa8:	78808427 	addiu	a0,gp,-32648
     fac:	ff1f023c 	lui	v0,0x1fff
     fb0:	ffff4234 	ori	v0,v0,0xffff
     fb4:	24208200 	and	a0,a0,v0
     fb8:	070064a8 	swl	a0,7(v1)
     fbc:	040064b8 	swr	a0,4(v1)
     fc0:	3e06400f 	jal	0xd0018f8
     fc4:	00000000 	nop
     fc8:	60808393 	lbu	v1,-32672(gp)
     fcc:	02000224 	li	v0,2
     fd0:	08006214 	bne	v1,v0,0xff4
     fd4:	4480828f 	lw	v0,-32700(gp)
     fd8:	00004390 	lbu	v1,0(v0)
     fdc:	84ff0324 	li	v1,-124
     fe0:	000043a0 	sb	v1,0(v0)
     fe4:	01004390 	lbu	v1,1(v0)
     fe8:	010040a0 	sb	zero,1(v0)
     fec:	15000010 	b	0x1044
     ff0:	1400bf8f 	lw	ra,20(sp)
     ff4:	09000016 	bnez	s0,0x101c
     ff8:	00000000 	nop
     ffc:	4480828f 	lw	v0,-32700(gp)
    1000:	00004390 	lbu	v1,0(v0)
    1004:	c8ff0324 	li	v1,-56
    1008:	000043a0 	sb	v1,0(v0)
    100c:	01004390 	lbu	v1,1(v0)
    1010:	010040a0 	sb	zero,1(v0)
    1014:	0b000010 	b	0x1044
    1018:	1400bf8f 	lw	ra,20(sp)
    101c:	00004390 	lbu	v1,0(v0)
    1020:	88ff0324 	li	v1,-120
    1024:	000043a0 	sb	v1,0(v0)
    1028:	01004390 	lbu	v1,1(v0)
    102c:	010040a0 	sb	zero,1(v0)
    1030:	04000010 	b	0x1044
    1034:	1400bf8f 	lw	ra,20(sp)
    1038:	1404400f 	jal	0xd001050
    103c:	00000000 	nop
    1040:	1400bf8f 	lw	ra,20(sp)
    1044:	1000b08f 	lw	s0,16(sp)
    1048:	0800e003 	jr	ra
    104c:	1800bd27 	addiu	sp,sp,24
    1050:	e8ffbd27 	addiu	sp,sp,-24
    1054:	1000bfaf 	sw	ra,16(sp)
    1058:	4480828f 	lw	v0,-32700(gp)
    105c:	618080a3 	sb	zero,-32671(gp)
    1060:	00004390 	lbu	v1,0(v0)
    1064:	000040a0 	sb	zero,0(v0)
    1068:	01004390 	lbu	v1,1(v0)
    106c:	010040a0 	sb	zero,1(v0)
    1070:	4480828f 	lw	v0,-32700(gp)
    1074:	08004238 	xori	v0,v0,0x8
    1078:	010040a0 	sb	zero,1(v0)
    107c:	000040a0 	sb	zero,0(v0)
    1080:	00a0023c 	lui	v0,0xa000
    1084:	40034324 	addiu	v1,v0,832
    1088:	04006290 	lbu	v0,4(v1)
    108c:	80004230 	andi	v0,v0,0x80
    1090:	0f004010 	beqz	v0,0x10d0
    1094:	1000bf8f 	lw	ra,16(sp)
    1098:	0a006288 	lwl	v0,10(v1)
    109c:	07006298 	lwr	v0,7(v1)
    10a0:	06004050 	beqzl	v0,0x10bc
    10a4:	00a0033c 	lui	v1,0xa000
    10a8:	0a006288 	lwl	v0,10(v1)
    10ac:	07006298 	lwr	v0,7(v1)
    10b0:	09f84000 	jalr	v0
    10b4:	00000000 	nop
    10b8:	00a0033c 	lui	v1,0xa000
    10bc:	40036324 	addiu	v1,v1,832
    10c0:	04006290 	lbu	v0,4(v1)
    10c4:	7f004230 	andi	v0,v0,0x7f
    10c8:	040062a0 	sb	v0,4(v1)
    10cc:	1000bf8f 	lw	ra,16(sp)
    10d0:	0800e003 	jr	ra
    10d4:	1800bd27 	addiu	sp,sp,24
    10d8:	e8ffbd27 	addiu	sp,sp,-24
    10dc:	1000bfaf 	sw	ra,16(sp)
    10e0:	70808293 	lbu	v0,-32656(gp)
    10e4:	4009427c 	ext	v0,v0,0x5,0x2
    10e8:	4d004054 	bnezl	v0,0x1220
    10ec:	1000bf8f 	lw	ra,16(sp)
    10f0:	71808293 	lbu	v0,-32655(gp)
    10f4:	ff004330 	andi	v1,v0,0xff
    10f8:	0c00622c 	sltiu	v0,v1,12
    10fc:	48004050 	beqzl	v0,0x1220
    1100:	1000bf8f 	lw	ra,16(sp)
    1104:	80100300 	sll	v0,v1,0x2
    1108:	009d033c 	lui	v1,0x9d00
    110c:	b4246324 	addiu	v1,v1,9396
    1110:	21104300 	addu	v0,v0,v1
    1114:	0000428c 	lw	v0,0(v0)
    1118:	08004000 	jr	v0
    111c:	00000000 	nop
    1120:	34808293 	lbu	v0,-32716(gp)
    1124:	80ff0324 	li	v1,-128
    1128:	25104300 	or	v0,v0,v1
    112c:	348082a3 	sb	v0,-32716(gp)
    1130:	08000224 	li	v0,8
    1134:	39000010 	b	0x121c
    1138:	3c8082af 	sw	v0,-32708(gp)
    113c:	e604400f 	jal	0xd001398
    1140:	00000000 	nop
    1144:	36000010 	b	0x1220
    1148:	1000bf8f 	lw	ra,16(sp)
    114c:	1107400f 	jal	0xd001c44
    1150:	00000000 	nop
    1154:	32000010 	b	0x1220
    1158:	1000bf8f 	lw	ra,16(sp)
    115c:	30808227 	addiu	v0,gp,-32720
    1160:	40808327 	addiu	v1,gp,-32704
    1164:	030043a8 	swl	v1,3(v0)
    1168:	000043b8 	swr	v1,0(v0)
    116c:	34808393 	lbu	v1,-32716(gp)
    1170:	81ff0224 	li	v0,-127
    1174:	25186200 	or	v1,v1,v0
    1178:	01000224 	li	v0,1
    117c:	358082a3 	sb	v0,-32715(gp)
    1180:	26000010 	b	0x121c
    1184:	348083a3 	sb	v1,-32716(gp)
    1188:	2905400f 	jal	0xd0014a4
    118c:	00000000 	nop
    1190:	23000010 	b	0x1220
    1194:	1000bf8f 	lw	ra,16(sp)
    1198:	8a04400f 	jal	0xd001228
    119c:	00000000 	nop
    11a0:	1f000010 	b	0x1220
    11a4:	1000bf8f 	lw	ra,16(sp)
    11a8:	74808393 	lbu	v1,-32652(gp)
    11ac:	ff006330 	andi	v1,v1,0xff
    11b0:	4c808227 	addiu	v0,gp,-32692
    11b4:	21186200 	addu	v1,v1,v0
    11b8:	30808227 	addiu	v0,gp,-32720
    11bc:	030043a8 	swl	v1,3(v0)
    11c0:	000043b8 	swr	v1,0(v0)
    11c4:	34808393 	lbu	v1,-32716(gp)
    11c8:	81ff0224 	li	v0,-127
    11cc:	25186200 	or	v1,v1,v0
    11d0:	01000224 	li	v0,1
    11d4:	358082a3 	sb	v0,-32715(gp)
    11d8:	10000010 	b	0x121c
    11dc:	348083a3 	sb	v1,-32716(gp)
    11e0:	74808393 	lbu	v1,-32652(gp)
    11e4:	ff006330 	andi	v1,v1,0xff
    11e8:	72808593 	lbu	a1,-32654(gp)
    11ec:	34808493 	lbu	a0,-32716(gp)
    11f0:	80ff0224 	li	v0,-128
    11f4:	25208200 	or	a0,a0,v0
    11f8:	4c808227 	addiu	v0,gp,-32692
    11fc:	21186200 	addu	v1,v1,v0
    1200:	000065a0 	sb	a1,0(v1)
    1204:	05000010 	b	0x121c
    1208:	348084a3 	sb	a0,-32716(gp)
    120c:	02000424 	li	a0,2
    1210:	21280000 	move	a1,zero
    1214:	9401400f 	jal	0xd000650
    1218:	21300000 	move	a2,zero
    121c:	1000bf8f 	lw	ra,16(sp)
    1220:	0800e003 	jr	ra
    1224:	1800bd27 	addiu	sp,sp,24
    1228:	72808293 	lbu	v0,-32654(gp)
    122c:	ff004530 	andi	a1,v0,0xff
    1230:	01000224 	li	v0,1
    1234:	0e00a214 	bne	a1,v0,0x1270
    1238:	00000000 	nop
    123c:	70808293 	lbu	v0,-32656(gp)
    1240:	0020427c 	ext	v0,v0,0x0,0x5
    1244:	0a004014 	bnez	v0,0x1270
    1248:	00000000 	nop
    124c:	71808293 	lbu	v0,-32655(gp)
    1250:	ff004230 	andi	v0,v0,0xff
    1254:	03004238 	xori	v0,v0,0x3
    1258:	34808393 	lbu	v1,-32716(gp)
    125c:	80ff0424 	li	a0,-128
    1260:	25186400 	or	v1,v1,a0
    1264:	0b280200 	movn	a1,zero,v0
    1268:	348083a3 	sb	v1,-32716(gp)
    126c:	388085af 	sw	a1,-32712(gp)
    1270:	72808293 	lbu	v0,-32654(gp)
    1274:	46004014 	bnez	v0,0x1390
    1278:	00000000 	nop
    127c:	70808293 	lbu	v0,-32656(gp)
    1280:	0020427c 	ext	v0,v0,0x0,0x5
    1284:	02000324 	li	v1,2
    1288:	41004314 	bne	v0,v1,0x1390
    128c:	00000000 	nop
    1290:	74808293 	lbu	v0,-32652(gp)
    1294:	0018427c 	ext	v0,v0,0x0,0x4
    1298:	3d004010 	beqz	v0,0x1390
    129c:	00000000 	nop
    12a0:	74808293 	lbu	v0,-32652(gp)
    12a4:	34808393 	lbu	v1,-32716(gp)
    12a8:	80ff0424 	li	a0,-128
    12ac:	25186400 	or	v1,v1,a0
    12b0:	c001427c 	ext	v0,v0,0x7,0x1
    12b4:	08004014 	bnez	v0,0x12d8
    12b8:	348083a3 	sb	v1,-32716(gp)
    12bc:	74808293 	lbu	v0,-32652(gp)
    12c0:	0018427c 	ext	v0,v0,0x0,0x4
    12c4:	80100200 	sll	v0,v0,0x2
    12c8:	58808327 	addiu	v1,gp,-32680
    12cc:	21104300 	addu	v0,v0,v1
    12d0:	07000010 	b	0x12f0
    12d4:	0000468c 	lw	a2,0(v0)
    12d8:	74808293 	lbu	v0,-32652(gp)
    12dc:	0018427c 	ext	v0,v0,0x0,0x4
    12e0:	80100200 	sll	v0,v0,0x2
    12e4:	44808327 	addiu	v1,gp,-32700
    12e8:	21104300 	addu	v0,v0,v1
    12ec:	0000468c 	lw	a2,0(v0)
    12f0:	71808293 	lbu	v0,-32655(gp)
    12f4:	ff004230 	andi	v0,v0,0xff
    12f8:	03000324 	li	v1,3
    12fc:	04004314 	bne	v0,v1,0x1310
    1300:	84ff0224 	li	v0,-124
    1304:	0000c2a0 	sb	v0,0(a2)
    1308:	0800e003 	jr	ra
    130c:	0100c0a0 	sb	zero,1(a2)
    1310:	74808293 	lbu	v0,-32652(gp)
    1314:	0018427c 	ext	v0,v0,0x0,0x4
    1318:	88bf043c 	lui	a0,0xbf88
    131c:	00538424 	addiu	a0,a0,21248
    1320:	00110200 	sll	v0,v0,0x4
    1324:	21204400 	addu	a0,v0,a0
    1328:	0000838c 	lw	v1,0(a0)
    132c:	74808593 	lbu	a1,-32652(gp)
    1330:	fdff0224 	li	v0,-3
    1334:	24186200 	and	v1,v1,v0
    1338:	c001a57c 	ext	a1,a1,0x7,0x1
    133c:	01000224 	li	v0,1
    1340:	0a00a214 	bne	a1,v0,0x136c
    1344:	000083ac 	sw	v1,0(a0)
    1348:	0800c238 	xori	v0,a2,0x8
    134c:	2118c000 	move	v1,a2
    1350:	0438467c 	ins	a2,v0,0x0,0x8
    1354:	010060a0 	sb	zero,1(v1)
    1358:	000060a0 	sb	zero,0(v1)
    135c:	40000224 	li	v0,64
    1360:	0000c2a0 	sb	v0,0(a2)
    1364:	0800e003 	jr	ra
    1368:	0100c0a0 	sb	zero,1(a2)
    136c:	0800c238 	xori	v0,a2,0x8
    1370:	2118c000 	move	v1,a2
    1374:	0438467c 	ins	a2,v0,0x0,0x8
    1378:	88ff0224 	li	v0,-120
    137c:	000062a0 	sb	v0,0(v1)
    1380:	010060a0 	sb	zero,1(v1)
    1384:	c8ff0224 	li	v0,-56
    1388:	0000c2a0 	sb	v0,0(a2)
    138c:	0100c0a0 	sb	zero,1(a2)
    1390:	0800e003 	jr	ra
    1394:	00000000 	nop
    1398:	70808293 	lbu	v0,-32656(gp)
    139c:	ff004230 	andi	v0,v0,0xff
    13a0:	80000324 	li	v1,128
    13a4:	3d004314 	bne	v0,v1,0x149c
    13a8:	00000000 	nop
    13ac:	73808393 	lbu	v1,-32653(gp)
    13b0:	c0ff0224 	li	v0,-64
    13b4:	348082a3 	sb	v0,-32716(gp)
    13b8:	02000224 	li	v0,2
    13bc:	14006210 	beq	v1,v0,0x1410
    13c0:	03006228 	slti	v0,v1,3
    13c4:	06004010 	beqz	v0,0x13e0
    13c8:	03000224 	li	v0,3
    13cc:	01000224 	li	v0,1
    13d0:	07006210 	beq	v1,v0,0x13f0
    13d4:	009d023c 	lui	v0,0x9d00
    13d8:	0800e003 	jr	ra
    13dc:	348080a3 	sb	zero,-32716(gp)
    13e0:	1c006210 	beq	v1,v0,0x1454
    13e4:	00000000 	nop
    13e8:	0800e003 	jr	ra
    13ec:	348080a3 	sb	zero,-32716(gp)
    13f0:	c8234224 	addiu	v0,v0,9160
    13f4:	30808327 	addiu	v1,gp,-32720
    13f8:	030062a8 	swl	v0,3(v1)
    13fc:	000062b8 	swr	v0,0(v1)
    1400:	12000224 	li	v0,18
    1404:	358082a3 	sb	v0,-32715(gp)
    1408:	0800e003 	jr	ra
    140c:	368080a3 	sb	zero,-32714(gp)
    1410:	72808393 	lbu	v1,-32654(gp)
    1414:	80180300 	sll	v1,v1,0x2
    1418:	009d023c 	lui	v0,0x9d00
    141c:	88244224 	addiu	v0,v0,9352
    1420:	21186200 	addu	v1,v1,v0
    1424:	0000638c 	lw	v1,0(v1)
    1428:	30808227 	addiu	v0,gp,-32720
    142c:	030043a8 	swl	v1,3(v0)
    1430:	000043b8 	swr	v1,0(v0)
    1434:	03004388 	lwl	v1,3(v0)
    1438:	00004398 	lwr	v1,0(v0)
    143c:	02006290 	lbu	v0,2(v1)
    1440:	358082a3 	sb	v0,-32715(gp)
    1444:	02006294 	lhu	v0,2(v1)
    1448:	02120200 	srl	v0,v0,0x8
    144c:	0800e003 	jr	ra
    1450:	368082a3 	sb	v0,-32714(gp)
    1454:	72808293 	lbu	v0,-32654(gp)
    1458:	0300422c 	sltiu	v0,v0,3
    145c:	0f004050 	beqzl	v0,0x149c
    1460:	348080a3 	sb	zero,-32716(gp)
    1464:	72808393 	lbu	v1,-32654(gp)
    1468:	80180300 	sll	v1,v1,0x2
    146c:	009d023c 	lui	v0,0x9d00
    1470:	8c244224 	addiu	v0,v0,9356
    1474:	21186200 	addu	v1,v1,v0
    1478:	0000638c 	lw	v1,0(v1)
    147c:	30808227 	addiu	v0,gp,-32720
    1480:	030043a8 	swl	v1,3(v0)
    1484:	000043b8 	swr	v1,0(v0)
    1488:	03004388 	lwl	v1,3(v0)
    148c:	00004398 	lwr	v1,0(v0)
    1490:	00006290 	lbu	v0,0(v1)
    1494:	368080a3 	sb	zero,-32714(gp)
    1498:	358082a3 	sb	v0,-32715(gp)
    149c:	0800e003 	jr	ra
    14a0:	00000000 	nop
    14a4:	788080a3 	sb	zero,-32648(gp)
    14a8:	798080a3 	sb	zero,-32647(gp)
    14ac:	70808293 	lbu	v0,-32656(gp)
    14b0:	0020437c 	ext	v1,v0,0x0,0x5
    14b4:	01000224 	li	v0,1
    14b8:	1b006210 	beq	v1,v0,0x1528
    14bc:	02006228 	slti	v0,v1,2
    14c0:	05004010 	beqz	v0,0x14d8
    14c4:	02000224 	li	v0,2
    14c8:	07006010 	beqz	v1,0x14e8
    14cc:	34808293 	lbu	v0,-32716(gp)
    14d0:	36000010 	b	0x15ac
    14d4:	80004230 	andi	v0,v0,0x80
    14d8:	18006210 	beq	v1,v0,0x153c
    14dc:	34808293 	lbu	v0,-32716(gp)
    14e0:	32000010 	b	0x15ac
    14e4:	80004230 	andi	v0,v0,0x80
    14e8:	78808493 	lbu	a0,-32648(gp)
    14ec:	34808293 	lbu	v0,-32716(gp)
    14f0:	80ff0324 	li	v1,-128
    14f4:	25104300 	or	v0,v0,v1
    14f8:	01008434 	ori	a0,a0,0x1
    14fc:	348082a3 	sb	v0,-32716(gp)
    1500:	788084a3 	sb	a0,-32648(gp)
    1504:	3880838f 	lw	v1,-32712(gp)
    1508:	01000224 	li	v0,1
    150c:	26006254 	bnel	v1,v0,0x15a8
    1510:	34808293 	lbu	v0,-32716(gp)
    1514:	78808293 	lbu	v0,-32648(gp)
    1518:	02004234 	ori	v0,v0,0x2
    151c:	788082a3 	sb	v0,-32648(gp)
    1520:	21000010 	b	0x15a8
    1524:	34808293 	lbu	v0,-32716(gp)
    1528:	34808293 	lbu	v0,-32716(gp)
    152c:	80ff0324 	li	v1,-128
    1530:	25104300 	or	v0,v0,v1
    1534:	1b000010 	b	0x15a4
    1538:	348082a3 	sb	v0,-32716(gp)
    153c:	74808293 	lbu	v0,-32652(gp)
    1540:	34808393 	lbu	v1,-32716(gp)
    1544:	80ff0424 	li	a0,-128
    1548:	25186400 	or	v1,v1,a0
    154c:	c001427c 	ext	v0,v0,0x7,0x1
    1550:	08004014 	bnez	v0,0x1574
    1554:	348083a3 	sb	v1,-32716(gp)
    1558:	74808293 	lbu	v0,-32652(gp)
    155c:	0018427c 	ext	v0,v0,0x0,0x4
    1560:	80100200 	sll	v0,v0,0x2
    1564:	58808327 	addiu	v1,gp,-32680
    1568:	21104300 	addu	v0,v0,v1
    156c:	07000010 	b	0x158c
    1570:	0000428c 	lw	v0,0(v0)
    1574:	74808293 	lbu	v0,-32652(gp)
    1578:	0018427c 	ext	v0,v0,0x0,0x4
    157c:	80100200 	sll	v0,v0,0x2
    1580:	44808327 	addiu	v1,gp,-32700
    1584:	21104300 	addu	v0,v0,v1
    1588:	0000428c 	lw	v0,0(v0)
    158c:	00004290 	lbu	v0,0(v0)
    1590:	04004230 	andi	v0,v0,0x4
    1594:	04004010 	beqz	v0,0x15a8
    1598:	34808293 	lbu	v0,-32716(gp)
    159c:	01000224 	li	v0,1
    15a0:	788082a3 	sb	v0,-32648(gp)
    15a4:	34808293 	lbu	v0,-32716(gp)
    15a8:	80004230 	andi	v0,v0,0x80
    15ac:	09004010 	beqz	v0,0x15d4
    15b0:	30808227 	addiu	v0,gp,-32720
    15b4:	78808327 	addiu	v1,gp,-32648
    15b8:	030043a8 	swl	v1,3(v0)
    15bc:	000043b8 	swr	v1,0(v0)
    15c0:	34808293 	lbu	v0,-32716(gp)
    15c4:	01004234 	ori	v0,v0,0x1
    15c8:	348082a3 	sb	v0,-32716(gp)
    15cc:	02000224 	li	v0,2
    15d0:	358082a3 	sb	v0,-32715(gp)
    15d4:	0800e003 	jr	ra
    15d8:	00000000 	nop
    15dc:	e8ffbd27 	addiu	sp,sp,-24
    15e0:	1000bfaf 	sw	ra,16(sp)
    15e4:	88bf053c 	lui	a1,0xbf88
    15e8:	5052a390 	lbu	v1,21072(a1)
    15ec:	34808493 	lbu	a0,-32716(gp)
    15f0:	80ff0624 	li	a2,-128
    15f4:	dfff0224 	li	v0,-33
    15f8:	24186200 	and	v1,v1,v0
    15fc:	2420c400 	and	a0,a2,a0
    1600:	5052a3a0 	sb	v1,21072(a1)
    1604:	45008014 	bnez	a0,0x171c
    1608:	00a0023c 	lui	v0,0xa000
    160c:	44034290 	lbu	v0,836(v0)
    1610:	2410c200 	and	v0,a2,v0
    1614:	25004010 	beqz	v0,0x16ac
    1618:	5480848f 	lw	a0,-32684(gp)
    161c:	4480838f 	lw	v1,-32700(gp)
    1620:	02000224 	li	v0,2
    1624:	618082a3 	sb	v0,-32671(gp)
    1628:	02006290 	lbu	v0,2(v1)
    162c:	020060a0 	sb	zero,2(v1)
    1630:	03006290 	lbu	v0,3(v1)
    1634:	fcff0424 	li	a0,-4
    1638:	24104400 	and	v0,v0,a0
    163c:	030062a0 	sb	v0,3(v1)
    1640:	4480828f 	lw	v0,-32700(gp)
    1644:	c8ff0524 	li	a1,-56
    1648:	00004390 	lbu	v1,0(v0)
    164c:	000045a0 	sb	a1,0(v0)
    1650:	01004390 	lbu	v1,1(v0)
    1654:	010040a0 	sb	zero,1(v0)
    1658:	5480838f 	lw	v1,-32684(gp)
    165c:	02006290 	lbu	v0,2(v1)
    1660:	08000224 	li	v0,8
    1664:	020062a0 	sb	v0,2(v1)
    1668:	03006290 	lbu	v0,3(v1)
    166c:	24104400 	and	v0,v0,a0
    1670:	030062a0 	sb	v0,3(v1)
    1674:	5480838f 	lw	v1,-32684(gp)
    1678:	78808427 	addiu	a0,gp,-32648
    167c:	ff1f023c 	lui	v0,0x1fff
    1680:	ffff4234 	ori	v0,v0,0xffff
    1684:	24208200 	and	a0,a0,v0
    1688:	070064a8 	swl	a0,7(v1)
    168c:	040064b8 	swr	a0,4(v1)
    1690:	5480828f 	lw	v0,-32684(gp)
    1694:	00004390 	lbu	v1,0(v0)
    1698:	000045a0 	sb	a1,0(v0)
    169c:	01004390 	lbu	v1,1(v0)
    16a0:	010040a0 	sb	zero,1(v0)
    16a4:	92000010 	b	0x18f0
    16a8:	1000bf8f 	lw	ra,16(sp)
    16ac:	02008290 	lbu	v0,2(a0)
    16b0:	08000224 	li	v0,8
    16b4:	020082a0 	sb	v0,2(a0)
    16b8:	03008290 	lbu	v0,3(a0)
    16bc:	fcff0324 	li	v1,-4
    16c0:	24104300 	and	v0,v0,v1
    16c4:	030082a0 	sb	v0,3(a0)
    16c8:	5480838f 	lw	v1,-32684(gp)
    16cc:	70808427 	addiu	a0,gp,-32656
    16d0:	ff1f023c 	lui	v0,0x1fff
    16d4:	ffff4234 	ori	v0,v0,0xffff
    16d8:	24208200 	and	a0,a0,v0
    16dc:	070064a8 	swl	a0,7(v1)
    16e0:	040064b8 	swr	a0,4(v1)
    16e4:	5480828f 	lw	v0,-32684(gp)
    16e8:	00004390 	lbu	v1,0(v0)
    16ec:	8cff0324 	li	v1,-116
    16f0:	000043a0 	sb	v1,0(v0)
    16f4:	01004390 	lbu	v1,1(v0)
    16f8:	010040a0 	sb	zero,1(v0)
    16fc:	4480828f 	lw	v0,-32700(gp)
    1700:	00004390 	lbu	v1,0(v0)
    1704:	84ff0324 	li	v1,-124
    1708:	000043a0 	sb	v1,0(v0)
    170c:	01004390 	lbu	v1,1(v0)
    1710:	010040a0 	sb	zero,1(v0)
    1714:	76000010 	b	0x18f0
    1718:	1000bf8f 	lw	ra,16(sp)
    171c:	44034290 	lbu	v0,836(v0)
    1720:	80004230 	andi	v0,v0,0x80
    1724:	72004014 	bnez	v0,0x18f0
    1728:	1000bf8f 	lw	ra,16(sp)
    172c:	70808293 	lbu	v0,-32656(gp)
    1730:	c001427c 	ext	v0,v0,0x7,0x1
    1734:	01000324 	li	v1,1
    1738:	4b004314 	bne	v0,v1,0x1868
    173c:	4480838f 	lw	v1,-32700(gp)
    1740:	76808593 	lbu	a1,-32650(gp)
    1744:	36808393 	lbu	v1,-32714(gp)
    1748:	77808293 	lbu	v0,-32649(gp)
    174c:	35808493 	lbu	a0,-32715(gp)
    1750:	00120200 	sll	v0,v0,0x8
    1754:	001a0300 	sll	v1,v1,0x8
    1758:	25104500 	or	v0,v0,a1
    175c:	25186400 	or	v1,v1,a0
    1760:	2b104300 	sltu	v0,v0,v1
    1764:	08004010 	beqz	v0,0x1788
    1768:	00000000 	nop
    176c:	76808293 	lbu	v0,-32650(gp)
    1770:	77808393 	lbu	v1,-32649(gp)
    1774:	001a0300 	sll	v1,v1,0x8
    1778:	25186200 	or	v1,v1,v0
    177c:	02120300 	srl	v0,v1,0x8
    1780:	368082a3 	sb	v0,-32714(gp)
    1784:	358083a3 	sb	v1,-32715(gp)
    1788:	3e06400f 	jal	0xd0018f8
    178c:	00000000 	nop
    1790:	5480838f 	lw	v1,-32684(gp)
    1794:	01000224 	li	v0,1
    1798:	618082a3 	sb	v0,-32671(gp)
    179c:	08000724 	li	a3,8
    17a0:	02006290 	lbu	v0,2(v1)
    17a4:	020067a0 	sb	a3,2(v1)
    17a8:	03006290 	lbu	v0,3(v1)
    17ac:	fcff0624 	li	a2,-4
    17b0:	24104600 	and	v0,v0,a2
    17b4:	030062a0 	sb	v0,3(v1)
    17b8:	ff1f053c 	lui	a1,0x1fff
    17bc:	ffffa534 	ori	a1,a1,0xffff
    17c0:	5480828f 	lw	v0,-32684(gp)
    17c4:	70808427 	addiu	a0,gp,-32656
    17c8:	24208500 	and	a0,a0,a1
    17cc:	070044a8 	swl	a0,7(v0)
    17d0:	040044b8 	swr	a0,4(v0)
    17d4:	5480828f 	lw	v0,-32684(gp)
    17d8:	00004390 	lbu	v1,0(v0)
    17dc:	80ff0324 	li	v1,-128
    17e0:	000043a0 	sb	v1,0(v0)
    17e4:	01004390 	lbu	v1,1(v0)
    17e8:	010040a0 	sb	zero,1(v0)
    17ec:	5080838f 	lw	v1,-32688(gp)
    17f0:	6c8080af 	sw	zero,-32660(gp)
    17f4:	02006290 	lbu	v0,2(v1)
    17f8:	020067a0 	sb	a3,2(v1)
    17fc:	03006290 	lbu	v0,3(v1)
    1800:	24104600 	and	v0,v0,a2
    1804:	030062a0 	sb	v0,3(v1)
    1808:	5080828f 	lw	v0,-32688(gp)
    180c:	070044a8 	swl	a0,7(v0)
    1810:	040044b8 	swr	a0,4(v0)
    1814:	5080828f 	lw	v0,-32688(gp)
    1818:	00004390 	lbu	v1,0(v0)
    181c:	84ff0324 	li	v1,-124
    1820:	000043a0 	sb	v1,0(v0)
    1824:	01004390 	lbu	v1,1(v0)
    1828:	010040a0 	sb	zero,1(v0)
    182c:	4480838f 	lw	v1,-32700(gp)
    1830:	01000224 	li	v0,1
    1834:	6c8082af 	sw	v0,-32660(gp)
    1838:	78808227 	addiu	v0,gp,-32648
    183c:	24104500 	and	v0,v0,a1
    1840:	070062a8 	swl	v0,7(v1)
    1844:	040062b8 	swr	v0,4(v1)
    1848:	4480828f 	lw	v0,-32700(gp)
    184c:	00004390 	lbu	v1,0(v0)
    1850:	c8ff0324 	li	v1,-56
    1854:	000043a0 	sb	v1,0(v0)
    1858:	01004390 	lbu	v1,1(v0)
    185c:	010040a0 	sb	zero,1(v0)
    1860:	23000010 	b	0x18f0
    1864:	1000bf8f 	lw	ra,16(sp)
    1868:	02000224 	li	v0,2
    186c:	618082a3 	sb	v0,-32671(gp)
    1870:	02006290 	lbu	v0,2(v1)
    1874:	020060a0 	sb	zero,2(v1)
    1878:	03006290 	lbu	v0,3(v1)
    187c:	fcff0424 	li	a0,-4
    1880:	24104400 	and	v0,v0,a0
    1884:	030062a0 	sb	v0,3(v1)
    1888:	4480828f 	lw	v0,-32700(gp)
    188c:	c8ff0524 	li	a1,-56
    1890:	00004390 	lbu	v1,0(v0)
    1894:	000045a0 	sb	a1,0(v0)
    1898:	01004390 	lbu	v1,1(v0)
    189c:	010040a0 	sb	zero,1(v0)
    18a0:	5480838f 	lw	v1,-32684(gp)
    18a4:	02006290 	lbu	v0,2(v1)
    18a8:	08000224 	li	v0,8
    18ac:	020062a0 	sb	v0,2(v1)
    18b0:	03006290 	lbu	v0,3(v1)
    18b4:	24104400 	and	v0,v0,a0
    18b8:	030062a0 	sb	v0,3(v1)
    18bc:	5480838f 	lw	v1,-32684(gp)
    18c0:	78808427 	addiu	a0,gp,-32648
    18c4:	ff1f023c 	lui	v0,0x1fff
    18c8:	ffff4234 	ori	v0,v0,0xffff
    18cc:	24208200 	and	a0,a0,v0
    18d0:	070064a8 	swl	a0,7(v1)
    18d4:	040064b8 	swr	a0,4(v1)
    18d8:	5480828f 	lw	v0,-32684(gp)
    18dc:	00004390 	lbu	v1,0(v0)
    18e0:	000045a0 	sb	a1,0(v0)
    18e4:	01004390 	lbu	v1,1(v0)
    18e8:	010040a0 	sb	zero,1(v0)
    18ec:	1000bf8f 	lw	ra,16(sp)
    18f0:	0800e003 	jr	ra
    18f4:	1800bd27 	addiu	sp,sp,24
    18f8:	36808293 	lbu	v0,-32714(gp)
    18fc:	35808393 	lbu	v1,-32715(gp)
    1900:	00120200 	sll	v0,v0,0x8
    1904:	25184300 	or	v1,v0,v1
    1908:	0800622c 	sltiu	v0,v1,8
    190c:	0d004010 	beqz	v0,0x1944
    1910:	08000624 	li	a2,8
    1914:	60808293 	lbu	v0,-32672(gp)
    1918:	04004014 	bnez	v0,0x192c
    191c:	21306000 	move	a2,v1
    1920:	01000224 	li	v0,1
    1924:	07000010 	b	0x1944
    1928:	608082a3 	sb	v0,-32672(gp)
    192c:	60808393 	lbu	v1,-32672(gp)
    1930:	01000224 	li	v0,1
    1934:	04006214 	bne	v1,v0,0x1948
    1938:	4480848f 	lw	a0,-32700(gp)
    193c:	02000224 	li	v0,2
    1940:	608082a3 	sb	v0,-32672(gp)
    1944:	4480848f 	lw	a0,-32700(gp)
    1948:	ffffc530 	andi	a1,a2,0xffff
    194c:	ff00a230 	andi	v0,a1,0xff
    1950:	02008390 	lbu	v1,2(a0)
    1954:	020082a0 	sb	v0,2(a0)
    1958:	03008290 	lbu	v0,3(a0)
    195c:	fcff0324 	li	v1,-4
    1960:	24104300 	and	v0,v0,v1
    1964:	000aa37c 	ext	v1,a1,0x8,0x2
    1968:	25104300 	or	v0,v0,v1
    196c:	030082a0 	sb	v0,3(a0)
    1970:	36808293 	lbu	v0,-32714(gp)
    1974:	35808393 	lbu	v1,-32715(gp)
    1978:	00120200 	sll	v0,v0,0x8
    197c:	25104300 	or	v0,v0,v1
    1980:	23104600 	subu	v0,v0,a2
    1984:	ffff4230 	andi	v0,v0,0xffff
    1988:	021a0200 	srl	v1,v0,0x8
    198c:	34808493 	lbu	a0,-32716(gp)
    1990:	01008430 	andi	a0,a0,0x1
    1994:	368083a3 	sb	v1,-32714(gp)
    1998:	78808327 	addiu	v1,gp,-32648
    199c:	648083af 	sw	v1,-32668(gp)
    19a0:	15008014 	bnez	a0,0x19f8
    19a4:	358082a3 	sb	v0,-32715(gp)
    19a8:	2600a010 	beqz	a1,0x1a44
    19ac:	00000000 	nop
    19b0:	30808427 	addiu	a0,gp,-32720
    19b4:	03008288 	lwl	v0,3(a0)
    19b8:	03008388 	lwl	v1,3(a0)
    19bc:	00008298 	lwr	v0,0(a0)
    19c0:	00008398 	lwr	v1,0(a0)
    19c4:	01004224 	addiu	v0,v0,1
    19c8:	030082a8 	swl	v0,3(a0)
    19cc:	000082b8 	swr	v0,0(a0)
    19d0:	00006390 	lbu	v1,0(v1)
    19d4:	6480828f 	lw	v0,-32668(gp)
    19d8:	ffffc624 	addiu	a2,a2,-1
    19dc:	000043a0 	sb	v1,0(v0)
    19e0:	01004224 	addiu	v0,v0,1
    19e4:	ffffc330 	andi	v1,a2,0xffff
    19e8:	f2ff6014 	bnez	v1,0x19b4
    19ec:	648082af 	sw	v0,-32668(gp)
    19f0:	0800e003 	jr	ra
    19f4:	00000000 	nop
    19f8:	ffffc230 	andi	v0,a2,0xffff
    19fc:	11004010 	beqz	v0,0x1a44
    1a00:	00000000 	nop
    1a04:	30808427 	addiu	a0,gp,-32720
    1a08:	03008288 	lwl	v0,3(a0)
    1a0c:	03008388 	lwl	v1,3(a0)
    1a10:	00008298 	lwr	v0,0(a0)
    1a14:	00008398 	lwr	v1,0(a0)
    1a18:	01004224 	addiu	v0,v0,1
    1a1c:	030082a8 	swl	v0,3(a0)
    1a20:	000082b8 	swr	v0,0(a0)
    1a24:	00006390 	lbu	v1,0(v1)
    1a28:	6480828f 	lw	v0,-32668(gp)
    1a2c:	ffffc624 	addiu	a2,a2,-1
    1a30:	000043a0 	sb	v1,0(v0)
    1a34:	01004224 	addiu	v0,v0,1
    1a38:	ffffc330 	andi	v1,a2,0xffff
    1a3c:	f2ff6014 	bnez	v1,0x1a08
    1a40:	648082af 	sw	v0,-32668(gp)
    1a44:	0800e003 	jr	ra
    1a48:	00000000 	nop
    1a4c:	e8ffbd27 	addiu	sp,sp,-24
    1a50:	1000bfaf 	sw	ra,16(sp)
    1a54:	00a0023c 	lui	v0,0xa000
    1a58:	40034224 	addiu	v0,v0,832
    1a5c:	06004490 	lbu	a0,6(v0)
    1a60:	5080888f 	lw	t0,-32688(gp)
    1a64:	05004290 	lbu	v0,5(v0)
    1a68:	00220400 	sll	a0,a0,0x8
    1a6c:	25208200 	or	a0,a0,v0
    1a70:	00a0053c 	lui	a1,0xa000
    1a74:	4003a524 	addiu	a1,a1,832
    1a78:	02000691 	lbu	a2,2(t0)
    1a7c:	0600a290 	lbu	v0,6(a1)
    1a80:	ffff8330 	andi	v1,a0,0xffff
    1a84:	2b186600 	sltu	v1,v1,a2
    1a88:	0500a790 	lbu	a3,5(a1)
    1a8c:	ff008430 	andi	a0,a0,0xff
    1a90:	00006338 	xori	v1,v1,0x0
    1a94:	00120200 	sll	v0,v0,0x8
    1a98:	2148c000 	move	t1,a2
    1a9c:	0b488300 	movn	t1,a0,v1
    1aa0:	25104700 	or	v0,v0,a3
    1aa4:	23104900 	subu	v0,v0,t1
    1aa8:	ffff4230 	andi	v0,v0,0xffff
    1aac:	021a0200 	srl	v1,v0,0x8
    1ab0:	03000491 	lbu	a0,3(t0)
    1ab4:	0600a3a0 	sb	v1,6(a1)
    1ab8:	0500a2a0 	sb	v0,5(a1)
    1abc:	12002011 	beqz	t1,0x1b08
    1ac0:	21400000 	move	t0,zero
    1ac4:	00a0073c 	lui	a3,0xa000
    1ac8:	2150a000 	move	t2,a1
    1acc:	78808b27 	addiu	t3,gp,-32648
    1ad0:	03004289 	lwl	v0,3(t2)
    1ad4:	03004389 	lwl	v1,3(t2)
    1ad8:	4003e298 	lwr	v0,832(a3)
    1adc:	01000525 	addiu	a1,t0,1
    1ae0:	21200b01 	addu	a0,t0,t3
    1ae4:	4003e398 	lwr	v1,832(a3)
    1ae8:	01004224 	addiu	v0,v0,1
    1aec:	00008690 	lbu	a2,0(a0)
    1af0:	ff00a830 	andi	t0,a1,0xff
    1af4:	030042a9 	swl	v0,3(t2)
    1af8:	2b200901 	sltu	a0,t0,t1
    1afc:	4003e2b8 	swr	v0,832(a3)
    1b00:	f3ff8014 	bnez	a0,0x1ad0
    1b04:	000066a0 	sb	a2,0(v1)
    1b08:	00a0023c 	lui	v0,0xa000
    1b0c:	40034224 	addiu	v0,v0,832
    1b10:	06004390 	lbu	v1,6(v0)
    1b14:	05004290 	lbu	v0,5(v0)
    1b18:	001a0300 	sll	v1,v1,0x8
    1b1c:	25186200 	or	v1,v1,v0
    1b20:	22006010 	beqz	v1,0x1bac
    1b24:	5480848f 	lw	a0,-32684(gp)
    1b28:	02008290 	lbu	v0,2(a0)
    1b2c:	08000224 	li	v0,8
    1b30:	020082a0 	sb	v0,2(a0)
    1b34:	03008290 	lbu	v0,3(a0)
    1b38:	fcff0324 	li	v1,-4
    1b3c:	24104300 	and	v0,v0,v1
    1b40:	030082a0 	sb	v0,3(a0)
    1b44:	5480838f 	lw	v1,-32684(gp)
    1b48:	78808427 	addiu	a0,gp,-32648
    1b4c:	ff1f023c 	lui	v0,0x1fff
    1b50:	ffff4234 	ori	v0,v0,0xffff
    1b54:	24208200 	and	a0,a0,v0
    1b58:	070064a8 	swl	a0,7(v1)
    1b5c:	040064b8 	swr	a0,4(v1)
    1b60:	5080828f 	lw	v0,-32688(gp)
    1b64:	00004290 	lbu	v0,0(v0)
    1b68:	8001427c 	ext	v0,v0,0x6,0x1
    1b6c:	08004014 	bnez	v0,0x1b90
    1b70:	5480828f 	lw	v0,-32684(gp)
    1b74:	00004390 	lbu	v1,0(v0)
    1b78:	c8ff0324 	li	v1,-56
    1b7c:	000043a0 	sb	v1,0(v0)
    1b80:	01004390 	lbu	v1,1(v0)
    1b84:	010040a0 	sb	zero,1(v0)
    1b88:	2c000010 	b	0x1c3c
    1b8c:	1000bf8f 	lw	ra,16(sp)
    1b90:	00004390 	lbu	v1,0(v0)
    1b94:	88ff0324 	li	v1,-120
    1b98:	000043a0 	sb	v1,0(v0)
    1b9c:	01004390 	lbu	v1,1(v0)
    1ba0:	010040a0 	sb	zero,1(v0)
    1ba4:	25000010 	b	0x1c3c
    1ba8:	1000bf8f 	lw	ra,16(sp)
    1bac:	02008290 	lbu	v0,2(a0)
    1bb0:	08000224 	li	v0,8
    1bb4:	020082a0 	sb	v0,2(a0)
    1bb8:	03008290 	lbu	v0,3(a0)
    1bbc:	fcff0324 	li	v1,-4
    1bc0:	24104300 	and	v0,v0,v1
    1bc4:	030082a0 	sb	v0,3(a0)
    1bc8:	5480838f 	lw	v1,-32684(gp)
    1bcc:	70808427 	addiu	a0,gp,-32656
    1bd0:	ff1f023c 	lui	v0,0x1fff
    1bd4:	ffff4234 	ori	v0,v0,0xffff
    1bd8:	24208200 	and	a0,a0,v0
    1bdc:	070064a8 	swl	a0,7(v1)
    1be0:	040064b8 	swr	a0,4(v1)
    1be4:	5480838f 	lw	v1,-32684(gp)
    1be8:	00006290 	lbu	v0,0(v1)
    1bec:	84ff0224 	li	v0,-124
    1bf0:	000062a0 	sb	v0,0(v1)
    1bf4:	00a0023c 	lui	v0,0xa000
    1bf8:	40034424 	addiu	a0,v0,832
    1bfc:	01006290 	lbu	v0,1(v1)
    1c00:	010060a0 	sb	zero,1(v1)
    1c04:	0a008288 	lwl	v0,10(a0)
    1c08:	07008298 	lwr	v0,7(a0)
    1c0c:	06004010 	beqz	v0,0x1c28
    1c10:	00a0033c 	lui	v1,0xa000
    1c14:	0a008288 	lwl	v0,10(a0)
    1c18:	07008298 	lwr	v0,7(a0)
    1c1c:	09f84000 	jalr	v0
    1c20:	00000000 	nop
    1c24:	00a0033c 	lui	v1,0xa000
    1c28:	40036324 	addiu	v1,v1,832
    1c2c:	04006290 	lbu	v0,4(v1)
    1c30:	7f004230 	andi	v0,v0,0x7f
    1c34:	040062a0 	sb	v0,4(v1)
    1c38:	1000bf8f 	lw	ra,16(sp)
    1c3c:	0800e003 	jr	ra
    1c40:	1800bd27 	addiu	sp,sp,24
    1c44:	e8ffbd27 	addiu	sp,sp,-24
    1c48:	1000bfaf 	sw	ra,16(sp)
    1c4c:	34808293 	lbu	v0,-32716(gp)
    1c50:	80ff0324 	li	v1,-128
    1c54:	25104300 	or	v0,v0,v1
    1c58:	348082a3 	sb	v0,-32716(gp)
    1c5c:	88bf023c 	lui	v0,0xbf88
    1c60:	10534324 	addiu	v1,v0,21264
    1c64:	21100000 	move	v0,zero
    1c68:	01004224 	addiu	v0,v0,1
    1c6c:	ff004230 	andi	v0,v0,0xff
    1c70:	000060ac 	sw	zero,0(v1)
    1c74:	fcff4010 	beqz	v0,0x1c68
    1c78:	10006324 	addiu	v1,v1,16
    1c7c:	00a0023c 	lui	v0,0xa000
    1c80:	00044524 	addiu	a1,v0,1024
    1c84:	21200000 	move	a0,zero
    1c88:	01008224 	addiu	v0,a0,1
    1c8c:	c0180400 	sll	v1,a0,0x3
    1c90:	ff004430 	andi	a0,v0,0xff
    1c94:	21186500 	addu	v1,v1,a1
    1c98:	0800822c 	sltiu	v0,a0,8
    1c9c:	21300000 	move	a2,zero
    1ca0:	21380000 	move	a3,zero
    1ca4:	000066ac 	sw	a2,0(v1)
    1ca8:	040067ac 	sw	a3,4(v1)
    1cac:	f7ff4014 	bnez	v0,0x1c8c
    1cb0:	01008224 	addiu	v0,a0,1
    1cb4:	88bf043c 	lui	a0,0xbf88
    1cb8:	50528290 	lbu	v0,21072(a0)
    1cbc:	02004234 	ori	v0,v0,0x2
    1cc0:	505282a0 	sb	v0,21072(a0)
    1cc4:	50528290 	lbu	v0,21072(a0)
    1cc8:	fdff0324 	li	v1,-3
    1ccc:	24104300 	and	v0,v0,v1
    1cd0:	505282a0 	sb	v0,21072(a0)
    1cd4:	72808293 	lbu	v0,-32654(gp)
    1cd8:	408082a3 	sb	v0,-32704(gp)
    1cdc:	ff004430 	andi	a0,v0,0xff
    1ce0:	00a0033c 	lui	v1,0xa000
    1ce4:	00046324 	addiu	v1,v1,1024
    1ce8:	00a0023c 	lui	v0,0xa000
    1cec:	10044224 	addiu	v0,v0,1040
    1cf0:	448082af 	sw	v0,-32700(gp)
    1cf4:	548083af 	sw	v1,-32684(gp)
    1cf8:	4c8080a3 	sb	zero,-32692(gp)
    1cfc:	04008014 	bnez	a0,0x1d10
    1d00:	508083af 	sw	v1,-32688(gp)
    1d04:	10000224 	li	v0,16
    1d08:	07000010 	b	0x1d28
    1d0c:	3c8082af 	sw	v0,-32708(gp)
    1d10:	01000424 	li	a0,1
    1d14:	40808527 	addiu	a1,gp,-32704
    1d18:	9401400f 	jal	0xd000650
    1d1c:	01000624 	li	a2,1
    1d20:	20000224 	li	v0,32
    1d24:	3c8082af 	sw	v0,-32708(gp)
    1d28:	1000bf8f 	lw	ra,16(sp)
    1d2c:	0800e003 	jr	ra
    1d30:	1800bd27 	addiu	sp,sp,24
    1d34:	ff008430 	andi	a0,a0,0xff
    1d38:	ff00a530 	andi	a1,a1,0xff
    1d3c:	40100400 	sll	v0,a0,0x1
    1d40:	21104500 	addu	v0,v0,a1
    1d44:	00a0033c 	lui	v1,0xa000
    1d48:	00046724 	addiu	a3,v1,1024
    1d4c:	00110200 	sll	v0,v0,0x4
    1d50:	21384700 	addu	a3,v0,a3
    1d54:	80300400 	sll	a2,a0,0x2
    1d58:	0000e390 	lbu	v1,0(a3)
    1d5c:	44808227 	addiu	v0,gp,-32700
    1d60:	2130c200 	addu	a2,a2,v0
    1d64:	80200400 	sll	a0,a0,0x2
    1d68:	58808227 	addiu	v0,gp,-32680
    1d6c:	21208200 	addu	a0,a0,v0
    1d70:	7f006330 	andi	v1,v1,0x7f
    1d74:	0000e3a0 	sb	v1,0(a3)
    1d78:	0200a054 	bnezl	a1,0x1d84
    1d7c:	0000c7ac 	sw	a3,0(a2)
    1d80:	000087ac 	sw	a3,0(a0)
    1d84:	0000e290 	lbu	v0,0(a3)
    1d88:	bfff0324 	li	v1,-65
    1d8c:	24104300 	and	v0,v0,v1
    1d90:	0000e2a0 	sb	v0,0(a3)
    1d94:	0800e290 	lbu	v0,8(a3)
    1d98:	40004234 	ori	v0,v0,0x40
    1d9c:	0800e2a0 	sb	v0,8(a3)
    1da0:	0800e003 	jr	ra
    1da4:	00000000 	nop
    1da8:	e0ffbd27 	addiu	sp,sp,-32
    1dac:	1800bfaf 	sw	ra,24(sp)
    1db0:	1400b1af 	sw	s1,20(sp)
    1db4:	1000b0af 	sw	s0,16(sp)
    1db8:	ff009030 	andi	s0,a0,0xff
    1dbc:	ff00b130 	andi	s1,a1,0xff
    1dc0:	00111000 	sll	v0,s0,0x4
    1dc4:	88bf033c 	lui	v1,0xbf88
    1dc8:	00536324 	addiu	v1,v1,21248
    1dcc:	21104300 	addu	v0,v0,v1
    1dd0:	08002332 	andi	v1,s1,0x8
    1dd4:	21200002 	move	a0,s0
    1dd8:	21280000 	move	a1,zero
    1ddc:	04006010 	beqz	v1,0x1df0
    1de0:	000051a0 	sb	s1,0(v0)
    1de4:	4d07400f 	jal	0xd001d34
    1de8:	00000000 	nop
    1dec:	21200002 	move	a0,s0
    1df0:	04002232 	andi	v0,s1,0x4
    1df4:	03004010 	beqz	v0,0x1e04
    1df8:	01000524 	li	a1,1
    1dfc:	4d07400f 	jal	0xd001d34
    1e00:	00000000 	nop
    1e04:	1800bf8f 	lw	ra,24(sp)
    1e08:	1400b18f 	lw	s1,20(sp)
    1e0c:	1000b08f 	lw	s0,16(sp)
    1e10:	0800e003 	jr	ra
    1e14:	2000bd27 	addiu	sp,sp,32
    1e18:	ff00aa30 	andi	t2,a1,0xff
    1e1c:	ff008930 	andi	t1,a0,0xff
    1e20:	80180900 	sll	v1,t1,0x2
    1e24:	44808227 	addiu	v0,gp,-32700
    1e28:	21206200 	addu	a0,v1,v0
    1e2c:	58808227 	addiu	v0,gp,-32680
    1e30:	21186200 	addu	v1,v1,v0
    1e34:	03004011 	beqz	t2,0x1e44
    1e38:	ff00e730 	andi	a3,a3,0xff
    1e3c:	02000010 	b	0x1e48
    1e40:	0000888c 	lw	t0,0(a0)
    1e44:	0000688c 	lw	t0,0(v1)
    1e48:	32000011 	beqz	t0,0x1f14
    1e4c:	21100000 	move	v0,zero
    1e50:	ff1f023c 	lui	v0,0x1fff
    1e54:	ffff4234 	ori	v0,v0,0xffff
    1e58:	2410c200 	and	v0,a2,v0
    1e5c:	070002a9 	swl	v0,7(t0)
    1e60:	ffffe330 	andi	v1,a3,0xffff
    1e64:	040002b9 	swr	v0,4(t0)
    1e68:	ff006230 	andi	v0,v1,0xff
    1e6c:	02000491 	lbu	a0,2(t0)
    1e70:	020002a1 	sb	v0,2(t0)
    1e74:	03000491 	lbu	a0,3(t0)
    1e78:	021a0300 	srl	v1,v1,0x8
    1e7c:	fcff0224 	li	v0,-4
    1e80:	24208200 	and	a0,a0,v0
    1e84:	ffff6330 	andi	v1,v1,0xffff
    1e88:	25186400 	or	v1,v1,a0
    1e8c:	030003a1 	sb	v1,3(t0)
    1e90:	00000291 	lbu	v0,0(t0)
    1e94:	01000391 	lbu	v1,1(t0)
    1e98:	40004230 	andi	v0,v0,0x40
    1e9c:	ff004230 	andi	v0,v0,0xff
    1ea0:	00000391 	lbu	v1,0(t0)
    1ea4:	000002a1 	sb	v0,0(t0)
    1ea8:	01000291 	lbu	v0,1(t0)
    1eac:	010000a1 	sb	zero,1(t0)
    1eb0:	00000591 	lbu	a1,0(t0)
    1eb4:	01000291 	lbu	v0,1(t0)
    1eb8:	80200900 	sll	a0,t1,0x2
    1ebc:	58808327 	addiu	v1,gp,-32680
    1ec0:	21308300 	addu	a2,a0,v1
    1ec4:	00120200 	sll	v0,v0,0x8
    1ec8:	25104500 	or	v0,v0,a1
    1ecc:	44808327 	addiu	v1,gp,-32700
    1ed0:	21288300 	addu	a1,a0,v1
    1ed4:	88004234 	ori	v0,v0,0x88
    1ed8:	ff004330 	andi	v1,v0,0xff
    1edc:	00000491 	lbu	a0,0(t0)
    1ee0:	000003a1 	sb	v1,0(t0)
    1ee4:	02120200 	srl	v0,v0,0x8
    1ee8:	01000391 	lbu	v1,1(t0)
    1eec:	010002a1 	sb	v0,1(t0)
    1ef0:	05004051 	beqzl	t2,0x1f08
    1ef4:	0000c290 	lbu	v0,0(a2)
    1ef8:	0000a290 	lbu	v0,0(a1)
    1efc:	08004238 	xori	v0,v0,0x8
    1f00:	03000010 	b	0x1f10
    1f04:	0000a2a0 	sb	v0,0(a1)
    1f08:	08004238 	xori	v0,v0,0x8
    1f0c:	0000c2a0 	sb	v0,0(a2)
    1f10:	21100001 	move	v0,t0
    1f14:	0800e003 	jr	ra
    1f18:	00000000 	nop
    1f1c:	70808293 	lbu	v0,-32656(gp)
    1f20:	0020427c 	ext	v0,v0,0x0,0x5
    1f24:	01000324 	li	v1,1
    1f28:	5d004314 	bne	v0,v1,0x20a0
    1f2c:	00000000 	nop
    1f30:	74808293 	lbu	v0,-32652(gp)
    1f34:	5a004014 	bnez	v0,0x20a0
    1f38:	00000000 	nop
    1f3c:	71808293 	lbu	v0,-32655(gp)
    1f40:	ff004230 	andi	v0,v0,0xff
    1f44:	06000324 	li	v1,6
    1f48:	23004314 	bne	v0,v1,0x1fd8
    1f4c:	00000000 	nop
    1f50:	73808393 	lbu	v1,-32653(gp)
    1f54:	21000224 	li	v0,33
    1f58:	05006210 	beq	v1,v0,0x1f70
    1f5c:	22000224 	li	v0,34
    1f60:	11006210 	beq	v1,v0,0x1fa8
    1f64:	40808393 	lbu	v1,-32704(gp)
    1f68:	1b000010 	b	0x1fd8
    1f6c:	00000000 	nop
    1f70:	40808393 	lbu	v1,-32704(gp)
    1f74:	01000224 	li	v0,1
    1f78:	17006214 	bne	v1,v0,0x1fd8
    1f7c:	009d033c 	lui	v1,0x9d00
    1f80:	ee236324 	addiu	v1,v1,9198
    1f84:	30808227 	addiu	v0,gp,-32720
    1f88:	030043a8 	swl	v1,3(v0)
    1f8c:	000043b8 	swr	v1,0(v0)
    1f90:	09000224 	li	v0,9
    1f94:	358082a3 	sb	v0,-32715(gp)
    1f98:	c0ff0224 	li	v0,-64
    1f9c:	348082a3 	sb	v0,-32716(gp)
    1fa0:	0d000010 	b	0x1fd8
    1fa4:	368080a3 	sb	zero,-32714(gp)
    1fa8:	01000224 	li	v0,1
    1fac:	0a006214 	bne	v1,v0,0x1fd8
    1fb0:	009d033c 	lui	v1,0x9d00
    1fb4:	68246324 	addiu	v1,v1,9320
    1fb8:	30808227 	addiu	v0,gp,-32720
    1fbc:	030043a8 	swl	v1,3(v0)
    1fc0:	000043b8 	swr	v1,0(v0)
    1fc4:	1d000224 	li	v0,29
    1fc8:	358082a3 	sb	v0,-32715(gp)
    1fcc:	c0ff0224 	li	v0,-64
    1fd0:	348082a3 	sb	v0,-32716(gp)
    1fd4:	368080a3 	sb	zero,-32714(gp)
    1fd8:	70808293 	lbu	v0,-32656(gp)
    1fdc:	4009427c 	ext	v0,v0,0x5,0x2
    1fe0:	01000324 	li	v1,1
    1fe4:	2e004314 	bne	v0,v1,0x20a0
    1fe8:	00000000 	nop
    1fec:	71808393 	lbu	v1,-32655(gp)
    1ff0:	03000224 	li	v0,3
    1ff4:	1c006210 	beq	v1,v0,0x2068
    1ff8:	04006228 	slti	v0,v1,4
    1ffc:	06004010 	beqz	v0,0x2018
    2000:	0a000224 	li	v0,10
    2004:	02000224 	li	v0,2
    2008:	09006250 	beql	v1,v0,0x2030
    200c:	30808227 	addiu	v0,gp,-32720
    2010:	0800e003 	jr	ra
    2014:	00000000 	nop
    2018:	0e006210 	beq	v1,v0,0x2054
    201c:	0b000224 	li	v0,11
    2020:	1b006210 	beq	v1,v0,0x2090
    2024:	00000000 	nop
    2028:	0800e003 	jr	ra
    202c:	00000000 	nop
    2030:	80808327 	addiu	v1,gp,-32640
    2034:	030043a8 	swl	v1,3(v0)
    2038:	000043b8 	swr	v1,0(v0)
    203c:	01000224 	li	v0,1
    2040:	358082a3 	sb	v0,-32715(gp)
    2044:	c1ff0224 	li	v0,-63
    2048:	348082a3 	sb	v0,-32716(gp)
    204c:	0800e003 	jr	ra
    2050:	368080a3 	sb	zero,-32714(gp)
    2054:	73808393 	lbu	v1,-32653(gp)
    2058:	80ff0224 	li	v0,-128
    205c:	348082a3 	sb	v0,-32716(gp)
    2060:	0800e003 	jr	ra
    2064:	808083a3 	sb	v1,-32640(gp)
    2068:	30808227 	addiu	v0,gp,-32720
    206c:	81808327 	addiu	v1,gp,-32639
    2070:	030043a8 	swl	v1,3(v0)
    2074:	000043b8 	swr	v1,0(v0)
    2078:	01000224 	li	v0,1
    207c:	358082a3 	sb	v0,-32715(gp)
    2080:	81ff0224 	li	v0,-127
    2084:	348082a3 	sb	v0,-32716(gp)
    2088:	0800e003 	jr	ra
    208c:	368080a3 	sb	zero,-32714(gp)
    2090:	72808393 	lbu	v1,-32654(gp)
    2094:	80ff0224 	li	v0,-128
    2098:	348082a3 	sb	v0,-32716(gp)
    209c:	818083a3 	sb	v1,-32639(gp)
    20a0:	0800e003 	jr	ra
    20a4:	00000000 	nop
    20a8:	a8ffbd27 	addiu	sp,sp,-88
    20ac:	0400a1af 	sw	at,4(sp)
    20b0:	0800a2af 	sw	v0,8(sp)
    20b4:	0c00a3af 	sw	v1,12(sp)
    20b8:	1000a4af 	sw	a0,16(sp)
    20bc:	1400a5af 	sw	a1,20(sp)
    20c0:	1800a6af 	sw	a2,24(sp)
    20c4:	1c00a7af 	sw	a3,28(sp)
    20c8:	2000a8af 	sw	t0,32(sp)
    20cc:	2400a9af 	sw	t1,36(sp)
    20d0:	2800aaaf 	sw	t2,40(sp)
    20d4:	2c00abaf 	sw	t3,44(sp)
    20d8:	3000acaf 	sw	t4,48(sp)
    20dc:	3400adaf 	sw	t5,52(sp)
    20e0:	3800aeaf 	sw	t6,56(sp)
    20e4:	3c00afaf 	sw	t7,60(sp)
    20e8:	4000b8af 	sw	t8,64(sp)
    20ec:	4400b9af 	sw	t9,68(sp)
    20f0:	4800bfaf 	sw	ra,72(sp)
    20f4:	12400000 	mflo	t0
    20f8:	4c00a8af 	sw	t0,76(sp)
    20fc:	10400000 	mfhi	t0
    2100:	5000a8af 	sw	t0,80(sp)
    2104:	00680440 	mfc0	a0,c0_cause
    2108:	00600540 	mfc0	a1,c0_status
    210c:	5e08400f 	jal	0xd002178
    2110:	00000000 	nop
    2114:	5000a88f 	lw	t0,80(sp)
    2118:	11000001 	mthi	t0
    211c:	4c00a88f 	lw	t0,76(sp)
    2120:	13000001 	mtlo	t0
    2124:	0400a18f 	lw	at,4(sp)
    2128:	0800a28f 	lw	v0,8(sp)
    212c:	0c00a38f 	lw	v1,12(sp)
    2130:	1000a48f 	lw	a0,16(sp)
    2134:	1400a58f 	lw	a1,20(sp)
    2138:	1800a68f 	lw	a2,24(sp)
    213c:	1c00a78f 	lw	a3,28(sp)
    2140:	2000a88f 	lw	t0,32(sp)
    2144:	2400a98f 	lw	t1,36(sp)
    2148:	2800aa8f 	lw	t2,40(sp)
    214c:	2c00ab8f 	lw	t3,44(sp)
    2150:	3000ac8f 	lw	t4,48(sp)
    2154:	3400ad8f 	lw	t5,52(sp)
    2158:	3800ae8f 	lw	t6,56(sp)
    215c:	3c00af8f 	lw	t7,60(sp)
    2160:	4000b88f 	lw	t8,64(sp)
    2164:	4400b98f 	lw	t9,68(sp)
    2168:	4800bf8f 	lw	ra,72(sp)
    216c:	5800bd27 	addiu	sp,sp,88
    2170:	c0000000 	ehb
    2174:	18000042 	eret
    2178:	ffff0010 	b	0x2178
    217c:	00000000 	nop
    2180:	ffff0010 	b	0x2180
    2184:	00000000 	nop
    2188:	0800e003 	jr	ra
    218c:	00000000 	nop
    2190:	0800e003 	jr	ra
    2194:	00000000 	nop
    2198:	00601a40 	mfc0	k0,c0_status
    219c:	bfff1b3c 	lui	k1,0xffbf
    21a0:	ffff7b37 	ori	k1,k1,0xffff
    21a4:	24d05b03 	and	k0,k0,k1
    21a8:	00609a40 	mtc0	k0,c0_status
    21ac:	18000042 	eret
    21b0:	e8ffbd27 	addiu	sp,sp,-24
    21b4:	1000bfaf 	sw	ra,16(sp)
    21b8:	8a08400f 	jal	0xd002228
    21bc:	00000000 	nop
    21c0:	88bf043c 	lui	a0,0xbf88
    21c4:	0030838c 	lw	v1,12288(a0)
    21c8:	0003627c 	ext	v0,v1,0xc,0x1
    21cc:	08004014 	bnez	v0,0x21f0
    21d0:	99aa0f3c 	lui	t7,0xaa99
    21d4:	00100624 	li	a2,4096
    21d8:	88bf053c 	lui	a1,0xbf88
    21dc:	0830a6ac 	sw	a2,12296(a1)
    21e0:	0030888c 	lw	t0,12288(a0)
    21e4:	c002077d 	ext	a3,t0,0xb,0x1
    21e8:	fdffe014 	bnez	a3,0x21e0
    21ec:	99aa0f3c 	lui	t7,0xaa99
    21f0:	66550d3c 	lui	t5,0x5566
    21f4:	81bf0b3c 	lui	t3,0xbf81
    21f8:	5566ee35 	ori	t6,t7,0x6655
    21fc:	aa99ac35 	ori	t4,t5,0x99aa
    2200:	01000a24 	li	t2,1
    2204:	81bf093c 	lui	t1,0xbf81
    2208:	30f260ad 	sw	zero,-3536(t3)
    220c:	81bf043c 	lui	a0,0xbf81
    2210:	30f26ead 	sw	t6,-3536(t3)
    2214:	30f26cad 	sw	t4,-3536(t3)
    2218:	18f62aad 	sw	t2,-2536(t1)
    221c:	10f6828c 	lw	v0,-2544(a0)
    2220:	ffff0010 	b	0x2220
    2224:	00000000 	nop
    2228:	0800e003 	jr	ra
    222c:	00606241 	di	v0
    2230:	ff1f063c 	lui	a2,0x1fff
    2234:	ffffc534 	ori	a1,a2,0xffff
    2238:	e8ffbd27 	addiu	sp,sp,-24
    223c:	24188500 	and	v1,a0,a1
    2240:	81bf023c 	lui	v0,0xbf81
    2244:	04400424 	li	a0,16388
    2248:	1000bfaf 	sw	ra,16(sp)
    224c:	20f443ac 	sw	v1,-3040(v0)
    2250:	9908400f 	jal	0xd002264
    2254:	00000000 	nop
    2258:	1000bf8f 	lw	ra,16(sp)
    225c:	0800e003 	jr	ra
    2260:	1800bd27 	addiu	sp,sp,24
    2264:	e8ffbd27 	addiu	sp,sp,-24
    2268:	1000b0af 	sw	s0,16(sp)
    226c:	1400bfaf 	sw	ra,20(sp)
    2270:	8a08400f 	jal	0xd002228
    2274:	21808000 	move	s0,a0
    2278:	88bf063c 	lui	a2,0xbf88
    227c:	21404000 	move	t0,v0
    2280:	0030c28c 	lw	v0,12288(a2)
    2284:	0003477c 	ext	a3,v0,0xc,0x1
    2288:	0800e014 	bnez	a3,0x22ac
    228c:	99aa183c 	lui	t8,0xaa99
    2290:	00100324 	li	v1,4096
    2294:	88bf043c 	lui	a0,0xbf88
    2298:	083083ac 	sw	v1,12296(a0)
    229c:	0030c98c 	lw	t1,12288(a2)
    22a0:	c002257d 	ext	a1,t1,0xb,0x1
    22a4:	fdffa014 	bnez	a1,0x229c
    22a8:	99aa183c 	lui	t8,0xaa99
    22ac:	66550e3c 	lui	t6,0x5566
    22b0:	00401936 	ori	t9,s0,0x4000
    22b4:	81bf0c3c 	lui	t4,0xbf81
    22b8:	81bf103c 	lui	s0,0xbf81
    22bc:	55660f37 	ori	t7,t8,0x6655
    22c0:	aa99cd35 	ori	t5,t6,0x99aa
    22c4:	00800b34 	li	t3,0x8000
    22c8:	81bf0a3c 	lui	t2,0xbf81
    22cc:	00f419ae 	sw	t9,-3072(s0)
    22d0:	10f48fad 	sw	t7,-3056(t4)
    22d4:	10f48dad 	sw	t5,-3056(t4)
    22d8:	08f44bad 	sw	t3,-3064(t2)
    22dc:	00f4028e 	lw	v0,-3072(s0)
    22e0:	00805f30 	andi	ra,v0,0x8000
    22e4:	fdffe017 	bnez	ra,0x22dc
    22e8:	00400324 	li	v1,16384
    22ec:	81bf043c 	lui	a0,0xbf81
    22f0:	04f483ac 	sw	v1,-3068(a0)
    22f4:	1300e010 	beqz	a3,0x2344
    22f8:	00100d24 	li	t5,4096
    22fc:	0030c58c 	lw	a1,12288(a2)
    2300:	0003a77c 	ext	a3,a1,0xc,0x1
    2304:	0700e014 	bnez	a3,0x2324
    2308:	00100a24 	li	t2,4096
    230c:	88bf093c 	lui	t1,0xbf88
    2310:	08302aad 	sw	t2,12296(t1)
    2314:	0030cc8c 	lw	t4,12288(a2)
    2318:	c0028b7d 	ext	t3,t4,0xb,0x1
    231c:	fdff6015 	bnez	t3,0x2314
    2320:	00000000 	nop
    2324:	eb08400f 	jal	0xd0023ac
    2328:	21200001 	move	a0,t0
    232c:	00f4088e 	lw	t0,-3072(s0)
    2330:	1400bf8f 	lw	ra,20(sp)
    2334:	1000b08f 	lw	s0,16(sp)
    2338:	00300231 	andi	v0,t0,0x3000
    233c:	0800e003 	jr	ra
    2340:	1800bd27 	addiu	sp,sp,24
    2344:	88bf063c 	lui	a2,0xbf88
    2348:	21200001 	move	a0,t0
    234c:	0430cdac 	sw	t5,12292(a2)
    2350:	eb08400f 	jal	0xd0023ac
    2354:	00000000 	nop
    2358:	00f4088e 	lw	t0,-3072(s0)
    235c:	1400bf8f 	lw	ra,20(sp)
    2360:	1000b08f 	lw	s0,16(sp)
    2364:	00300231 	andi	v0,t0,0x3000
    2368:	0800e003 	jr	ra
    236c:	1800bd27 	addiu	sp,sp,24
    2370:	ff1f083c 	lui	t0,0x1fff
    2374:	ffff0735 	ori	a3,t0,0xffff
    2378:	e8ffbd27 	addiu	sp,sp,-24
    237c:	24308700 	and	a2,a0,a3
    2380:	81bf023c 	lui	v0,0xbf81
    2384:	81bf033c 	lui	v1,0xbf81
    2388:	01400424 	li	a0,16385
    238c:	1000bfaf 	sw	ra,16(sp)
    2390:	20f446ac 	sw	a2,-3040(v0)
    2394:	30f465ac 	sw	a1,-3024(v1)
    2398:	9908400f 	jal	0xd002264
    239c:	00000000 	nop
    23a0:	1000bf8f 	lw	ra,16(sp)
    23a4:	0800e003 	jr	ra
    23a8:	1800bd27 	addiu	sp,sp,24
    23ac:	01008430 	andi	a0,a0,0x1
    23b0:	03008010 	beqz	a0,0x23c0
    23b4:	00000000 	nop
    23b8:	0800e003 	jr	ra
    23bc:	20606041 	ei
    23c0:	0800e003 	jr	ra
    23c4:	00606041 	di
    23c8:	12010002 	0x2000112
    23cc:	00000008 	j	0x0
    23d0:	d8043c00 	0x3c04d8
    23d4:	02000102 	0x2010002
    23d8:	00010000 	sll	zero,zero,0x4
    23dc:	09022900 	0x290209
    23e0:	010100c0 	ll	zero,257(zero)
    23e4:	32090400 	tlt	zero,a0,0x24
    23e8:	00020300 	sll	zero,v1,0x8
    23ec:	00000921 	addi	t1,t0,0
    23f0:	11010001 	0x1000111
    23f4:	221d0007 	bltz	t8,0x9880
    23f8:	05810340 	0x40038105
    23fc:	00010705 	aclr	0x0,256(t0)
    2400:	01034000 	0x400301
    2404:	01000000 	movf	zero,zero,$fcc0
    2408:	04030904 	tgeiu	zero,772
    240c:	34034d00 	teq	v0,t5,0xc
    2410:	69006300 	0x630069
    2414:	72006f00 	tlt	v1,t7,0x1
    2418:	63006800 	0x680063
    241c:	69007000 	0x700069
    2420:	20005400 	add	zero,v0,s4
    2424:	65006300 	0x630065
    2428:	68006e00 	0x6e0068
    242c:	6f006c00 	0x6c006f
    2430:	6f006700 	0x67006f
    2434:	79002000 	0x200079
    2438:	49006e00 	0x6e0049
    243c:	63002e00 	0x2e0063
    2440:	26035500 	0x550326
    2444:	53004200 	0x420053
    2448:	20004800 	add	zero,v0,t0
    244c:	49004400 	0x440049
    2450:	20004200 	add	zero,v0,v0
    2454:	6f006f00 	0x6f006f
    2458:	74006c00 	teq	v1,t4,0x1
    245c:	6f006100 	0x61006f
    2460:	64006500 	0x650064
    2464:	72000000 	tlt	zero,zero,0x1
    2468:	0600ff09 	j	0x7fc0018
    246c:	01a10119 	0x1901a101
    2470:	01294015 	bnez	t2,0xc878
    2474:	0026ff00 	0xff2600
    2478:	75089540 	0x40950875
    247c:	81001901 	0x1190081
    2480:	29409100 	0x914029
    2484:	c0000000 	ehb
    2488:	dc23009d 	0x9d0023dc
    248c:	0824009d 	0x9d002408
    2490:	0c24009d 	0x9d00240c
    2494:	4024009d 	0x9d002440
    2498:	2802009d 	0x9d000228
    249c:	b402009d 	0x9d0002b4
    24a0:	1403009d 	0x9d000314
    24a4:	6803009d 	0x9d000368
    24a8:	6004009d 	0x9d000460
    24ac:	7804009d 	0x9d000478
    24b0:	4c05009d 	0x9d00054c
    24b4:	8811009d 	0x9d001188
    24b8:	9811009d 	0x9d001198
    24bc:	1c12009d 	0x9d00121c
    24c0:	9811009d 	0x9d001198
    24c4:	1c12009d 	0x9d00121c
    24c8:	2011009d 	0x9d001120
    24cc:	3c11009d 	0x9d00113c
    24d0:	0c12009d 	0x9d00120c
    24d4:	5c11009d 	0x9d00115c
    24d8:	4c11009d 	0x9d00114c
    24dc:	a811009d 	0x9d0011a8
    24e0:	e011009d 	0x9d0011e0
	...
    24ec:	01000000 	movf	zero,zero,$fcc0
    24f0:	ffffffff 	sdc3	$31,-1(ra)
    24f4:	ffffffff 	sdc3	$31,-1(ra)
    24f8:	ffffffff 	sdc3	$31,-1(ra)
    24fc:	ffffffff 	sdc3	$31,-1(ra)
    2500:	ffffffff 	sdc3	$31,-1(ra)
    2504:	ffffffff 	sdc3	$31,-1(ra)
    2508:	ffffffff 	sdc3	$31,-1(ra)
    250c:	ffffffff 	sdc3	$31,-1(ra)
    2510:	ffffffff 	sdc3	$31,-1(ra)
    2514:	ffffffff 	sdc3	$31,-1(ra)
    2518:	ffffffff 	sdc3	$31,-1(ra)
    251c:	ffffffff 	sdc3	$31,-1(ra)
    2520:	ffffffff 	sdc3	$31,-1(ra)
    2524:	ffffffff 	sdc3	$31,-1(ra)
    2528:	ffffffff 	sdc3	$31,-1(ra)
    252c:	ffffffff 	sdc3	$31,-1(ra)
    2530:	ffffffff 	sdc3	$31,-1(ra)
    2534:	ffffffff 	sdc3	$31,-1(ra)
    2538:	ffffffff 	sdc3	$31,-1(ra)
    253c:	ffffffff 	sdc3	$31,-1(ra)
    2540:	ffffffff 	sdc3	$31,-1(ra)
    2544:	ffffffff 	sdc3	$31,-1(ra)
    2548:	ffffffff 	sdc3	$31,-1(ra)
    254c:	ffffffff 	sdc3	$31,-1(ra)
    2550:	ffffffff 	sdc3	$31,-1(ra)
    2554:	ffffffff 	sdc3	$31,-1(ra)
    2558:	ffffffff 	sdc3	$31,-1(ra)
    255c:	ffffffff 	sdc3	$31,-1(ra)
    2560:	ffffffff 	sdc3	$31,-1(ra)
    2564:	ffffffff 	sdc3	$31,-1(ra)
    2568:	ffffffff 	sdc3	$31,-1(ra)
    256c:	ffffffff 	sdc3	$31,-1(ra)
    2570:	ffffffff 	sdc3	$31,-1(ra)
    2574:	ffffffff 	sdc3	$31,-1(ra)
    2578:	ffffffff 	sdc3	$31,-1(ra)
    257c:	ffffffff 	sdc3	$31,-1(ra)
    2580:	ffffffff 	sdc3	$31,-1(ra)
    2584:	ffffffff 	sdc3	$31,-1(ra)
    2588:	ffffffff 	sdc3	$31,-1(ra)
    258c:	ffffffff 	sdc3	$31,-1(ra)
    2590:	ffffffff 	sdc3	$31,-1(ra)
    2594:	ffffffff 	sdc3	$31,-1(ra)
    2598:	ffffffff 	sdc3	$31,-1(ra)
    259c:	ffffffff 	sdc3	$31,-1(ra)
    25a0:	ffffffff 	sdc3	$31,-1(ra)
    25a4:	ffffffff 	sdc3	$31,-1(ra)
    25a8:	ffffffff 	sdc3	$31,-1(ra)
    25ac:	ffffffff 	sdc3	$31,-1(ra)
    25b0:	ffffffff 	sdc3	$31,-1(ra)
    25b4:	ffffffff 	sdc3	$31,-1(ra)
    25b8:	ffffffff 	sdc3	$31,-1(ra)
    25bc:	ffffffff 	sdc3	$31,-1(ra)
    25c0:	ffffffff 	sdc3	$31,-1(ra)
    25c4:	ffffffff 	sdc3	$31,-1(ra)
    25c8:	ffffffff 	sdc3	$31,-1(ra)
    25cc:	ffffffff 	sdc3	$31,-1(ra)
    25d0:	ffffffff 	sdc3	$31,-1(ra)
    25d4:	ffffffff 	sdc3	$31,-1(ra)
    25d8:	ffffffff 	sdc3	$31,-1(ra)
    25dc:	ffffffff 	sdc3	$31,-1(ra)
    25e0:	ffffffff 	sdc3	$31,-1(ra)
    25e4:	ffffffff 	sdc3	$31,-1(ra)
    25e8:	ffffffff 	sdc3	$31,-1(ra)
    25ec:	ffffffff 	sdc3	$31,-1(ra)
    25f0:	ffffffff 	sdc3	$31,-1(ra)
    25f4:	ffffffff 	sdc3	$31,-1(ra)
    25f8:	ffffffff 	sdc3	$31,-1(ra)
    25fc:	ffffffff 	sdc3	$31,-1(ra)
    2600:	ffffffff 	sdc3	$31,-1(ra)
    2604:	ffffffff 	sdc3	$31,-1(ra)
    2608:	ffffffff 	sdc3	$31,-1(ra)
    260c:	ffffffff 	sdc3	$31,-1(ra)
    2610:	ffffffff 	sdc3	$31,-1(ra)
    2614:	ffffffff 	sdc3	$31,-1(ra)
    2618:	ffffffff 	sdc3	$31,-1(ra)
    261c:	ffffffff 	sdc3	$31,-1(ra)
    2620:	ffffffff 	sdc3	$31,-1(ra)
    2624:	ffffffff 	sdc3	$31,-1(ra)
    2628:	ffffffff 	sdc3	$31,-1(ra)
    262c:	ffffffff 	sdc3	$31,-1(ra)
    2630:	ffffffff 	sdc3	$31,-1(ra)
    2634:	ffffffff 	sdc3	$31,-1(ra)
    2638:	ffffffff 	sdc3	$31,-1(ra)
    263c:	ffffffff 	sdc3	$31,-1(ra)
    2640:	ffffffff 	sdc3	$31,-1(ra)
    2644:	ffffffff 	sdc3	$31,-1(ra)
    2648:	ffffffff 	sdc3	$31,-1(ra)
    264c:	ffffffff 	sdc3	$31,-1(ra)
    2650:	ffffffff 	sdc3	$31,-1(ra)
    2654:	ffffffff 	sdc3	$31,-1(ra)
    2658:	ffffffff 	sdc3	$31,-1(ra)
    265c:	ffffffff 	sdc3	$31,-1(ra)
    2660:	ffffffff 	sdc3	$31,-1(ra)
    2664:	ffffffff 	sdc3	$31,-1(ra)
    2668:	ffffffff 	sdc3	$31,-1(ra)
    266c:	ffffffff 	sdc3	$31,-1(ra)
    2670:	ffffffff 	sdc3	$31,-1(ra)
    2674:	ffffffff 	sdc3	$31,-1(ra)
    2678:	ffffffff 	sdc3	$31,-1(ra)
    267c:	ffffffff 	sdc3	$31,-1(ra)
    2680:	ffffffff 	sdc3	$31,-1(ra)
    2684:	ffffffff 	sdc3	$31,-1(ra)
    2688:	ffffffff 	sdc3	$31,-1(ra)
    268c:	ffffffff 	sdc3	$31,-1(ra)
    2690:	ffffffff 	sdc3	$31,-1(ra)
    2694:	ffffffff 	sdc3	$31,-1(ra)
    2698:	ffffffff 	sdc3	$31,-1(ra)
    269c:	ffffffff 	sdc3	$31,-1(ra)
    26a0:	ffffffff 	sdc3	$31,-1(ra)
    26a4:	ffffffff 	sdc3	$31,-1(ra)
    26a8:	ffffffff 	sdc3	$31,-1(ra)
    26ac:	ffffffff 	sdc3	$31,-1(ra)
    26b0:	ffffffff 	sdc3	$31,-1(ra)
    26b4:	ffffffff 	sdc3	$31,-1(ra)
    26b8:	ffffffff 	sdc3	$31,-1(ra)
    26bc:	ffffffff 	sdc3	$31,-1(ra)
    26c0:	ffffffff 	sdc3	$31,-1(ra)
    26c4:	ffffffff 	sdc3	$31,-1(ra)
    26c8:	ffffffff 	sdc3	$31,-1(ra)
    26cc:	ffffffff 	sdc3	$31,-1(ra)
    26d0:	ffffffff 	sdc3	$31,-1(ra)
    26d4:	ffffffff 	sdc3	$31,-1(ra)
    26d8:	ffffffff 	sdc3	$31,-1(ra)
    26dc:	ffffffff 	sdc3	$31,-1(ra)
    26e0:	ffffffff 	sdc3	$31,-1(ra)
    26e4:	ffffffff 	sdc3	$31,-1(ra)
    26e8:	ffffffff 	sdc3	$31,-1(ra)
    26ec:	ffffffff 	sdc3	$31,-1(ra)
    26f0:	ffffffff 	sdc3	$31,-1(ra)
    26f4:	ffffffff 	sdc3	$31,-1(ra)
    26f8:	ffffffff 	sdc3	$31,-1(ra)
    26fc:	ffffffff 	sdc3	$31,-1(ra)
    2700:	ffffffff 	sdc3	$31,-1(ra)
    2704:	ffffffff 	sdc3	$31,-1(ra)
    2708:	ffffffff 	sdc3	$31,-1(ra)
    270c:	ffffffff 	sdc3	$31,-1(ra)
    2710:	ffffffff 	sdc3	$31,-1(ra)
    2714:	ffffffff 	sdc3	$31,-1(ra)
    2718:	ffffffff 	sdc3	$31,-1(ra)
    271c:	ffffffff 	sdc3	$31,-1(ra)
    2720:	ffffffff 	sdc3	$31,-1(ra)
    2724:	ffffffff 	sdc3	$31,-1(ra)
    2728:	ffffffff 	sdc3	$31,-1(ra)
    272c:	ffffffff 	sdc3	$31,-1(ra)
    2730:	ffffffff 	sdc3	$31,-1(ra)
    2734:	ffffffff 	sdc3	$31,-1(ra)
    2738:	ffffffff 	sdc3	$31,-1(ra)
    273c:	ffffffff 	sdc3	$31,-1(ra)
    2740:	ffffffff 	sdc3	$31,-1(ra)
    2744:	ffffffff 	sdc3	$31,-1(ra)
    2748:	ffffffff 	sdc3	$31,-1(ra)
    274c:	ffffffff 	sdc3	$31,-1(ra)
    2750:	ffffffff 	sdc3	$31,-1(ra)
    2754:	ffffffff 	sdc3	$31,-1(ra)
    2758:	ffffffff 	sdc3	$31,-1(ra)
    275c:	ffffffff 	sdc3	$31,-1(ra)
    2760:	ffffffff 	sdc3	$31,-1(ra)
    2764:	ffffffff 	sdc3	$31,-1(ra)
    2768:	ffffffff 	sdc3	$31,-1(ra)
    276c:	ffffffff 	sdc3	$31,-1(ra)
    2770:	ffffffff 	sdc3	$31,-1(ra)
    2774:	ffffffff 	sdc3	$31,-1(ra)
    2778:	ffffffff 	sdc3	$31,-1(ra)
    277c:	ffffffff 	sdc3	$31,-1(ra)
    2780:	ffffffff 	sdc3	$31,-1(ra)
    2784:	ffffffff 	sdc3	$31,-1(ra)
    2788:	ffffffff 	sdc3	$31,-1(ra)
    278c:	ffffffff 	sdc3	$31,-1(ra)
    2790:	ffffffff 	sdc3	$31,-1(ra)
    2794:	ffffffff 	sdc3	$31,-1(ra)
    2798:	ffffffff 	sdc3	$31,-1(ra)
    279c:	ffffffff 	sdc3	$31,-1(ra)
    27a0:	ffffffff 	sdc3	$31,-1(ra)
    27a4:	ffffffff 	sdc3	$31,-1(ra)
    27a8:	ffffffff 	sdc3	$31,-1(ra)
    27ac:	ffffffff 	sdc3	$31,-1(ra)
    27b0:	ffffffff 	sdc3	$31,-1(ra)
    27b4:	ffffffff 	sdc3	$31,-1(ra)
    27b8:	ffffffff 	sdc3	$31,-1(ra)
    27bc:	ffffffff 	sdc3	$31,-1(ra)
    27c0:	ffffffff 	sdc3	$31,-1(ra)
    27c4:	ffffffff 	sdc3	$31,-1(ra)
    27c8:	ffffffff 	sdc3	$31,-1(ra)
    27cc:	ffffffff 	sdc3	$31,-1(ra)
    27d0:	ffffffff 	sdc3	$31,-1(ra)
    27d4:	ffffffff 	sdc3	$31,-1(ra)
    27d8:	ffffffff 	sdc3	$31,-1(ra)
    27dc:	ffffffff 	sdc3	$31,-1(ra)
    27e0:	ffffffff 	sdc3	$31,-1(ra)
    27e4:	ffffffff 	sdc3	$31,-1(ra)
    27e8:	ffffffff 	sdc3	$31,-1(ra)
    27ec:	ffffffff 	sdc3	$31,-1(ra)
    27f0:	ffffffff 	sdc3	$31,-1(ra)
    27f4:	ffffffff 	sdc3	$31,-1(ra)
    27f8:	ffffffff 	sdc3	$31,-1(ra)
    27fc:	ffffffff 	sdc3	$31,-1(ra)
    2800:	ffffffff 	sdc3	$31,-1(ra)
    2804:	ffffffff 	sdc3	$31,-1(ra)
    2808:	ffffffff 	sdc3	$31,-1(ra)
    280c:	ffffffff 	sdc3	$31,-1(ra)
    2810:	ffffffff 	sdc3	$31,-1(ra)
    2814:	ffffffff 	sdc3	$31,-1(ra)
    2818:	ffffffff 	sdc3	$31,-1(ra)
    281c:	ffffffff 	sdc3	$31,-1(ra)
    2820:	ffffffff 	sdc3	$31,-1(ra)
    2824:	ffffffff 	sdc3	$31,-1(ra)
    2828:	ffffffff 	sdc3	$31,-1(ra)
    282c:	ffffffff 	sdc3	$31,-1(ra)
    2830:	ffffffff 	sdc3	$31,-1(ra)
    2834:	ffffffff 	sdc3	$31,-1(ra)
    2838:	ffffffff 	sdc3	$31,-1(ra)
    283c:	ffffffff 	sdc3	$31,-1(ra)
    2840:	ffffffff 	sdc3	$31,-1(ra)
    2844:	ffffffff 	sdc3	$31,-1(ra)
    2848:	ffffffff 	sdc3	$31,-1(ra)
    284c:	ffffffff 	sdc3	$31,-1(ra)
    2850:	ffffffff 	sdc3	$31,-1(ra)
    2854:	ffffffff 	sdc3	$31,-1(ra)
    2858:	ffffffff 	sdc3	$31,-1(ra)
    285c:	ffffffff 	sdc3	$31,-1(ra)
    2860:	ffffffff 	sdc3	$31,-1(ra)
    2864:	ffffffff 	sdc3	$31,-1(ra)
    2868:	ffffffff 	sdc3	$31,-1(ra)
    286c:	ffffffff 	sdc3	$31,-1(ra)
    2870:	ffffffff 	sdc3	$31,-1(ra)
    2874:	ffffffff 	sdc3	$31,-1(ra)
    2878:	ffffffff 	sdc3	$31,-1(ra)
    287c:	ffffffff 	sdc3	$31,-1(ra)
    2880:	ffffffff 	sdc3	$31,-1(ra)
    2884:	ffffffff 	sdc3	$31,-1(ra)
    2888:	ffffffff 	sdc3	$31,-1(ra)
    288c:	ffffffff 	sdc3	$31,-1(ra)
    2890:	ffffffff 	sdc3	$31,-1(ra)
    2894:	ffffffff 	sdc3	$31,-1(ra)
    2898:	ffffffff 	sdc3	$31,-1(ra)
    289c:	ffffffff 	sdc3	$31,-1(ra)
    28a0:	ffffffff 	sdc3	$31,-1(ra)
    28a4:	ffffffff 	sdc3	$31,-1(ra)
    28a8:	ffffffff 	sdc3	$31,-1(ra)
    28ac:	ffffffff 	sdc3	$31,-1(ra)
    28b0:	ffffffff 	sdc3	$31,-1(ra)
    28b4:	ffffffff 	sdc3	$31,-1(ra)
    28b8:	ffffffff 	sdc3	$31,-1(ra)
    28bc:	ffffffff 	sdc3	$31,-1(ra)
    28c0:	ffffffff 	sdc3	$31,-1(ra)
    28c4:	ffffffff 	sdc3	$31,-1(ra)
    28c8:	ffffffff 	sdc3	$31,-1(ra)
    28cc:	ffffffff 	sdc3	$31,-1(ra)
    28d0:	ffffffff 	sdc3	$31,-1(ra)
    28d4:	ffffffff 	sdc3	$31,-1(ra)
    28d8:	ffffffff 	sdc3	$31,-1(ra)
    28dc:	ffffffff 	sdc3	$31,-1(ra)
    28e0:	ffffffff 	sdc3	$31,-1(ra)
    28e4:	ffffffff 	sdc3	$31,-1(ra)
    28e8:	ffffffff 	sdc3	$31,-1(ra)
    28ec:	ffffffff 	sdc3	$31,-1(ra)
    28f0:	ffffffff 	sdc3	$31,-1(ra)
    28f4:	ffffffff 	sdc3	$31,-1(ra)
    28f8:	ffffffff 	sdc3	$31,-1(ra)
    28fc:	ffffffff 	sdc3	$31,-1(ra)
    2900:	ffffffff 	sdc3	$31,-1(ra)
    2904:	ffffffff 	sdc3	$31,-1(ra)
    2908:	ffffffff 	sdc3	$31,-1(ra)
    290c:	ffffffff 	sdc3	$31,-1(ra)
    2910:	ffffffff 	sdc3	$31,-1(ra)
    2914:	ffffffff 	sdc3	$31,-1(ra)
    2918:	ffffffff 	sdc3	$31,-1(ra)
    291c:	ffffffff 	sdc3	$31,-1(ra)
    2920:	ffffffff 	sdc3	$31,-1(ra)
    2924:	ffffffff 	sdc3	$31,-1(ra)
    2928:	ffffffff 	sdc3	$31,-1(ra)
    292c:	ffffffff 	sdc3	$31,-1(ra)
    2930:	ffffffff 	sdc3	$31,-1(ra)
    2934:	ffffffff 	sdc3	$31,-1(ra)
    2938:	ffffffff 	sdc3	$31,-1(ra)
    293c:	ffffffff 	sdc3	$31,-1(ra)
    2940:	ffffffff 	sdc3	$31,-1(ra)
    2944:	ffffffff 	sdc3	$31,-1(ra)
    2948:	ffffffff 	sdc3	$31,-1(ra)
    294c:	ffffffff 	sdc3	$31,-1(ra)
    2950:	ffffffff 	sdc3	$31,-1(ra)
    2954:	ffffffff 	sdc3	$31,-1(ra)
    2958:	ffffffff 	sdc3	$31,-1(ra)
    295c:	ffffffff 	sdc3	$31,-1(ra)
    2960:	ffffffff 	sdc3	$31,-1(ra)
    2964:	ffffffff 	sdc3	$31,-1(ra)
    2968:	ffffffff 	sdc3	$31,-1(ra)
    296c:	ffffffff 	sdc3	$31,-1(ra)
    2970:	ffffffff 	sdc3	$31,-1(ra)
    2974:	ffffffff 	sdc3	$31,-1(ra)
    2978:	ffffffff 	sdc3	$31,-1(ra)
    297c:	ffffffff 	sdc3	$31,-1(ra)
    2980:	ffffffff 	sdc3	$31,-1(ra)
    2984:	ffffffff 	sdc3	$31,-1(ra)
    2988:	ffffffff 	sdc3	$31,-1(ra)
    298c:	ffffffff 	sdc3	$31,-1(ra)
    2990:	ffffffff 	sdc3	$31,-1(ra)
    2994:	ffffffff 	sdc3	$31,-1(ra)
    2998:	ffffffff 	sdc3	$31,-1(ra)
    299c:	ffffffff 	sdc3	$31,-1(ra)
    29a0:	ffffffff 	sdc3	$31,-1(ra)
    29a4:	ffffffff 	sdc3	$31,-1(ra)
    29a8:	ffffffff 	sdc3	$31,-1(ra)
    29ac:	ffffffff 	sdc3	$31,-1(ra)
    29b0:	ffffffff 	sdc3	$31,-1(ra)
    29b4:	ffffffff 	sdc3	$31,-1(ra)
    29b8:	ffffffff 	sdc3	$31,-1(ra)
    29bc:	ffffffff 	sdc3	$31,-1(ra)
    29c0:	ffffffff 	sdc3	$31,-1(ra)
    29c4:	ffffffff 	sdc3	$31,-1(ra)
    29c8:	ffffffff 	sdc3	$31,-1(ra)
    29cc:	ffffffff 	sdc3	$31,-1(ra)
    29d0:	ffffffff 	sdc3	$31,-1(ra)
    29d4:	ffffffff 	sdc3	$31,-1(ra)
    29d8:	ffffffff 	sdc3	$31,-1(ra)
    29dc:	ffffffff 	sdc3	$31,-1(ra)
    29e0:	ffffffff 	sdc3	$31,-1(ra)
    29e4:	ffffffff 	sdc3	$31,-1(ra)
    29e8:	ffffffff 	sdc3	$31,-1(ra)
    29ec:	ffffffff 	sdc3	$31,-1(ra)
    29f0:	ffffffff 	sdc3	$31,-1(ra)
    29f4:	ffffffff 	sdc3	$31,-1(ra)
    29f8:	ffffffff 	sdc3	$31,-1(ra)
    29fc:	ffffffff 	sdc3	$31,-1(ra)
    2a00:	ffffffff 	sdc3	$31,-1(ra)
    2a04:	ffffffff 	sdc3	$31,-1(ra)
    2a08:	ffffffff 	sdc3	$31,-1(ra)
    2a0c:	ffffffff 	sdc3	$31,-1(ra)
    2a10:	ffffffff 	sdc3	$31,-1(ra)
    2a14:	ffffffff 	sdc3	$31,-1(ra)
    2a18:	ffffffff 	sdc3	$31,-1(ra)
    2a1c:	ffffffff 	sdc3	$31,-1(ra)
    2a20:	ffffffff 	sdc3	$31,-1(ra)
    2a24:	ffffffff 	sdc3	$31,-1(ra)
    2a28:	ffffffff 	sdc3	$31,-1(ra)
    2a2c:	ffffffff 	sdc3	$31,-1(ra)
    2a30:	ffffffff 	sdc3	$31,-1(ra)
    2a34:	ffffffff 	sdc3	$31,-1(ra)
    2a38:	ffffffff 	sdc3	$31,-1(ra)
    2a3c:	ffffffff 	sdc3	$31,-1(ra)
    2a40:	ffffffff 	sdc3	$31,-1(ra)
    2a44:	ffffffff 	sdc3	$31,-1(ra)
    2a48:	ffffffff 	sdc3	$31,-1(ra)
    2a4c:	ffffffff 	sdc3	$31,-1(ra)
    2a50:	ffffffff 	sdc3	$31,-1(ra)
    2a54:	ffffffff 	sdc3	$31,-1(ra)
    2a58:	ffffffff 	sdc3	$31,-1(ra)
    2a5c:	ffffffff 	sdc3	$31,-1(ra)
    2a60:	ffffffff 	sdc3	$31,-1(ra)
    2a64:	ffffffff 	sdc3	$31,-1(ra)
    2a68:	ffffffff 	sdc3	$31,-1(ra)
    2a6c:	ffffffff 	sdc3	$31,-1(ra)
    2a70:	ffffffff 	sdc3	$31,-1(ra)
    2a74:	ffffffff 	sdc3	$31,-1(ra)
    2a78:	ffffffff 	sdc3	$31,-1(ra)
    2a7c:	ffffffff 	sdc3	$31,-1(ra)
    2a80:	ffffffff 	sdc3	$31,-1(ra)
    2a84:	ffffffff 	sdc3	$31,-1(ra)
    2a88:	ffffffff 	sdc3	$31,-1(ra)
    2a8c:	ffffffff 	sdc3	$31,-1(ra)
    2a90:	ffffffff 	sdc3	$31,-1(ra)
    2a94:	ffffffff 	sdc3	$31,-1(ra)
    2a98:	ffffffff 	sdc3	$31,-1(ra)
    2a9c:	ffffffff 	sdc3	$31,-1(ra)
    2aa0:	ffffffff 	sdc3	$31,-1(ra)
    2aa4:	ffffffff 	sdc3	$31,-1(ra)
    2aa8:	ffffffff 	sdc3	$31,-1(ra)
    2aac:	ffffffff 	sdc3	$31,-1(ra)
    2ab0:	ffffffff 	sdc3	$31,-1(ra)
    2ab4:	ffffffff 	sdc3	$31,-1(ra)
    2ab8:	ffffffff 	sdc3	$31,-1(ra)
    2abc:	ffffffff 	sdc3	$31,-1(ra)
    2ac0:	ffffffff 	sdc3	$31,-1(ra)
    2ac4:	ffffffff 	sdc3	$31,-1(ra)
    2ac8:	ffffffff 	sdc3	$31,-1(ra)
    2acc:	ffffffff 	sdc3	$31,-1(ra)
    2ad0:	ffffffff 	sdc3	$31,-1(ra)
    2ad4:	ffffffff 	sdc3	$31,-1(ra)
    2ad8:	ffffffff 	sdc3	$31,-1(ra)
    2adc:	ffffffff 	sdc3	$31,-1(ra)
    2ae0:	ffffffff 	sdc3	$31,-1(ra)
    2ae4:	ffffffff 	sdc3	$31,-1(ra)
    2ae8:	ffffffff 	sdc3	$31,-1(ra)
    2aec:	ffffffff 	sdc3	$31,-1(ra)
    2af0:	ffffffff 	sdc3	$31,-1(ra)
    2af4:	ffffffff 	sdc3	$31,-1(ra)
    2af8:	ffffffff 	sdc3	$31,-1(ra)
    2afc:	ffffffff 	sdc3	$31,-1(ra)
    2b00:	ffffffff 	sdc3	$31,-1(ra)
    2b04:	ffffffff 	sdc3	$31,-1(ra)
    2b08:	ffffffff 	sdc3	$31,-1(ra)
    2b0c:	ffffffff 	sdc3	$31,-1(ra)
    2b10:	ffffffff 	sdc3	$31,-1(ra)
    2b14:	ffffffff 	sdc3	$31,-1(ra)
    2b18:	ffffffff 	sdc3	$31,-1(ra)
    2b1c:	ffffffff 	sdc3	$31,-1(ra)
    2b20:	ffffffff 	sdc3	$31,-1(ra)
    2b24:	ffffffff 	sdc3	$31,-1(ra)
    2b28:	ffffffff 	sdc3	$31,-1(ra)
    2b2c:	ffffffff 	sdc3	$31,-1(ra)
    2b30:	ffffffff 	sdc3	$31,-1(ra)
    2b34:	ffffffff 	sdc3	$31,-1(ra)
    2b38:	ffffffff 	sdc3	$31,-1(ra)
    2b3c:	ffffffff 	sdc3	$31,-1(ra)
    2b40:	ffffffff 	sdc3	$31,-1(ra)
    2b44:	ffffffff 	sdc3	$31,-1(ra)
    2b48:	ffffffff 	sdc3	$31,-1(ra)
    2b4c:	ffffffff 	sdc3	$31,-1(ra)
    2b50:	ffffffff 	sdc3	$31,-1(ra)
    2b54:	ffffffff 	sdc3	$31,-1(ra)
    2b58:	ffffffff 	sdc3	$31,-1(ra)
    2b5c:	ffffffff 	sdc3	$31,-1(ra)
    2b60:	ffffffff 	sdc3	$31,-1(ra)
    2b64:	ffffffff 	sdc3	$31,-1(ra)
    2b68:	ffffffff 	sdc3	$31,-1(ra)
    2b6c:	ffffffff 	sdc3	$31,-1(ra)
    2b70:	ffffffff 	sdc3	$31,-1(ra)
    2b74:	ffffffff 	sdc3	$31,-1(ra)
    2b78:	ffffffff 	sdc3	$31,-1(ra)
    2b7c:	ffffffff 	sdc3	$31,-1(ra)
    2b80:	ffffffff 	sdc3	$31,-1(ra)
    2b84:	ffffffff 	sdc3	$31,-1(ra)
    2b88:	ffffffff 	sdc3	$31,-1(ra)
    2b8c:	ffffffff 	sdc3	$31,-1(ra)
    2b90:	ffffffff 	sdc3	$31,-1(ra)
    2b94:	ffffffff 	sdc3	$31,-1(ra)
    2b98:	ffffffff 	sdc3	$31,-1(ra)
    2b9c:	ffffffff 	sdc3	$31,-1(ra)
    2ba0:	ffffffff 	sdc3	$31,-1(ra)
    2ba4:	ffffffff 	sdc3	$31,-1(ra)
    2ba8:	ffffffff 	sdc3	$31,-1(ra)
    2bac:	ffffffff 	sdc3	$31,-1(ra)
    2bb0:	ffffffff 	sdc3	$31,-1(ra)
    2bb4:	ffffffff 	sdc3	$31,-1(ra)
    2bb8:	ffffffff 	sdc3	$31,-1(ra)
    2bbc:	ffffffff 	sdc3	$31,-1(ra)
    2bc0:	ffffffff 	sdc3	$31,-1(ra)
    2bc4:	ffffffff 	sdc3	$31,-1(ra)
    2bc8:	ffffffff 	sdc3	$31,-1(ra)
    2bcc:	ffffffff 	sdc3	$31,-1(ra)
    2bd0:	ffffffff 	sdc3	$31,-1(ra)
    2bd4:	ffffffff 	sdc3	$31,-1(ra)
    2bd8:	ffffffff 	sdc3	$31,-1(ra)
    2bdc:	ffffffff 	sdc3	$31,-1(ra)
    2be0:	ffffffff 	sdc3	$31,-1(ra)
    2be4:	ffffffff 	sdc3	$31,-1(ra)
    2be8:	ffffffff 	sdc3	$31,-1(ra)
    2bec:	ffffffff 	sdc3	$31,-1(ra)
    2bf0:	ffffffff 	sdc3	$31,-1(ra)
    2bf4:	ffffffff 	sdc3	$31,-1(ra)
    2bf8:	ffffffff 	sdc3	$31,-1(ra)
    2bfc:	ffffffff 	sdc3	$31,-1(ra)
    2c00:	ffffffff 	sdc3	$31,-1(ra)
    2c04:	ffffffff 	sdc3	$31,-1(ra)
    2c08:	ffffffff 	sdc3	$31,-1(ra)
    2c0c:	ffffffff 	sdc3	$31,-1(ra)
    2c10:	ffffffff 	sdc3	$31,-1(ra)
    2c14:	ffffffff 	sdc3	$31,-1(ra)
    2c18:	ffffffff 	sdc3	$31,-1(ra)
    2c1c:	ffffffff 	sdc3	$31,-1(ra)
    2c20:	ffffffff 	sdc3	$31,-1(ra)
    2c24:	ffffffff 	sdc3	$31,-1(ra)
    2c28:	ffffffff 	sdc3	$31,-1(ra)
    2c2c:	ffffffff 	sdc3	$31,-1(ra)
    2c30:	ffffffff 	sdc3	$31,-1(ra)
    2c34:	ffffffff 	sdc3	$31,-1(ra)
    2c38:	ffffffff 	sdc3	$31,-1(ra)
    2c3c:	ffffffff 	sdc3	$31,-1(ra)
    2c40:	ffffffff 	sdc3	$31,-1(ra)
    2c44:	ffffffff 	sdc3	$31,-1(ra)
    2c48:	ffffffff 	sdc3	$31,-1(ra)
    2c4c:	ffffffff 	sdc3	$31,-1(ra)
    2c50:	ffffffff 	sdc3	$31,-1(ra)
    2c54:	ffffffff 	sdc3	$31,-1(ra)
    2c58:	ffffffff 	sdc3	$31,-1(ra)
    2c5c:	ffffffff 	sdc3	$31,-1(ra)
    2c60:	ffffffff 	sdc3	$31,-1(ra)
    2c64:	ffffffff 	sdc3	$31,-1(ra)
    2c68:	ffffffff 	sdc3	$31,-1(ra)
    2c6c:	ffffffff 	sdc3	$31,-1(ra)
    2c70:	ffffffff 	sdc3	$31,-1(ra)
    2c74:	ffffffff 	sdc3	$31,-1(ra)
    2c78:	ffffffff 	sdc3	$31,-1(ra)
    2c7c:	ffffffff 	sdc3	$31,-1(ra)
    2c80:	ffffffff 	sdc3	$31,-1(ra)
    2c84:	ffffffff 	sdc3	$31,-1(ra)
    2c88:	ffffffff 	sdc3	$31,-1(ra)
    2c8c:	ffffffff 	sdc3	$31,-1(ra)
    2c90:	ffffffff 	sdc3	$31,-1(ra)
    2c94:	ffffffff 	sdc3	$31,-1(ra)
    2c98:	ffffffff 	sdc3	$31,-1(ra)
    2c9c:	ffffffff 	sdc3	$31,-1(ra)
    2ca0:	ffffffff 	sdc3	$31,-1(ra)
    2ca4:	ffffffff 	sdc3	$31,-1(ra)
    2ca8:	ffffffff 	sdc3	$31,-1(ra)
    2cac:	ffffffff 	sdc3	$31,-1(ra)
    2cb0:	ffffffff 	sdc3	$31,-1(ra)
    2cb4:	ffffffff 	sdc3	$31,-1(ra)
    2cb8:	ffffffff 	sdc3	$31,-1(ra)
    2cbc:	ffffffff 	sdc3	$31,-1(ra)
    2cc0:	ffffffff 	sdc3	$31,-1(ra)
    2cc4:	ffffffff 	sdc3	$31,-1(ra)
    2cc8:	ffffffff 	sdc3	$31,-1(ra)
    2ccc:	ffffffff 	sdc3	$31,-1(ra)
    2cd0:	ffffffff 	sdc3	$31,-1(ra)
    2cd4:	ffffffff 	sdc3	$31,-1(ra)
    2cd8:	ffffffff 	sdc3	$31,-1(ra)
    2cdc:	ffffffff 	sdc3	$31,-1(ra)
    2ce0:	ffffffff 	sdc3	$31,-1(ra)
    2ce4:	ffffffff 	sdc3	$31,-1(ra)
    2ce8:	ffffffff 	sdc3	$31,-1(ra)
    2cec:	ffffffff 	sdc3	$31,-1(ra)
    2cf0:	ffffffff 	sdc3	$31,-1(ra)
    2cf4:	ffffffff 	sdc3	$31,-1(ra)
    2cf8:	ffffffff 	sdc3	$31,-1(ra)
    2cfc:	ffffffff 	sdc3	$31,-1(ra)
    2d00:	ffffffff 	sdc3	$31,-1(ra)
    2d04:	ffffffff 	sdc3	$31,-1(ra)
    2d08:	ffffffff 	sdc3	$31,-1(ra)
    2d0c:	ffffffff 	sdc3	$31,-1(ra)
    2d10:	ffffffff 	sdc3	$31,-1(ra)
    2d14:	ffffffff 	sdc3	$31,-1(ra)
    2d18:	ffffffff 	sdc3	$31,-1(ra)
    2d1c:	ffffffff 	sdc3	$31,-1(ra)
    2d20:	ffffffff 	sdc3	$31,-1(ra)
    2d24:	ffffffff 	sdc3	$31,-1(ra)
    2d28:	ffffffff 	sdc3	$31,-1(ra)
    2d2c:	ffffffff 	sdc3	$31,-1(ra)
    2d30:	ffffffff 	sdc3	$31,-1(ra)
    2d34:	ffffffff 	sdc3	$31,-1(ra)
    2d38:	ffffffff 	sdc3	$31,-1(ra)
    2d3c:	ffffffff 	sdc3	$31,-1(ra)
    2d40:	ffffffff 	sdc3	$31,-1(ra)
    2d44:	ffffffff 	sdc3	$31,-1(ra)
    2d48:	ffffffff 	sdc3	$31,-1(ra)
    2d4c:	ffffffff 	sdc3	$31,-1(ra)
    2d50:	ffffffff 	sdc3	$31,-1(ra)
    2d54:	ffffffff 	sdc3	$31,-1(ra)
    2d58:	ffffffff 	sdc3	$31,-1(ra)
    2d5c:	ffffffff 	sdc3	$31,-1(ra)
    2d60:	ffffffff 	sdc3	$31,-1(ra)
    2d64:	ffffffff 	sdc3	$31,-1(ra)
    2d68:	ffffffff 	sdc3	$31,-1(ra)
    2d6c:	ffffffff 	sdc3	$31,-1(ra)
    2d70:	ffffffff 	sdc3	$31,-1(ra)
    2d74:	ffffffff 	sdc3	$31,-1(ra)
    2d78:	ffffffff 	sdc3	$31,-1(ra)
    2d7c:	ffffffff 	sdc3	$31,-1(ra)
    2d80:	ffffffff 	sdc3	$31,-1(ra)
    2d84:	ffffffff 	sdc3	$31,-1(ra)
    2d88:	ffffffff 	sdc3	$31,-1(ra)
    2d8c:	ffffffff 	sdc3	$31,-1(ra)
    2d90:	ffffffff 	sdc3	$31,-1(ra)
    2d94:	ffffffff 	sdc3	$31,-1(ra)
    2d98:	ffffffff 	sdc3	$31,-1(ra)
    2d9c:	ffffffff 	sdc3	$31,-1(ra)
    2da0:	ffffffff 	sdc3	$31,-1(ra)
    2da4:	ffffffff 	sdc3	$31,-1(ra)
    2da8:	ffffffff 	sdc3	$31,-1(ra)
    2dac:	ffffffff 	sdc3	$31,-1(ra)
    2db0:	ffffffff 	sdc3	$31,-1(ra)
    2db4:	ffffffff 	sdc3	$31,-1(ra)
    2db8:	ffffffff 	sdc3	$31,-1(ra)
    2dbc:	ffffffff 	sdc3	$31,-1(ra)
    2dc0:	ffffffff 	sdc3	$31,-1(ra)
    2dc4:	ffffffff 	sdc3	$31,-1(ra)
    2dc8:	ffffffff 	sdc3	$31,-1(ra)
    2dcc:	ffffffff 	sdc3	$31,-1(ra)
    2dd0:	ffffffff 	sdc3	$31,-1(ra)
    2dd4:	ffffffff 	sdc3	$31,-1(ra)
    2dd8:	ffffffff 	sdc3	$31,-1(ra)
    2ddc:	ffffffff 	sdc3	$31,-1(ra)
    2de0:	ffffffff 	sdc3	$31,-1(ra)
    2de4:	ffffffff 	sdc3	$31,-1(ra)
    2de8:	ffffffff 	sdc3	$31,-1(ra)
    2dec:	ffffffff 	sdc3	$31,-1(ra)
    2df0:	ffffffff 	sdc3	$31,-1(ra)
    2df4:	ffffffff 	sdc3	$31,-1(ra)
    2df8:	ffffffff 	sdc3	$31,-1(ra)
    2dfc:	ffffffff 	sdc3	$31,-1(ra)
    2e00:	ffffffff 	sdc3	$31,-1(ra)
    2e04:	ffffffff 	sdc3	$31,-1(ra)
    2e08:	ffffffff 	sdc3	$31,-1(ra)
    2e0c:	ffffffff 	sdc3	$31,-1(ra)
    2e10:	ffffffff 	sdc3	$31,-1(ra)
    2e14:	ffffffff 	sdc3	$31,-1(ra)
    2e18:	ffffffff 	sdc3	$31,-1(ra)
    2e1c:	ffffffff 	sdc3	$31,-1(ra)
    2e20:	ffffffff 	sdc3	$31,-1(ra)
    2e24:	ffffffff 	sdc3	$31,-1(ra)
    2e28:	ffffffff 	sdc3	$31,-1(ra)
    2e2c:	ffffffff 	sdc3	$31,-1(ra)
    2e30:	ffffffff 	sdc3	$31,-1(ra)
    2e34:	ffffffff 	sdc3	$31,-1(ra)
    2e38:	ffffffff 	sdc3	$31,-1(ra)
    2e3c:	ffffffff 	sdc3	$31,-1(ra)
    2e40:	ffffffff 	sdc3	$31,-1(ra)
    2e44:	ffffffff 	sdc3	$31,-1(ra)
    2e48:	ffffffff 	sdc3	$31,-1(ra)
    2e4c:	ffffffff 	sdc3	$31,-1(ra)
    2e50:	ffffffff 	sdc3	$31,-1(ra)
    2e54:	ffffffff 	sdc3	$31,-1(ra)
    2e58:	ffffffff 	sdc3	$31,-1(ra)
    2e5c:	ffffffff 	sdc3	$31,-1(ra)
    2e60:	ffffffff 	sdc3	$31,-1(ra)
    2e64:	ffffffff 	sdc3	$31,-1(ra)
    2e68:	ffffffff 	sdc3	$31,-1(ra)
    2e6c:	ffffffff 	sdc3	$31,-1(ra)
    2e70:	ffffffff 	sdc3	$31,-1(ra)
    2e74:	ffffffff 	sdc3	$31,-1(ra)
    2e78:	ffffffff 	sdc3	$31,-1(ra)
    2e7c:	ffffffff 	sdc3	$31,-1(ra)
    2e80:	ffffffff 	sdc3	$31,-1(ra)
    2e84:	ffffffff 	sdc3	$31,-1(ra)
    2e88:	ffffffff 	sdc3	$31,-1(ra)
    2e8c:	ffffffff 	sdc3	$31,-1(ra)
    2e90:	ffffffff 	sdc3	$31,-1(ra)
    2e94:	ffffffff 	sdc3	$31,-1(ra)
    2e98:	ffffffff 	sdc3	$31,-1(ra)
    2e9c:	ffffffff 	sdc3	$31,-1(ra)
    2ea0:	ffffffff 	sdc3	$31,-1(ra)
    2ea4:	ffffffff 	sdc3	$31,-1(ra)
    2ea8:	ffffffff 	sdc3	$31,-1(ra)
    2eac:	ffffffff 	sdc3	$31,-1(ra)
    2eb0:	ffffffff 	sdc3	$31,-1(ra)
    2eb4:	ffffffff 	sdc3	$31,-1(ra)
    2eb8:	ffffffff 	sdc3	$31,-1(ra)
    2ebc:	ffffffff 	sdc3	$31,-1(ra)
    2ec0:	ffffffff 	sdc3	$31,-1(ra)
    2ec4:	ffffffff 	sdc3	$31,-1(ra)
    2ec8:	ffffffff 	sdc3	$31,-1(ra)
    2ecc:	ffffffff 	sdc3	$31,-1(ra)
    2ed0:	ffffffff 	sdc3	$31,-1(ra)
    2ed4:	ffffffff 	sdc3	$31,-1(ra)
    2ed8:	ffffffff 	sdc3	$31,-1(ra)
    2edc:	ffffffff 	sdc3	$31,-1(ra)
    2ee0:	ffffffff 	sdc3	$31,-1(ra)
    2ee4:	ffffffff 	sdc3	$31,-1(ra)
    2ee8:	ffffffff 	sdc3	$31,-1(ra)
    2eec:	ffffffff 	sdc3	$31,-1(ra)
    2ef0:	ffffffff 	sdc3	$31,-1(ra)
    2ef4:	ffffffff 	sdc3	$31,-1(ra)
    2ef8:	ffffffff 	sdc3	$31,-1(ra)
    2efc:	ffffffff 	sdc3	$31,-1(ra)
    2f00:	ffffffff 	sdc3	$31,-1(ra)
    2f04:	ffffffff 	sdc3	$31,-1(ra)
    2f08:	ffffffff 	sdc3	$31,-1(ra)
    2f0c:	ffffffff 	sdc3	$31,-1(ra)
    2f10:	ffffffff 	sdc3	$31,-1(ra)
    2f14:	ffffffff 	sdc3	$31,-1(ra)
    2f18:	ffffffff 	sdc3	$31,-1(ra)
    2f1c:	ffffffff 	sdc3	$31,-1(ra)
    2f20:	ffffffff 	sdc3	$31,-1(ra)
    2f24:	ffffffff 	sdc3	$31,-1(ra)
    2f28:	ffffffff 	sdc3	$31,-1(ra)
    2f2c:	ffffffff 	sdc3	$31,-1(ra)
    2f30:	ffffffff 	sdc3	$31,-1(ra)
    2f34:	ffffffff 	sdc3	$31,-1(ra)
    2f38:	ffffffff 	sdc3	$31,-1(ra)
    2f3c:	ffffffff 	sdc3	$31,-1(ra)
    2f40:	ffffffff 	sdc3	$31,-1(ra)
    2f44:	ffffffff 	sdc3	$31,-1(ra)
    2f48:	ffffffff 	sdc3	$31,-1(ra)
    2f4c:	ffffffff 	sdc3	$31,-1(ra)
    2f50:	ffffffff 	sdc3	$31,-1(ra)
    2f54:	ffffffff 	sdc3	$31,-1(ra)
    2f58:	ffffffff 	sdc3	$31,-1(ra)
    2f5c:	ffffffff 	sdc3	$31,-1(ra)
    2f60:	ffffffff 	sdc3	$31,-1(ra)
    2f64:	ffffffff 	sdc3	$31,-1(ra)
    2f68:	ffffffff 	sdc3	$31,-1(ra)
    2f6c:	ffffffff 	sdc3	$31,-1(ra)
    2f70:	ffffffff 	sdc3	$31,-1(ra)
    2f74:	ffffffff 	sdc3	$31,-1(ra)
    2f78:	ffffffff 	sdc3	$31,-1(ra)
    2f7c:	ffffffff 	sdc3	$31,-1(ra)
    2f80:	ffffffff 	sdc3	$31,-1(ra)
    2f84:	ffffffff 	sdc3	$31,-1(ra)
    2f88:	ffffffff 	sdc3	$31,-1(ra)
    2f8c:	ffffffff 	sdc3	$31,-1(ra)
    2f90:	ffffffff 	sdc3	$31,-1(ra)
    2f94:	ffffffff 	sdc3	$31,-1(ra)
    2f98:	ffffffff 	sdc3	$31,-1(ra)
    2f9c:	ffffffff 	sdc3	$31,-1(ra)
    2fa0:	ffffffff 	sdc3	$31,-1(ra)
    2fa4:	ffffffff 	sdc3	$31,-1(ra)
    2fa8:	ffffffff 	sdc3	$31,-1(ra)
    2fac:	ffffffff 	sdc3	$31,-1(ra)
    2fb0:	ffffffff 	sdc3	$31,-1(ra)
    2fb4:	ffffffff 	sdc3	$31,-1(ra)
    2fb8:	ffffffff 	sdc3	$31,-1(ra)
    2fbc:	ffffffff 	sdc3	$31,-1(ra)
    2fc0:	ffffffff 	sdc3	$31,-1(ra)
    2fc4:	ffffffff 	sdc3	$31,-1(ra)
    2fc8:	ffffffff 	sdc3	$31,-1(ra)
    2fcc:	ffffffff 	sdc3	$31,-1(ra)
    2fd0:	ffffffff 	sdc3	$31,-1(ra)
    2fd4:	ffffffff 	sdc3	$31,-1(ra)
    2fd8:	ffffffff 	sdc3	$31,-1(ra)
    2fdc:	ffffffff 	sdc3	$31,-1(ra)
    2fe0:	ffffffff 	sdc3	$31,-1(ra)
    2fe4:	ffffffff 	sdc3	$31,-1(ra)
    2fe8:	ffffffff 	sdc3	$31,-1(ra)
    2fec:	ffffffff 	sdc3	$31,-1(ra)
    2ff0:	ffffffff 	sdc3	$31,-1(ra)
    2ff4:	ffffffff 	sdc3	$31,-1(ra)
    2ff8:	ffffffff 	sdc3	$31,-1(ra)
    2ffc:	ffffffff 	sdc3	$31,-1(ra)
