00000000  skipping 0x3 bytes

00000003  EB3C              jmp short 0x41

00000005  0000              add [bx+si],al
00000007  284329            sub [bp+di+0x29],al
0000000A  4D                dec bp
0000000B  2D5379            sub ax,0x7953
0000000E  7374              jnc 0x84
00000010  656D              gs insw
00000012  7331              jnc 0x45
00000014  3939              cmp [bx+di],di
00000016  3800              cmp [bx+si],al
00000018  0000              add [bx+si],al
0000001A  2100              and [bx+si],ax
0000001C  0004              add [si],al
0000001E  001C              add [si],bl
00000020  55                push bp
00000021  2450              and al,0x50
00000023  6E                outsb
00000024  50                push ax
00000025  0102              add [bp+si],ax
00000027  0000              add [bx+si],al
00000029  001E6D1A          add [0x1a6d],bl
0000002D  0110              add [bx+si],dx
0000002F  0000              add [bx+si],al
00000031  0000              add [bx+si],al
00000033  00800194          add [bx+si+0x9401],al
00000037  0000              add [bx+si],al
00000039  0000              add [bx+si],al
0000003B  0000              add [bx+si],al
0000003D  0000              add [bx+si],al
0000003F  0000              add [bx+si],al

00000041  9C                pushf
00000042  50                push ax
00000043  53                push bx
00000044  51                push cx
00000045  52                push dx
00000046  56                push si
00000047  57                push di
00000048  55                push bp
00000049  1E                push ds
0000004A  06                push es
0000004B  BAC01F            mov dx,0x1fc0
0000004E  33C0              xor ax,ax
00000050  8EC0              mov es,ax
00000052  33FF              xor di,di
00000054  83C240            add dx,byte +0x40
00000057  8EDA              mov ds,dx
00000059  81FA00A0          cmp dx,0xa000
0000005D  741A              jz 0x79
0000005F  33F6              xor si,si
00000061  B90002            mov cx,0x200
00000064  FC                cld
00000065  AD                lodsw
00000066  0BC0              or ax,ax
00000068  75E8              jnz 0x52
0000006A  E2F9              loop 0x65
0000006C  83FF00            cmp di,byte +0x0
0000006F  7502              jnz 0x73
00000071  1E                push ds
00000072  07                pop es
00000073  47                inc di
00000074  83FF30            cmp di,byte +0x30
00000077  72DB              jc 0x54

00000079  83FF30            cmp di,byte +0x30
0000007C  7305              jnc 0x83

0000007E  BA0058            mov dx,0x5800
00000081  8EC2              mov es,dx

00000083  0E                push cs
00000084  1F                pop ds
00000085  8BEC              mov bp,sp
00000087  83EC04            sub sp,byte +0x4
0000008A  8CC0              mov ax,es
0000008C  8C46FE            mov [bp-0x2],es
0000008F  C746FCAB00        mov word [bp-0x4],0xab
00000094  0E                push cs
00000095  E81300            call 0xab
00000098  8B46FE            mov ax,[bp-0x2]
0000009B  8EC0              mov es,ax
0000009D  33FF              xor di,di
0000009F  B90060            mov cx,0x6000
000000A2  33C0              xor ax,ax
000000A4  FC                cld
000000A5  F3AB              rep stosw
000000A7  8BE5              mov sp,bp
000000A9  EB74              jmp short 0x11f

000000AB  55                push bp
000000AC  8BEC              mov bp,sp
000000AE  8B4604            mov ax,[bp+0x4]
000000B1  8ED8              mov ds,ax
000000B3  BB0000            mov bx,0x0
000000B6  C687031000        mov byte [bx+0x1003],0x0
000000BB  C687021085        mov byte [bx+0x1002],0x85
000000C0  C687021085        mov byte [bx+0x1002],0x85
000000C5  BE0008            mov si,0x800
000000C8  B1FF              mov cl,0xff
000000CA  E85D00            call 0x12a
000000CD  FC                cld
000000CE  32E4              xor ah,ah
000000D0  B100              mov cl,0x0
000000D2  E85500            call 0x12a
000000D5  2E8B0E1E00        mov cx,[cs:0x1e]
000000DA  33FF              xor di,di
000000DC  F7C1FF01          test cx,0x1ff
000000E0  7523              jnz 0x105
000000E2  C68704100D        mov byte [bx+0x1004],0xd
000000E7  2E8B161C00        mov dx,[cs:0x1c]
000000EC  03D7              add dx,di
000000EE  D0EE              shr dh,1
000000F0  8814              mov [si],dl
000000F2  8834              mov [si],dh
000000F4  33D2              xor dx,dx
000000F6  8814              mov [si],dl
000000F8  C6871E1000        mov byte [bx+0x101e],0x0
000000FD  C687041009        mov byte [bx+0x1004],0x9
00000102  E83600            call 0x13b

00000105  84870D10          test [bx+0x100d],al
00000109  AC                lodsb
0000010A  02E0              add ah,al
0000010C  AA                stosb
0000010D  4E                dec si
0000010E  E2CC              loop 0xdc
00000110  2E3A262000        cmp ah,[cs:0x20]
00000115  7506              jnz 0x11d

00000117  5D                pop bp
00000118  06                push es
00000119  33C0              xor ax,ax
0000011B  50                push ax
0000011C  CB                retf

0000011D  5D                pop bp
0000011E  CB                retf

0000011F  07                pop es
00000120  1F                pop ds
00000121  5D                pop bp
00000122  5F                pop di
00000123  5E                pop si
00000124  5A                pop dx
00000125  59                pop cx
00000126  5B                pop bx
00000127  58                pop ax
00000128  9D                popf
00000129  CB                retf

0000012A  C68704100B        mov byte [bx+0x1004],0xb
0000012F  880C              mov [si],cl
00000131  C6871E1000        mov byte [bx+0x101e],0x0
00000136  C687041009        mov byte [bx+0x1004],0x9
0000013B  F687201080        test byte [bx+0x1020],0x80
00000140  F687201080        test byte [bx+0x1020],0x80
00000145  F687201080        test byte [bx+0x1020],0x80
0000014A  F687201080        test byte [bx+0x1020],0x80
0000014F  F687041080        test byte [bx+0x1004],0x80
00000154  74F9              jz 0x14f
00000156  F687201080        test byte [bx+0x1020],0x80
0000015B  F687201080        test byte [bx+0x1020],0x80
00000160  C3                ret

00000161  1C00              sbb al,0x0
00000163  0000              add [bx+si],al
00000165  0000              add [bx+si],al
00000167  0000              add [bx+si],al
00000169  0000              add [bx+si],al
0000016B  0000              add [bx+si],al
0000016D  0000              add [bx+si],al
0000016F  0000              add [bx+si],al
00000171  0000              add [bx+si],al
00000173  0000              add [bx+si],al
00000175  0000              add [bx+si],al
00000177  0000              add [bx+si],al
00000179  0000              add [bx+si],al
0000017B  0000              add [bx+si],al
0000017D  0000              add [bx+si],al
0000017F  0000              add [bx+si],al
00000181  0000              add [bx+si],al
00000183  0000              add [bx+si],al
00000185  0000              add [bx+si],al
00000187  0000              add [bx+si],al
00000189  0000              add [bx+si],al
0000018B  0000              add [bx+si],al
0000018D  0000              add [bx+si],al
0000018F  0000              add [bx+si],al
00000191  0000              add [bx+si],al
00000193  0000              add [bx+si],al
00000195  0000              add [bx+si],al
00000197  0000              add [bx+si],al
00000199  0000              add [bx+si],al
0000019B  0000              add [bx+si],al
0000019D  0000              add [bx+si],al
0000019F  0000              add [bx+si],al
000001A1  0000              add [bx+si],al
000001A3  0000              add [bx+si],al
000001A5  0000              add [bx+si],al
000001A7  0000              add [bx+si],al
000001A9  0000              add [bx+si],al
000001AB  0000              add [bx+si],al
000001AD  0000              add [bx+si],al
000001AF  0000              add [bx+si],al
000001B1  0000              add [bx+si],al
000001B3  0000              add [bx+si],al
000001B5  0000              add [bx+si],al
000001B7  0000              add [bx+si],al
000001B9  0000              add [bx+si],al
000001BB  0000              add [bx+si],al
000001BD  0000              add [bx+si],al
000001BF  0000              add [bx+si],al
000001C1  0000              add [bx+si],al
000001C3  0000              add [bx+si],al
000001C5  0000              add [bx+si],al
000001C7  0000              add [bx+si],al
000001C9  0000              add [bx+si],al
000001CB  0000              add [bx+si],al
000001CD  0000              add [bx+si],al
000001CF  0000              add [bx+si],al
000001D1  0000              add [bx+si],al
000001D3  0000              add [bx+si],al
000001D5  0000              add [bx+si],al
000001D7  0000              add [bx+si],al
000001D9  0000              add [bx+si],al
000001DB  0000              add [bx+si],al
000001DD  0000              add [bx+si],al
000001DF  0000              add [bx+si],al
000001E1  0000              add [bx+si],al
000001E3  0000              add [bx+si],al
000001E5  0000              add [bx+si],al
000001E7  0000              add [bx+si],al
000001E9  0000              add [bx+si],al
000001EB  0000              add [bx+si],al
000001ED  0000              add [bx+si],al
000001EF  0000              add [bx+si],al
000001F1  0000              add [bx+si],al
000001F3  0000              add [bx+si],al
000001F5  0000              add [bx+si],al
000001F7  0000              add [bx+si],al
000001F9  0000              add [bx+si],al
000001FB  0000              add [bx+si],al
000001FD  0000              add [bx+si],al
000001FF  0055AA            add [di-0x56],dl
00000202  10EB              adc bl,ch
00000204  3C00              cmp al,0x0
00000206  0028              add [bx+si],ch
00000208  43                inc bx
00000209  294D2D            sub [di+0x2d],cx
0000020C  53                push bx
0000020D  7973              jns 0x282
0000020F  7465              jz 0x276
00000211  6D                insw
00000212  7331              jnc 0x245
00000214  3939              cmp [bx+di],di
00000216  3800              cmp [bx+si],al
00000218  0000              add [bx+si],al
0000021A  2100              and [bx+si],ax
0000021C  0004              add [si],al
0000021E  001C              add [si],bl
00000220  55                push bp
00000221  2450              and al,0x50
00000223  6E                outsb
00000224  50                push ax
00000225  0102              add [bp+si],ax
00000227  0000              add [bx+si],al
00000229  001E6D1A          add [0x1a6d],bl
0000022D  0110              add [bx+si],dx
0000022F  0000              add [bx+si],al
00000231  0000              add [bx+si],al
00000233  00800194          add [bx+si+0x9401],al
00000237  0000              add [bx+si],al
00000239  0000              add [bx+si],al
0000023B  0000              add [bx+si],al
0000023D  0000              add [bx+si],al
0000023F  0000              add [bx+si],al
00000241  9C                pushf
00000242  50                push ax
00000243  53                push bx
00000244  51                push cx
00000245  52                push dx
00000246  56                push si
00000247  57                push di
00000248  55                push bp
00000249  1E                push ds
0000024A  06                push es
0000024B  BAC01F            mov dx,0x1fc0
0000024E  33C0              xor ax,ax
00000250  8EC0              mov es,ax
00000252  33FF              xor di,di
00000254  83C240            add dx,byte +0x40
00000257  8EDA              mov ds,dx
00000259  81FA00A0          cmp dx,0xa000
0000025D  741A              jz 0x279
0000025F  33F6              xor si,si
00000261  B90002            mov cx,0x200
00000264  FC                cld
00000265  AD                lodsw
00000266  0BC0              or ax,ax
00000268  75E8              jnz 0x252
0000026A  E2F9              loop 0x265
0000026C  83FF00            cmp di,byte +0x0
0000026F  7502              jnz 0x273
00000271  1E                push ds
00000272  07                pop es
00000273  47                inc di
00000274  83FF30            cmp di,byte +0x30
00000277  72DB              jc 0x254
00000279  83FF30            cmp di,byte +0x30
0000027C  7305              jnc 0x283
0000027E  BA0058            mov dx,0x5800
00000281  8EC2              mov es,dx
00000283  0E                push cs
00000284  1F                pop ds
00000285  8BEC              mov bp,sp
00000287  83EC04            sub sp,byte +0x4
0000028A  8CC0              mov ax,es
0000028C  8C46FE            mov [bp-0x2],es
0000028F  C746FCAB00        mov word [bp-0x4],0xab
00000294  0E                push cs
00000295  E81300            call 0x2ab
00000298  8B46FE            mov ax,[bp-0x2]
0000029B  8EC0              mov es,ax
0000029D  33FF              xor di,di
0000029F  B90060            mov cx,0x6000
000002A2  33C0              xor ax,ax
000002A4  FC                cld
000002A5  F3AB              rep stosw
000002A7  8BE5              mov sp,bp
000002A9  EB74              jmp short 0x31f
000002AB  55                push bp
000002AC  8BEC              mov bp,sp
000002AE  8B4604            mov ax,[bp+0x4]
000002B1  8ED8              mov ds,ax
000002B3  BB0000            mov bx,0x0
000002B6  C687031000        mov byte [bx+0x1003],0x0
000002BB  C687021085        mov byte [bx+0x1002],0x85
000002C0  C687021085        mov byte [bx+0x1002],0x85
000002C5  BE0008            mov si,0x800
000002C8  B1FF              mov cl,0xff
000002CA  E85D00            call 0x32a
000002CD  FC                cld
000002CE  32E4              xor ah,ah
000002D0  B100              mov cl,0x0
000002D2  E85500            call 0x32a
000002D5  2E8B0E1E00        mov cx,[cs:0x1e]
000002DA  33FF              xor di,di
000002DC  F7C1FF01          test cx,0x1ff
000002E0  7523              jnz 0x305
000002E2  C68704100D        mov byte [bx+0x1004],0xd
000002E7  2E8B161C00        mov dx,[cs:0x1c]
000002EC  03D7              add dx,di
000002EE  D0EE              shr dh,1
000002F0  8814              mov [si],dl
000002F2  8834              mov [si],dh
000002F4  33D2              xor dx,dx
000002F6  8814              mov [si],dl
000002F8  C6871E1000        mov byte [bx+0x101e],0x0
000002FD  C687041009        mov byte [bx+0x1004],0x9
00000302  E83600            call 0x33b
00000305  84870D10          test [bx+0x100d],al
00000309  AC                lodsb
0000030A  02E0              add ah,al
0000030C  AA                stosb
0000030D  4E                dec si
0000030E  E2CC              loop 0x2dc
00000310  2E3A262000        cmp ah,[cs:0x20]
00000315  7506              jnz 0x31d
00000317  5D                pop bp
00000318  06                push es
00000319  33C0              xor ax,ax
0000031B  50                push ax
0000031C  CB                retf
0000031D  5D                pop bp
0000031E  CB                retf
0000031F  07                pop es
00000320  1F                pop ds
00000321  5D                pop bp
00000322  5F                pop di
00000323  5E                pop si
00000324  5A                pop dx
00000325  59                pop cx
00000326  5B                pop bx
00000327  58                pop ax
00000328  9D                popf
00000329  CB                retf
0000032A  C68704100B        mov byte [bx+0x1004],0xb
0000032F  880C              mov [si],cl
00000331  C6871E1000        mov byte [bx+0x101e],0x0
00000336  C687041009        mov byte [bx+0x1004],0x9
0000033B  F687201080        test byte [bx+0x1020],0x80
00000340  F687201080        test byte [bx+0x1020],0x80
00000345  F687201080        test byte [bx+0x1020],0x80
0000034A  F687201080        test byte [bx+0x1020],0x80
0000034F  F687041080        test byte [bx+0x1004],0x80
00000354  74F9              jz 0x34f
00000356  F687201080        test byte [bx+0x1020],0x80
0000035B  F687201080        test byte [bx+0x1020],0x80
00000360  C3                ret
00000361  1C00              sbb al,0x0
00000363  0000              add [bx+si],al
00000365  0000              add [bx+si],al
00000367  0000              add [bx+si],al
00000369  0000              add [bx+si],al
0000036B  0000              add [bx+si],al
0000036D  0000              add [bx+si],al
0000036F  0000              add [bx+si],al
00000371  0000              add [bx+si],al
00000373  0000              add [bx+si],al
00000375  0000              add [bx+si],al
00000377  0000              add [bx+si],al
00000379  0000              add [bx+si],al
0000037B  0000              add [bx+si],al
0000037D  0000              add [bx+si],al
0000037F  0000              add [bx+si],al
00000381  0000              add [bx+si],al
00000383  0000              add [bx+si],al
00000385  0000              add [bx+si],al
00000387  0000              add [bx+si],al
00000389  0000              add [bx+si],al
0000038B  0000              add [bx+si],al
0000038D  0000              add [bx+si],al
0000038F  0000              add [bx+si],al
00000391  0000              add [bx+si],al
00000393  0000              add [bx+si],al
00000395  0000              add [bx+si],al
00000397  0000              add [bx+si],al
00000399  0000              add [bx+si],al
0000039B  0000              add [bx+si],al
0000039D  0000              add [bx+si],al
0000039F  0000              add [bx+si],al
000003A1  0000              add [bx+si],al
000003A3  0000              add [bx+si],al
000003A5  0000              add [bx+si],al
000003A7  0000              add [bx+si],al
000003A9  0000              add [bx+si],al
000003AB  0000              add [bx+si],al
000003AD  0000              add [bx+si],al
000003AF  0000              add [bx+si],al
000003B1  0000              add [bx+si],al
000003B3  0000              add [bx+si],al
000003B5  0000              add [bx+si],al
000003B7  0000              add [bx+si],al
000003B9  0000              add [bx+si],al
000003BB  0000              add [bx+si],al
000003BD  0000              add [bx+si],al
000003BF  0000              add [bx+si],al
000003C1  0000              add [bx+si],al
000003C3  0000              add [bx+si],al
000003C5  0000              add [bx+si],al
000003C7  0000              add [bx+si],al
000003C9  0000              add [bx+si],al
000003CB  0000              add [bx+si],al
000003CD  0000              add [bx+si],al
000003CF  0000              add [bx+si],al
000003D1  0000              add [bx+si],al
000003D3  0000              add [bx+si],al
000003D5  0000              add [bx+si],al
000003D7  0000              add [bx+si],al
000003D9  0000              add [bx+si],al
000003DB  0000              add [bx+si],al
000003DD  0000              add [bx+si],al
000003DF  0000              add [bx+si],al
000003E1  0000              add [bx+si],al
000003E3  0000              add [bx+si],al
000003E5  0000              add [bx+si],al
000003E7  0000              add [bx+si],al
000003E9  0000              add [bx+si],al
000003EB  0000              add [bx+si],al
000003ED  0000              add [bx+si],al
000003EF  0000              add [bx+si],al
000003F1  0000              add [bx+si],al
000003F3  0000              add [bx+si],al
000003F5  0000              add [bx+si],al
000003F7  0000              add [bx+si],al
000003F9  0000              add [bx+si],al
000003FB  0000              add [bx+si],al
000003FD  0000              add [bx+si],al
000003FF  00EB              add bl,ch
00000401  2D55AA            sub ax,0xaa55
00000404  1000              adc [bx+si],al
00000406  0000              add [bx+si],al
00000408  0000              add [bx+si],al
0000040A  0402              add al,0x2
0000040C  53                push bx
0000040D  50                push ax
0000040E  4C                dec sp
0000040F  5F                pop di
00000410  44                inc sp
00000411  69736B4F6E        imul si,[bp+di+0x6b],word 0x6e4f
00000416  43                inc bx
00000417  686970            push word 0x7069
0000041A  2028              and [bx+si],ch
0000041C  6329              arpl [bx+di],bp
0000041E  204D2D            and [di+0x2d],cl
00000421  53                push bx
00000422  7973              jns 0x497
00000424  7465              jz 0x48b
00000426  6D                insw
00000427  7300              jnc 0x429
00000429  0000              add [bx+si],al
0000042B  0020              add [bx+si],ah
0000042D  0000              add [bx+si],al
0000042F  55                push bp
00000430  8BEC              mov bp,sp
00000432  50                push ax
00000433  53                push bx
00000434  51                push cx
00000435  52                push dx
00000436  56                push si
00000437  57                push di
00000438  1E                push ds
00000439  06                push es
0000043A  9C                pushf
0000043B  0E                push cs
0000043C  1F                pop ds
0000043D  2EA12900          mov ax,[cs:0x29]
00000441  3D0000            cmp ax,0x0
00000444  7503              jnz 0x449
00000446  8B4604            mov ax,[bp+0x4]
00000449  A3BC16            mov [0x16bc],ax
0000044C  2EA12B00          mov ax,[cs:0x2b]
00000450  A3BE16            mov [0x16be],ax
00000453  2EA12D00          mov ax,[cs:0x2d]
00000457  A3C016            mov [0x16c0],ax
0000045A  8C16C216          mov [0x16c2],ss
0000045E  8926C416          mov [0x16c4],sp
00000462  8CC8              mov ax,cs
00000464  BB2E17            mov bx,0x172e
00000467  81C30002          add bx,0x200
0000046B  FA                cli
0000046C  8ED0              mov ss,ax
0000046E  8BE3              mov sp,bx
00000470  FB                sti
00000471  D1EB              shr bx,1
00000473  D1EB              shr bx,1
00000475  D1EB              shr bx,1
00000477  D1EB              shr bx,1
00000479  83C301            add bx,byte +0x1
0000047C  8CC8              mov ax,cs
0000047E  03C3              add ax,bx
00000480  A3B816            mov [0x16b8],ax
00000483  8CD8              mov ax,ds
00000485  8EC0              mov es,ax
00000487  33C0              xor ax,ax
00000489  BF2417            mov di,0x1724
0000048C  B92E17            mov cx,0x172e
0000048F  2BCF              sub cx,di
00000491  FC                cld
00000492  F3AA              rep stosb
00000494  E81400            call 0x4ab
00000497  FA                cli
00000498  8E16C216          mov ss,[0x16c2]
0000049C  8B26C416          mov sp,[0x16c4]
000004A0  9D                popf
000004A1  07                pop es
000004A2  1F                pop ds
000004A3  5F                pop di
000004A4  5E                pop si
000004A5  5A                pop dx
000004A6  59                pop cx
000004A7  5B                pop bx
000004A8  58                pop ax
000004A9  5D                pop bp
000004AA  CB                retf
000004AB  55                push bp
000004AC  8BEC              mov bp,sp
000004AE  83EC1C            sub sp,byte +0x1c
000004B1  A1C016            mov ax,[0x16c0]
000004B4  8B16BE16          mov dx,[0x16be]
000004B8  8946F8            mov [bp-0x8],ax
000004BB  8956F6            mov [bp-0xa],dx
000004BE  8D46E6            lea ax,[bp-0x1a]
000004C1  50                push ax
000004C2  E8DC15            call 0x1aa1
000004C5  59                pop cx
000004C6  8E46E8            mov es,[bp-0x18]
000004C9  26A10700          mov ax,[es:0x7]
000004CD  8946FA            mov [bp-0x6],ax
000004D0  E8B100            call 0x584
000004D3  0BC0              or ax,ax
000004D5  7403              jz 0x4da
000004D7  E9A600            jmp 0x580
000004DA  B000              mov al,0x0
000004DC  50                push ax
000004DD  50                push ax
000004DE  E80804            call 0x8e9
000004E1  59                pop cx
000004E2  59                pop cx
000004E3  0BC0              or ax,ax
000004E5  7403              jz 0x4ea
000004E7  E99600            jmp 0x580
000004EA  B80400            mov ax,0x4
000004ED  50                push ax
000004EE  1E                push ds
000004EF  B8C616            mov ax,0x16c6
000004F2  50                push ax
000004F3  1E                push ds
000004F4  B8D616            mov ax,0x16d6
000004F7  50                push ax
000004F8  E88203            call 0x87d
000004FB  83C40A            add sp,byte +0xa
000004FE  E8E302            call 0x7e4
00000501  0BC0              or ax,ax
00000503  757B              jnz 0x580
00000505  E89202            call 0x79a
00000508  83FA01            cmp dx,byte +0x1
0000050B  770B              ja 0x518
0000050D  7204              jc 0x513
0000050F  0BC0              or ax,ax
00000511  7305              jnc 0x518
00000513  E88402            call 0x79a
00000516  EB05              jmp short 0x51d
00000518  BA0100            mov dx,0x1
0000051B  33C0              xor ax,ax
0000051D  8B5EF8            mov bx,[bp-0x8]
00000520  8B4EF6            mov cx,[bp-0xa]
00000523  03C8              add cx,ax
00000525  13DA              adc bx,dx
00000527  895EF0            mov [bp-0x10],bx
0000052A  894EEE            mov [bp-0x12],cx
0000052D  A1B816            mov ax,[0x16b8]
00000530  8B16B616          mov dx,[0x16b6]
00000534  83C203            add dx,byte +0x3
00000537  8946FE            mov [bp-0x2],ax
0000053A  8956FC            mov [bp-0x4],dx
0000053D  8B46F8            mov ax,[bp-0x8]
00000540  8B56F6            mov dx,[bp-0xa]
00000543  8946F4            mov [bp-0xc],ax
00000546  8956F2            mov [bp-0xe],dx
00000549  EB23              jmp short 0x56e
0000054B  8D46F2            lea ax,[bp-0xe]
0000054E  50                push ax
0000054F  E8A300            call 0x5f5
00000552  59                pop cx
00000553  8946E4            mov [bp-0x1c],ax
00000556  0BC0              or ax,ax
00000558  7407              jz 0x561
0000055A  3D1500            cmp ax,0x15
0000055D  7421              jz 0x580
0000055F  EB0D              jmp short 0x56e
00000561  A1BC16            mov ax,[0x16bc]
00000564  8B4EFA            mov cx,[bp-0x6]
00000567  8B162417          mov dx,[0x1724]
0000056B  FF5EFC            call far [bp-0x4]
0000056E  8B46F4            mov ax,[bp-0xc]
00000571  8B56F2            mov dx,[bp-0xe]
00000574  3B46F0            cmp ax,[bp-0x10]
00000577  72D2              jc 0x54b
00000579  7505              jnz 0x580
0000057B  3B56EE            cmp dx,[bp-0x12]
0000057E  72CB              jc 0x54b
00000580  8BE5              mov sp,bp
00000582  5D                pop bp
00000583  C3                ret
00000584  55                push bp
00000585  8BEC              mov bp,sp
00000587  83EC0C            sub sp,byte +0xc
0000058A  8D46F4            lea ax,[bp-0xc]
0000058D  50                push ax
0000058E  E81015            call 0x1aa1
00000591  59                pop cx
00000592  8E46F6            mov es,[bp-0xa]
00000595  26A10500          mov ax,[es:0x5]
00000599  A32417            mov [0x1724],ax
0000059C  33C0              xor ax,ax
0000059E  8EC0              mov es,ax
000005A0  268B161304        mov dx,[es:0x413]
000005A5  B106              mov cl,0x6
000005A7  D3E2              shl dx,cl
000005A9  EB3E              jmp short 0x5e9
000005AB  8956FE            mov [bp-0x2],dx
000005AE  C746FC0000        mov word [bp-0x4],0x0
000005B3  C45EFC            les bx,[bp-0x4]
000005B6  26813F55AA        cmp word [es:bx],0xaa55
000005BB  752B              jnz 0x5e8
000005BD  26807F0654        cmp byte [es:bx+0x6],0x54
000005C2  7524              jnz 0x5e8
000005C4  26807F0746        cmp byte [es:bx+0x7],0x46
000005C9  751D              jnz 0x5e8
000005CB  26807F0846        cmp byte [es:bx+0x8],0x46
000005D0  7516              jnz 0x5e8
000005D2  26807F0953        cmp byte [es:bx+0x9],0x53
000005D7  750F              jnz 0x5e8
000005D9  268B4710          mov ax,[es:bx+0x10]
000005DD  3B062417          cmp ax,[0x1724]
000005E1  7505              jnz 0x5e8
000005E3  B80100            mov ax,0x1
000005E6  EB09              jmp short 0x5f1
000005E8  42                inc dx
000005E9  81FA00A0          cmp dx,0xa000
000005ED  72BC              jc 0x5ab
000005EF  33C0              xor ax,ax
000005F1  8BE5              mov sp,bp
000005F3  5D                pop bp
000005F4  C3                ret
000005F5  55                push bp
000005F6  8BEC              mov bp,sp
000005F8  83EC0C            sub sp,byte +0xc
000005FB  56                push si
000005FC  57                push di
000005FD  8B7604            mov si,[bp+0x4]
00000600  C646F500          mov byte [bp-0xb],0x0
00000604  A1B816            mov ax,[0x16b8]
00000607  8B16B616          mov dx,[0x16b6]
0000060B  8946FC            mov [bp-0x4],ax
0000060E  8956FA            mov [bp-0x6],dx
00000611  33C0              xor ax,ax
00000613  50                push ax
00000614  FF36E816          push word [0x16e8]
00000618  FF7402            push word [si+0x2]
0000061B  FF34              push word [si]
0000061D  E89113            call 0x19b1
00000620  0BC2              or ax,dx
00000622  7544              jnz 0x668
00000624  B80400            mov ax,0x4
00000627  50                push ax
00000628  16                push ss
00000629  8D46F6            lea ax,[bp-0xa]
0000062C  50                push ax
0000062D  8B4402            mov ax,[si+0x2]
00000630  8B14              mov dx,[si]
00000632  0316D416          add dx,[0x16d4]
00000636  150000            adc ax,0x0
00000639  50                push ax
0000063A  52                push dx
0000063B  E8A209            call 0xfe0
0000063E  83C40A            add sp,byte +0xa
00000641  B80400            mov ax,0x4
00000644  50                push ax
00000645  1E                push ds
00000646  B8D616            mov ax,0x16d6
00000649  50                push ax
0000064A  16                push ss
0000064B  8D46F6            lea ax,[bp-0xa]
0000064E  50                push ax
0000064F  E84E02            call 0x8a0
00000652  83C40A            add sp,byte +0xa
00000655  0BC0              or ax,ax
00000657  740F              jz 0x668
00000659  A1E816            mov ax,[0x16e8]
0000065C  0104              add [si],ax
0000065E  83540200          adc word [si+0x2],byte +0x0
00000662  B81B00            mov ax,0x1b
00000665  E92C01            jmp 0x794
00000668  FF36D216          push word [0x16d2]
0000066C  8D46F5            lea ax,[bp-0xb]
0000066F  50                push ax
00000670  B80002            mov ax,0x200
00000673  50                push ax
00000674  FF76FC            push word [bp-0x4]
00000677  FF76FA            push word [bp-0x6]
0000067A  FF7402            push word [si+0x2]
0000067D  FF34              push word [si]
0000067F  E85807            call 0xdda
00000682  83C40E            add sp,byte +0xe
00000685  8BD0              mov dx,ax
00000687  0BD2              or dx,dx
00000689  740C              jz 0x697
0000068B  A1E816            mov ax,[0x16e8]
0000068E  0104              add [si],ax
00000690  83540200          adc word [si+0x2],byte +0x0
00000694  E9BB00            jmp 0x752
00000697  81040002          add word [si],0x200
0000069B  83540200          adc word [si+0x2],byte +0x0
0000069F  C45EFA            les bx,[bp-0x6]
000006A2  26803F55          cmp byte [es:bx],0x55
000006A6  75BA              jnz 0x662
000006A8  26807F01AA        cmp byte [es:bx+0x1],0xaa
000006AD  75B3              jnz 0x662
000006AF  C45EFA            les bx,[bp-0x6]
000006B2  268A4702          mov al,[es:bx+0x2]
000006B6  B400              mov ah,0x0
000006B8  B109              mov cl,0x9
000006BA  D3E0              shl ax,cl
000006BC  8BF8              mov di,ax
000006BE  33C0              xor ax,ax
000006C0  50                push ax
000006C1  FF36E816          push word [0x16e8]
000006C5  FF7402            push word [si+0x2]
000006C8  FF34              push word [si]
000006CA  E8D412            call 0x19a1
000006CD  8946FE            mov [bp-0x2],ax
000006D0  81EF0002          sub di,0x200
000006D4  E98F00            jmp 0x766
000006D7  33C0              xor ax,ax
000006D9  50                push ax
000006DA  FF36E816          push word [0x16e8]
000006DE  FF7402            push word [si+0x2]
000006E1  FF34              push word [si]
000006E3  E8CB12            call 0x19b1
000006E6  0BC2              or ax,dx
000006E8  7540              jnz 0x72a
000006EA  B80400            mov ax,0x4
000006ED  50                push ax
000006EE  16                push ss
000006EF  8D46F6            lea ax,[bp-0xa]
000006F2  50                push ax
000006F3  8B4402            mov ax,[si+0x2]
000006F6  8B14              mov dx,[si]
000006F8  0316D416          add dx,[0x16d4]
000006FC  150000            adc ax,0x0
000006FF  50                push ax
00000700  52                push dx
00000701  E8DC08            call 0xfe0
00000704  83C40A            add sp,byte +0xa
00000707  B80400            mov ax,0x4
0000070A  50                push ax
0000070B  1E                push ds
0000070C  B8D616            mov ax,0x16d6
0000070F  50                push ax
00000710  16                push ss
00000711  8D46F6            lea ax,[bp-0xa]
00000714  50                push ax
00000715  E88801            call 0x8a0
00000718  83C40A            add sp,byte +0xa
0000071B  0BC0              or ax,ax
0000071D  740B              jz 0x72a
0000071F  A1E816            mov ax,[0x16e8]
00000722  0104              add [si],ax
00000724  83540200          adc word [si+0x2],byte +0x0
00000728  EB39              jmp short 0x763
0000072A  8146FA0002        add word [bp-0x6],0x200
0000072F  FF36D216          push word [0x16d2]
00000733  8D46F5            lea ax,[bp-0xb]
00000736  50                push ax
00000737  B80002            mov ax,0x200
0000073A  50                push ax
0000073B  FF76FC            push word [bp-0x4]
0000073E  FF76FA            push word [bp-0x6]
00000741  FF7402            push word [si+0x2]
00000744  FF34              push word [si]
00000746  E89106            call 0xdda
00000749  83C40E            add sp,byte +0xe
0000074C  8BD0              mov dx,ax
0000074E  0BD2              or dx,dx
00000750  7405              jz 0x757
00000752  B81500            mov ax,0x15
00000755  EB3D              jmp short 0x794
00000757  81040002          add word [si],0x200
0000075B  83540200          adc word [si+0x2],byte +0x0
0000075F  81EF0002          sub di,0x200
00000763  FF46FE            inc word [bp-0x2]
00000766  0BFF              or di,di
00000768  7619              jna 0x783
0000076A  8B46FE            mov ax,[bp-0x2]
0000076D  33D2              xor dx,dx
0000076F  3B16FC16          cmp dx,[0x16fc]
00000773  7303              jnc 0x778
00000775  E95FFF            jmp 0x6d7
00000778  7509              jnz 0x783
0000077A  3B06FA16          cmp ax,[0x16fa]
0000077E  7303              jnc 0x783
00000780  E954FF            jmp 0x6d7
00000783  0BFF              or di,di
00000785  7706              ja 0x78d
00000787  807EF500          cmp byte [bp-0xb],0x0
0000078B  7405              jz 0x792
0000078D  B81900            mov ax,0x19
00000790  EB02              jmp short 0x794
00000792  33C0              xor ax,ax
00000794  5F                pop di
00000795  5E                pop si
00000796  8BE5              mov sp,bp
00000798  5D                pop bp
00000799  C3                ret
0000079A  55                push bp
0000079B  8BEC              mov bp,sp
0000079D  83EC0C            sub sp,byte +0xc
000007A0  8D46F4            lea ax,[bp-0xc]
000007A3  50                push ax
000007A4  E8FA12            call 0x1aa1
000007A7  59                pop cx
000007A8  8B46F6            mov ax,[bp-0xa]
000007AB  8946FE            mov [bp-0x2],ax
000007AE  C746FC0000        mov word [bp-0x4],0x0
000007B3  C45EFC            les bx,[bp-0x4]
000007B6  268A4704          mov al,[es:bx+0x4]
000007BA  B400              mov ah,0x0
000007BC  33D2              xor dx,dx
000007BE  B109              mov cl,0x9
000007C0  E88512            call 0x1a48
000007C3  8BE5              mov sp,bp
000007C5  5D                pop bp
000007C6  C3                ret
000007C7  55                push bp
000007C8  8BEC              mov bp,sp
000007CA  56                push si
000007CB  50                push ax
000007CC  53                push bx
000007CD  56                push si
000007CE  B40E              mov ah,0xe
000007D0  8B7604            mov si,[bp+0x4]
000007D3  AC                lodsb
000007D4  08C0              or al,al
000007D6  7406              jz 0x7de
000007D8  31DB              xor bx,bx
000007DA  CD10              int 0x10
000007DC  EBF5              jmp short 0x7d3
000007DE  5E                pop si
000007DF  5B                pop bx
000007E0  58                pop ax
000007E1  5E                pop si
000007E2  5D                pop bp
000007E3  C3                ret
000007E4  55                push bp
000007E5  8BEC              mov bp,sp
000007E7  83EC04            sub sp,byte +0x4
000007EA  C706D4160000      mov word [0x16d4],0x0
000007F0  C706D2160000      mov word [0x16d2],0x0
000007F6  B80400            mov ax,0x4
000007F9  50                push ax
000007FA  16                push ss
000007FB  8D46FC            lea ax,[bp-0x4]
000007FE  50                push ax
000007FF  33C0              xor ax,ax
00000801  33D2              xor dx,dx
00000803  50                push ax
00000804  52                push dx
00000805  E8D807            call 0xfe0
00000808  83C40A            add sp,byte +0xa
0000080B  B80400            mov ax,0x4
0000080E  50                push ax
0000080F  1E                push ds
00000810  B8D616            mov ax,0x16d6
00000813  50                push ax
00000814  16                push ss
00000815  8D46FC            lea ax,[bp-0x4]
00000818  50                push ax
00000819  E88400            call 0x8a0
0000081C  83C40A            add sp,byte +0xa
0000081F  0BC0              or ax,ax
00000821  7504              jnz 0x827
00000823  33C0              xor ax,ax
00000825  EB3D              jmp short 0x864
00000827  C706D4160800      mov word [0x16d4],0x8
0000082D  C706D2160200      mov word [0x16d2],0x2
00000833  B80400            mov ax,0x4
00000836  50                push ax
00000837  16                push ss
00000838  8D46FC            lea ax,[bp-0x4]
0000083B  50                push ax
0000083C  33C0              xor ax,ax
0000083E  50                push ax
0000083F  FF36D416          push word [0x16d4]
00000843  E89A07            call 0xfe0
00000846  83C40A            add sp,byte +0xa
00000849  B80400            mov ax,0x4
0000084C  50                push ax
0000084D  1E                push ds
0000084E  B8D616            mov ax,0x16d6
00000851  50                push ax
00000852  16                push ss
00000853  8D46FC            lea ax,[bp-0x4]
00000856  50                push ax
00000857  E84600            call 0x8a0
0000085A  83C40A            add sp,byte +0xa
0000085D  0BC0              or ax,ax
0000085F  74C2              jz 0x823
00000861  B81F00            mov ax,0x1f
00000864  8BE5              mov sp,bp
00000866  5D                pop bp
00000867  C3                ret
00000868  55                push bp
00000869  8BEC              mov bp,sp
0000086B  8B5604            mov dx,[bp+0x4]
0000086E  EB04              jmp short 0x874
00000870  00162A17          add [0x172a],dl
00000874  8BC2              mov ax,dx
00000876  4A                dec dx
00000877  0BC0              or ax,ax
00000879  77F5              ja 0x870
0000087B  5D                pop bp
0000087C  C3                ret
0000087D  55                push bp
0000087E  8BEC              mov bp,sp
00000880  8B560C            mov dx,[bp+0xc]
00000883  EB12              jmp short 0x897
00000885  C45E08            les bx,[bp+0x8]
00000888  268A07            mov al,[es:bx]
0000088B  C45E04            les bx,[bp+0x4]
0000088E  268807            mov [es:bx],al
00000891  FF4608            inc word [bp+0x8]
00000894  FF4604            inc word [bp+0x4]
00000897  8BC2              mov ax,dx
00000899  4A                dec dx
0000089A  0BC0              or ax,ax
0000089C  75E7              jnz 0x885
0000089E  5D                pop bp
0000089F  C3                ret
000008A0  55                push bp
000008A1  8BEC              mov bp,sp
000008A3  8B560C            mov dx,[bp+0xc]
000008A6  EB19              jmp short 0x8c1
000008A8  C45E04            les bx,[bp+0x4]
000008AB  FF4604            inc word [bp+0x4]
000008AE  268A07            mov al,[es:bx]
000008B1  C45E08            les bx,[bp+0x8]
000008B4  FF4608            inc word [bp+0x8]
000008B7  263A07            cmp al,[es:bx]
000008BA  7405              jz 0x8c1
000008BC  B80100            mov ax,0x1
000008BF  EB09              jmp short 0x8ca
000008C1  8BC2              mov ax,dx
000008C3  4A                dec dx
000008C4  0BC0              or ax,ax
000008C6  75E0              jnz 0x8a8
000008C8  33C0              xor ax,ax
000008CA  5D                pop bp
000008CB  C3                ret
000008CC  55                push bp
000008CD  8BEC              mov bp,sp
000008CF  8B560A            mov dx,[bp+0xa]
000008D2  EB0C              jmp short 0x8e0
000008D4  C45E04            les bx,[bp+0x4]
000008D7  8A4608            mov al,[bp+0x8]
000008DA  268807            mov [es:bx],al
000008DD  FF4604            inc word [bp+0x4]
000008E0  8BC2              mov ax,dx
000008E2  4A                dec dx
000008E3  0BC0              or ax,ax
000008E5  75ED              jnz 0x8d4
000008E7  5D                pop bp
000008E8  C3                ret
000008E9  55                push bp
000008EA  8BEC              mov bp,sp
000008EC  83EC06            sub sp,byte +0x6
000008EF  B085              mov al,0x85
000008F1  50                push ax
000008F2  E8C704            call 0xdbc
000008F5  59                pop cx
000008F6  C41EBA16          les bx,[0x16ba]
000008FA  2680BF001030      cmp byte [es:bx+0x1000],0x30
00000900  7506              jnz 0x908
00000902  C706EA160800      mov word [0x16ea],0x8
00000908  C70600172000      mov word [0x1700],0x20
0000090E  C706FE160000      mov word [0x16fe],0x0
00000914  F706EA160800      test word [0x16ea],0x8
0000091A  740E              jz 0x92a
0000091C  C70626170008      mov word [0x1726],0x800
00000922  C70628170610      mov word [0x1728],0x1006
00000928  EB0C              jmp short 0x936
0000092A  C70626170018      mov word [0x1726],0x1800
00000930  C70628170710      mov word [0x1728],0x1007
00000936  8A4606            mov al,[bp+0x6]
00000939  50                push ax
0000093A  E85D04            call 0xd9a
0000093D  59                pop cx
0000093E  B0FF              mov al,0xff
00000940  50                push ax
00000941  E8A902            call 0xbed
00000944  59                pop cx
00000945  E8AD03            call 0xcf5
00000948  0BC0              or ax,ax
0000094A  7406              jz 0x952
0000094C  B81500            mov ax,0x15
0000094F  E96302            jmp 0xbb5
00000952  B090              mov al,0x90
00000954  50                push ax
00000955  E89502            call 0xbed
00000958  59                pop cx
00000959  B01D              mov al,0x1d
0000095B  50                push ax
0000095C  E87003            call 0xccf
0000095F  59                pop cx
00000960  C41EBA16          les bx,[0x16ba]
00000964  031E2617          add bx,[0x1726]
00000968  26C60700          mov byte [es:bx],0x0
0000096C  F706EA160800      test word [0x16ea],0x8
00000972  740A              jz 0x97e
00000974  8B1EBA16          mov bx,[0x16ba]
00000978  26C6871E1000      mov byte [es:bx+0x101e],0x0
0000097E  B019              mov al,0x19
00000980  50                push ax
00000981  E84B03            call 0xccf
00000984  59                pop cx
00000985  B80100            mov ax,0x1
00000988  50                push ax
00000989  E8DCFE            call 0x868
0000098C  59                pop cx
0000098D  C41EBA16          les bx,[0x16ba]
00000991  268A870D10        mov al,[es:bx+0x100d]
00000996  00062A17          add [0x172a],al
0000099A  33D2              xor dx,dx
0000099C  C41EBA16          les bx,[0x16ba]
000009A0  268A872010        mov al,[es:bx+0x1020]
000009A5  00062A17          add [0x172a],al
000009A9  42                inc dx
000009AA  83FA02            cmp dx,byte +0x2
000009AD  7CED              jl 0x99c
000009AF  C41EBA16          les bx,[0x16ba]
000009B3  031E2617          add bx,[0x1726]
000009B7  268A07            mov al,[es:bx]
000009BA  8846FF            mov [bp-0x1],al
000009BD  B80100            mov ax,0x1
000009C0  50                push ax
000009C1  E8A4FE            call 0x868
000009C4  59                pop cx
000009C5  C41EBA16          les bx,[0x16ba]
000009C9  268A870D10        mov al,[es:bx+0x100d]
000009CE  00062A17          add [0x172a],al
000009D2  33D2              xor dx,dx
000009D4  C41EBA16          les bx,[0x16ba]
000009D8  268A872010        mov al,[es:bx+0x1020]
000009DD  00062A17          add [0x172a],al
000009E1  42                inc dx
000009E2  83FA02            cmp dx,byte +0x2
000009E5  7CED              jl 0x9d4
000009E7  C41EBA16          les bx,[0x16ba]
000009EB  031E2617          add bx,[0x1726]
000009EF  268A07            mov al,[es:bx]
000009F2  8846FE            mov [bp-0x2],al
000009F5  B018              mov al,0x18
000009F7  50                push ax
000009F8  E8D402            call 0xccf
000009FB  59                pop cx
000009FC  807E0400          cmp byte [bp+0x4],0x0
00000A00  7403              jz 0xa05
00000A02  E9A001            jmp 0xba5
00000A05  807E0600          cmp byte [bp+0x6],0x0
00000A09  7403              jz 0xa0e
00000A0B  E99701            jmp 0xba5
00000A0E  C706E6160001      mov word [0x16e6],0x100
00000A14  C706E8160010      mov word [0x16e8],0x1000
00000A1A  C706EC161000      mov word [0x16ec],0x10
00000A20  C706F8162000      mov word [0x16f8],0x20
00000A26  C706F6160000      mov word [0x16f6],0x0
00000A2C  C706FC160000      mov word [0x16fc],0x0
00000A32  C706FA160002      mov word [0x16fa],0x200
00000A38  8A46FE            mov al,[bp-0x2]
00000A3B  A2E516            mov [0x16e5],al
00000A3E  8A46FF            mov al,[bp-0x1]
00000A41  B400              mov ah,0x0
00000A43  8946FC            mov [bp-0x4],ax
00000A46  B90400            mov cx,0x4
00000A49  BBDD07            mov bx,0x7dd
00000A4C  2E8B07            mov ax,[cs:bx]
00000A4F  3B46FC            cmp ax,[bp-0x4]
00000A52  7408              jz 0xa5c
00000A54  83C302            add bx,byte +0x2
00000A57  E2F3              loop 0xa4c
00000A59  E95201            jmp 0xbae
00000A5C  2EFF6708          jmp near [cs:bx+0x8]
00000A60  830EEA1602        or word [0x16ea],byte +0x2
00000A65  8A46FE            mov al,[bp-0x2]
00000A68  B400              mov ah,0x0
00000A6A  8946FA            mov [bp-0x6],ax
00000A6D  B90900            mov cx,0x9
00000A70  BBB907            mov bx,0x7b9
00000A73  2E8B07            mov ax,[cs:bx]
00000A76  3B46FA            cmp ax,[bp-0x6]
00000A79  7408              jz 0xa83
00000A7B  83C302            add bx,byte +0x2
00000A7E  E2F3              loop 0xa73
00000A80  E92B01            jmp 0xbae
00000A83  2EFF6712          jmp near [cs:bx+0x12]
00000A87  C706E6160001      mov word [0x16e6],0x100
00000A8D  A1E616            mov ax,[0x16e6]
00000A90  B104              mov cl,0x4
00000A92  D3E0              shl ax,cl
00000A94  A3E816            mov [0x16e8],ax
00000A97  E91901            jmp 0xbb3
00000A9A  33C9              xor cx,cx
00000A9C  BB0200            mov bx,0x2
00000A9F  8B16F816          mov dx,[0x16f8]
00000AA3  A1F616            mov ax,[0x16f6]
00000AA6  E8E10F            call 0x1a8a
00000AA9  8916F816          mov [0x16f8],dx
00000AAD  A3F616            mov [0x16f6],ax
00000AB0  33C9              xor cx,cx
00000AB2  BB0200            mov bx,0x2
00000AB5  8B16FC16          mov dx,[0x16fc]
00000AB9  A1FA16            mov ax,[0x16fa]
00000ABC  E8CB0F            call 0x1a8a
00000ABF  8916FC16          mov [0x16fc],dx
00000AC3  A3FA16            mov [0x16fa],ax
00000AC6  C706E6160002      mov word [0x16e6],0x200
00000ACC  A1E616            mov ax,[0x16e6]
00000ACF  B104              mov cl,0x4
00000AD1  D3E0              shl ax,cl
00000AD3  A3E816            mov [0x16e8],ax
00000AD6  830EEA1601        or word [0x16ea],byte +0x1
00000ADB  33C9              xor cx,cx
00000ADD  BB0200            mov bx,0x2
00000AE0  8B16F816          mov dx,[0x16f8]
00000AE4  A1F616            mov ax,[0x16f6]
00000AE7  E8A00F            call 0x1a8a
00000AEA  8916F816          mov [0x16f8],dx
00000AEE  A3F616            mov [0x16f6],ax
00000AF1  E9BF00            jmp 0xbb3
00000AF4  830EEA1610        or word [0x16ea],byte +0x10
00000AF9  33C9              xor cx,cx
00000AFB  BB0200            mov bx,0x2
00000AFE  8B16FC16          mov dx,[0x16fc]
00000B02  A1FA16            mov ax,[0x16fa]
00000B05  E8820F            call 0x1a8a
00000B08  8916FC16          mov [0x16fc],dx
00000B0C  A3FA16            mov [0x16fa],ax
00000B0F  33C9              xor cx,cx
00000B11  BB0200            mov bx,0x2
00000B14  8B16F816          mov dx,[0x16f8]
00000B18  A1F616            mov ax,[0x16f6]
00000B1B  E86C0F            call 0x1a8a
00000B1E  8916F816          mov [0x16f8],dx
00000B22  A3F616            mov [0x16f6],ax
00000B25  33C9              xor cx,cx
00000B27  BB0200            mov bx,0x2
00000B2A  8B16F816          mov dx,[0x16f8]
00000B2E  A1F616            mov ax,[0x16f6]
00000B31  E8560F            call 0x1a8a
00000B34  8916F816          mov [0x16f8],dx
00000B38  A3F616            mov [0x16f6],ax
00000B3B  33C9              xor cx,cx
00000B3D  BB0200            mov bx,0x2
00000B40  8B16FC16          mov dx,[0x16fc]
00000B44  A1FA16            mov ax,[0x16fa]
00000B47  E8400F            call 0x1a8a
00000B4A  8916FC16          mov [0x16fc],dx
00000B4E  A3FA16            mov [0x16fa],ax
00000B51  C706E6160002      mov word [0x16e6],0x200
00000B57  A1E616            mov ax,[0x16e6]
00000B5A  B104              mov cl,0x4
00000B5C  D3E0              shl ax,cl
00000B5E  D1E0              shl ax,1
00000B60  A3E816            mov [0x16e8],ax
00000B63  830EEA1601        or word [0x16ea],byte +0x1
00000B68  33C9              xor cx,cx
00000B6A  BB0800            mov bx,0x8
00000B6D  8B16F816          mov dx,[0x16f8]
00000B71  A1F616            mov ax,[0x16f6]
00000B74  E8130F            call 0x1a8a
00000B77  8916F816          mov [0x16f8],dx
00000B7B  A3F616            mov [0x16f6],ax
00000B7E  33C9              xor cx,cx
00000B80  BB0200            mov bx,0x2
00000B83  8B16FC16          mov dx,[0x16fc]
00000B87  A1FA16            mov ax,[0x16fa]
00000B8A  E8FD0E            call 0x1a8a
00000B8D  8916FC16          mov [0x16fc],dx
00000B91  A3FA16            mov [0x16fa],ax
00000B94  BA0200            mov dx,0x2
00000B97  A1EC16            mov ax,[0x16ec]
00000B9A  F7EA              imul dx
00000B9C  A3EC16            mov [0x16ec],ax
00000B9F  EB12              jmp short 0xbb3
00000BA1  EB0B              jmp short 0xbae
00000BA3  EB09              jmp short 0xbae
00000BA5  8A46FE            mov al,[bp-0x2]
00000BA8  3A06E516          cmp al,[0x16e5]
00000BAC  7405              jz 0xbb3
00000BAE  B81A00            mov ax,0x1a
00000BB1  EB02              jmp short 0xbb5
00000BB3  33C0              xor ax,ax
00000BB5  8BE5              mov sp,bp
00000BB7  5D                pop bp
00000BB8  C3                ret
00000BB9  64006B00          add [fs:bp+di+0x0],ch
00000BBD  7300              jnc 0xbbf
00000BBF  7500              jnz 0xbc1
00000BC1  7600              jna 0xbc3
00000BC3  E300              jcxz 0xbc5
00000BC5  E500              in ax,0x0
00000BC7  E600              out 0x0,al
00000BC9  EA008706C6        jmp 0xc606:0x8700
00000BCE  06                push es
00000BCF  51                push cx
00000BD0  07                pop es
00000BD1  2507F4            and ax,0xf407
00000BD4  06                push es
00000BD5  C606C6069A        mov byte [0x6c6],0x9a
00000BDA  06                push es
00000BDB  87060100          xchg ax,[0x1]
00000BDF  0400              add al,0x0
00000BE1  98                cbw
00000BE2  00EC              add ah,ch
00000BE4  006006            add [bx+si+0x6],ah
00000BE7  60                pusha
00000BE8  06                push es
00000BE9  60                pusha
00000BEA  06                push es
00000BEB  6506              gs push es
00000BED  55                push bp
00000BEE  8BEC              mov bp,sp
00000BF0  B013              mov al,0x13
00000BF2  50                push ax
00000BF3  E8D900            call 0xccf
00000BF6  59                pop cx
00000BF7  C41EBA16          les bx,[0x16ba]
00000BFB  031E2617          add bx,[0x1726]
00000BFF  8A4604            mov al,[bp+0x4]
00000C02  268807            mov [es:bx],al
00000C05  F706EA160800      test word [0x16ea],0x8
00000C0B  7409              jz 0xc16
00000C0D  8B1EBA16          mov bx,[0x16ba]
00000C11  2688871E10        mov [es:bx+0x101e],al
00000C16  B011              mov al,0x11
00000C18  50                push ax
00000C19  E8B300            call 0xccf
00000C1C  59                pop cx
00000C1D  5D                pop bp
00000C1E  C3                ret
00000C1F  55                push bp
00000C20  8BEC              mov bp,sp
00000C22  A1F816            mov ax,[0x16f8]
00000C25  8B16F616          mov dx,[0x16f6]
00000C29  83EA01            sub dx,byte +0x1
00000C2C  1D0000            sbb ax,0x0
00000C2F  215604            and [bp+0x4],dx
00000C32  214606            and [bp+0x6],ax
00000C35  F706EA160100      test word [0x16ea],0x1
00000C3B  7420              jz 0xc5d
00000C3D  8B5606            mov dx,[bp+0x6]
00000C40  8B4604            mov ax,[bp+0x4]
00000C43  B109              mov cl,0x9
00000C45  E8210E            call 0x1a69
00000C48  B108              mov cl,0x8
00000C4A  E8FB0D            call 0x1a48
00000C4D  8A5E04            mov bl,[bp+0x4]
00000C50  B700              mov bh,0x0
00000C52  0BC3              or ax,bx
00000C54  83CA00            or dx,byte +0x0
00000C57  895606            mov [bp+0x6],dx
00000C5A  894604            mov [bp+0x4],ax
00000C5D  B015              mov al,0x15
00000C5F  50                push ax
00000C60  E86C00            call 0xccf
00000C63  59                pop cx
00000C64  C41EBA16          les bx,[0x16ba]
00000C68  031E2617          add bx,[0x1726]
00000C6C  8A4604            mov al,[bp+0x4]
00000C6F  268807            mov [es:bx],al
00000C72  8B5606            mov dx,[bp+0x6]
00000C75  8B4604            mov ax,[bp+0x4]
00000C78  B108              mov cl,0x8
00000C7A  E8EC0D            call 0x1a69
00000C7D  C41EBA16          les bx,[0x16ba]
00000C81  031E2617          add bx,[0x1726]
00000C85  268807            mov [es:bx],al
00000C88  8B4606            mov ax,[bp+0x6]
00000C8B  8B1EBA16          mov bx,[0x16ba]
00000C8F  031E2617          add bx,[0x1726]
00000C93  268807            mov [es:bx],al
00000C96  F706EA161000      test word [0x16ea],0x10
00000C9C  7416              jz 0xcb4
00000C9E  8B5606            mov dx,[bp+0x6]
00000CA1  8B4604            mov ax,[bp+0x4]
00000CA4  B118              mov cl,0x18
00000CA6  E8C00D            call 0x1a69
00000CA9  C41EBA16          les bx,[0x16ba]
00000CAD  031E2617          add bx,[0x1726]
00000CB1  268807            mov [es:bx],al
00000CB4  F706EA160800      test word [0x16ea],0x8
00000CBA  740A              jz 0xcc6
00000CBC  C41EBA16          les bx,[0x16ba]
00000CC0  26C6871E1000      mov byte [es:bx+0x101e],0x0
00000CC6  B031              mov al,0x31
00000CC8  50                push ax
00000CC9  E80300            call 0xccf
00000CCC  59                pop cx
00000CCD  5D                pop bp
00000CCE  C3                ret
00000CCF  55                push bp
00000CD0  8BEC              mov bp,sp
00000CD2  C41EBA16          les bx,[0x16ba]
00000CD6  8A4604            mov al,[bp+0x4]
00000CD9  2688870410        mov [es:bx+0x1004],al
00000CDE  33D2              xor dx,dx
00000CE0  C41EBA16          les bx,[0x16ba]
00000CE4  268A872010        mov al,[es:bx+0x1020]
00000CE9  00062A17          add [0x172a],al
00000CED  42                inc dx
00000CEE  83FA02            cmp dx,byte +0x2
00000CF1  7CED              jl 0xce0
00000CF3  5D                pop bp
00000CF4  C3                ret
00000CF5  56                push si
00000CF6  33F6              xor si,si
00000CF8  E81400            call 0xd0f
00000CFB  0AC0              or al,al
00000CFD  7504              jnz 0xd03
00000CFF  33C0              xor ax,ax
00000D01  EB0A              jmp short 0xd0d
00000D03  46                inc si
00000D04  81FE3075          cmp si,0x7530
00000D08  7CEE              jl 0xcf8
00000D0A  B81500            mov ax,0x15
00000D0D  5E                pop si
00000D0E  C3                ret
00000D0F  55                push bp
00000D10  8BEC              mov bp,sp
00000D12  83EC02            sub sp,byte +0x2
00000D15  33D2              xor dx,dx
00000D17  C41EBA16          les bx,[0x16ba]
00000D1B  268A872010        mov al,[es:bx+0x1020]
00000D20  00062A17          add [0x172a],al
00000D24  42                inc dx
00000D25  83FA04            cmp dx,byte +0x4
00000D28  7CED              jl 0xd17
00000D2A  C41EBA16          les bx,[0x16ba]
00000D2E  268A870410        mov al,[es:bx+0x1004]
00000D33  8846FF            mov [bp-0x1],al
00000D36  33D2              xor dx,dx
00000D38  C41EBA16          les bx,[0x16ba]
00000D3C  268A872010        mov al,[es:bx+0x1020]
00000D41  00062A17          add [0x172a],al
00000D45  42                inc dx
00000D46  83FA02            cmp dx,byte +0x2
00000D49  7CED              jl 0xd38
00000D4B  8A46FF            mov al,[bp-0x1]
00000D4E  B400              mov ah,0x0
00000D50  258000            and ax,0x80
00000D53  F7D8              neg ax
00000D55  1BC0              sbb ax,ax
00000D57  40                inc ax
00000D58  8BE5              mov sp,bp
00000D5A  5D                pop bp
00000D5B  C3                ret
00000D5C  55                push bp
00000D5D  8BEC              mov bp,sp
00000D5F  FF360017          push word [0x1700]
00000D63  FF36FE16          push word [0x16fe]
00000D67  FF7606            push word [bp+0x6]
00000D6A  FF7604            push word [bp+0x4]
00000D6D  E8310C            call 0x19a1
00000D70  50                push ax
00000D71  E83700            call 0xdab
00000D74  59                pop cx
00000D75  FF36F816          push word [0x16f8]
00000D79  FF36F616          push word [0x16f6]
00000D7D  FF360017          push word [0x1700]
00000D81  FF36FE16          push word [0x16fe]
00000D85  FF7606            push word [bp+0x6]
00000D88  FF7604            push word [bp+0x4]
00000D8B  E8230C            call 0x19b1
00000D8E  52                push dx
00000D8F  50                push ax
00000D90  E80E0C            call 0x19a1
00000D93  50                push ax
00000D94  E80300            call 0xd9a
00000D97  59                pop cx
00000D98  5D                pop bp
00000D99  C3                ret
00000D9A  55                push bp
00000D9B  8BEC              mov bp,sp
00000D9D  C41EBA16          les bx,[0x16ba]
00000DA1  8A4604            mov al,[bp+0x4]
00000DA4  2688870510        mov [es:bx+0x1005],al
00000DA9  5D                pop bp
00000DAA  C3                ret
00000DAB  55                push bp
00000DAC  8BEC              mov bp,sp
00000DAE  C41EBA16          les bx,[0x16ba]
00000DB2  8A4604            mov al,[bp+0x4]
00000DB5  2688870310        mov [es:bx+0x1003],al
00000DBA  5D                pop bp
00000DBB  C3                ret
00000DBC  55                push bp
00000DBD  8BEC              mov bp,sp
00000DBF  8A5604            mov dl,[bp+0x4]
00000DC2  C41EBA16          les bx,[0x16ba]
00000DC6  2688970210        mov [es:bx+0x1002],dl
00000DCB  2688970210        mov [es:bx+0x1002],dl
00000DD0  B80100            mov ax,0x1
00000DD3  50                push ax
00000DD4  E891FA            call 0x868
00000DD7  59                pop cx
00000DD8  5D                pop bp
00000DD9  C3                ret
00000DDA  55                push bp
00000DDB  8BEC              mov bp,sp
00000DDD  83EC08            sub sp,byte +0x8
00000DE0  56                push si
00000DE1  57                push di
00000DE2  C746FE0000        mov word [bp-0x2],0x0
00000DE7  E96F01            jmp 0xf59
00000DEA  FF7606            push word [bp+0x6]
00000DED  FF7604            push word [bp+0x4]
00000DF0  E869FF            call 0xd5c
00000DF3  59                pop cx
00000DF4  59                pop cx
00000DF5  B000              mov al,0x0
00000DF7  50                push ax
00000DF8  E8F2FD            call 0xbed
00000DFB  59                pop cx
00000DFC  FF7606            push word [bp+0x6]
00000DFF  FF7604            push word [bp+0x4]
00000E02  E81AFE            call 0xc1f
00000E05  59                pop cx
00000E06  59                pop cx
00000E07  E8EBFE            call 0xcf5
00000E0A  0BC0              or ax,ax
00000E0C  7406              jz 0xe14
00000E0E  B81500            mov ax,0x15
00000E11  E95801            jmp 0xf6c
00000E14  817E0C0002        cmp word [bp+0xc],0x200
00000E19  7305              jnc 0xe20
00000E1B  8B460C            mov ax,[bp+0xc]
00000E1E  EB03              jmp short 0xe23
00000E20  B80002            mov ax,0x200
00000E23  8BF8              mov di,ax
00000E25  81FF0002          cmp di,0x200
00000E29  7408              jz 0xe33
00000E2B  8B4610            mov ax,[bp+0x10]
00000E2E  25FDFF            and ax,0xfffd
00000E31  EB03              jmp short 0xe36
00000E33  8B4610            mov ax,[bp+0x10]
00000E36  894610            mov [bp+0x10],ax
00000E39  F746100200        test word [bp+0x10],0x2
00000E3E  7403              jz 0xe43
00000E40  E89202            call 0x10d5
00000E43  F706EA160100      test word [0x16ea],0x1
00000E49  755B              jnz 0xea6
00000E4B  81FF0001          cmp di,0x100
00000E4F  7304              jnc 0xe55
00000E51  8BC7              mov ax,di
00000E53  EB03              jmp short 0xe58
00000E55  B80001            mov ax,0x100
00000E58  8BF0              mov si,ax
00000E5A  FF760E            push word [bp+0xe]
00000E5D  50                push ax
00000E5E  FF760A            push word [bp+0xa]
00000E61  FF7608            push word [bp+0x8]
00000E64  E80B01            call 0xf72
00000E67  83C408            add sp,byte +0x8
00000E6A  81FF0001          cmp di,0x100
00000E6E  7646              jna 0xeb6
00000E70  B000              mov al,0x0
00000E72  50                push ax
00000E73  E877FD            call 0xbed
00000E76  59                pop cx
00000E77  8B4606            mov ax,[bp+0x6]
00000E7A  8B5604            mov dx,[bp+0x4]
00000E7D  03D6              add dx,si
00000E7F  150000            adc ax,0x0
00000E82  50                push ax
00000E83  52                push dx
00000E84  E898FD            call 0xc1f
00000E87  59                pop cx
00000E88  59                pop cx
00000E89  E869FE            call 0xcf5
00000E8C  0BC0              or ax,ax
00000E8E  7403              jz 0xe93
00000E90  E97BFF            jmp 0xe0e
00000E93  FF760E            push word [bp+0xe]
00000E96  8BC7              mov ax,di
00000E98  2BC6              sub ax,si
00000E9A  50                push ax
00000E9B  8B4608            mov ax,[bp+0x8]
00000E9E  03C6              add ax,si
00000EA0  FF760A            push word [bp+0xa]
00000EA3  50                push ax
00000EA4  EB0A              jmp short 0xeb0
00000EA6  FF760E            push word [bp+0xe]
00000EA9  57                push di
00000EAA  FF760A            push word [bp+0xa]
00000EAD  FF7608            push word [bp+0x8]
00000EB0  E8BF00            call 0xf72
00000EB3  83C408            add sp,byte +0x8
00000EB6  F746100200        test word [bp+0x10],0x2
00000EBB  7474              jz 0xf31
00000EBD  B80600            mov ax,0x6
00000EC0  50                push ax
00000EC1  1E                push ds
00000EC2  B8DE16            mov ax,0x16de
00000EC5  50                push ax
00000EC6  E8AC01            call 0x1075
00000EC9  83C406            add sp,byte +0x6
00000ECC  E82202            call 0x10f1
00000ECF  0AC0              or al,al
00000ED1  745E              jz 0xf31
00000ED3  33F6              xor si,si
00000ED5  80BCDE16FF        cmp byte [si+0x16de],0xff
00000EDA  7506              jnz 0xee2
00000EDC  46                inc si
00000EDD  83FE06            cmp si,byte +0x6
00000EE0  72F3              jc 0xed5
00000EE2  83FE06            cmp si,byte +0x6
00000EE5  744A              jz 0xf31
00000EE7  33F6              xor si,si
00000EE9  C41EBA16          les bx,[0x16ba]
00000EED  03DE              add bx,si
00000EEF  268A871010        mov al,[es:bx+0x1010]
00000EF4  8842F8            mov [bp+si-0x8],al
00000EF7  46                inc si
00000EF8  83FE06            cmp si,byte +0x6
00000EFB  72EC              jc 0xee9
00000EFD  8A56F8            mov dl,[bp-0x8]
00000F00  8A46FC            mov al,[bp-0x4]
00000F03  8846F8            mov [bp-0x8],al
00000F06  8856FC            mov [bp-0x4],dl
00000F09  8A56F9            mov dl,[bp-0x7]
00000F0C  8A46FD            mov al,[bp-0x3]
00000F0F  8846F9            mov [bp-0x7],al
00000F12  8856FD            mov [bp-0x3],dl
00000F15  B001              mov al,0x1
00000F17  50                push ax
00000F18  8D46F8            lea ax,[bp-0x8]
00000F1B  50                push ax
00000F1C  FF760A            push word [bp+0xa]
00000F1F  FF7608            push word [bp+0x8]
00000F22  E8FF09            call 0x1924
00000F25  83C408            add sp,byte +0x8
00000F28  0BC0              or ax,ax
00000F2A  7405              jz 0xf31
00000F2C  C746FE1900        mov word [bp-0x2],0x19
00000F31  8B4608            mov ax,[bp+0x8]
00000F34  33D2              xor dx,dx
00000F36  03C7              add ax,di
00000F38  83D200            adc dx,byte +0x0
00000F3B  B10C              mov cl,0xc
00000F3D  D3E2              shl dx,cl
00000F3F  8B460A            mov ax,[bp+0xa]
00000F42  03C2              add ax,dx
00000F44  8B5608            mov dx,[bp+0x8]
00000F47  03D7              add dx,di
00000F49  89460A            mov [bp+0xa],ax
00000F4C  895608            mov [bp+0x8],dx
00000F4F  297E0C            sub [bp+0xc],di
00000F52  017E04            add [bp+0x4],di
00000F55  83560600          adc word [bp+0x6],byte +0x0
00000F59  837E0C00          cmp word [bp+0xc],byte +0x0
00000F5D  7603              jna 0xf62
00000F5F  E988FE            jmp 0xdea
00000F62  B018              mov al,0x18
00000F64  50                push ax
00000F65  E867FD            call 0xccf
00000F68  59                pop cx
00000F69  8B46FE            mov ax,[bp-0x2]
00000F6C  5F                pop di
00000F6D  5E                pop si
00000F6E  8BE5              mov sp,bp
00000F70  5D                pop bp
00000F71  C3                ret
00000F72  55                push bp
00000F73  8BEC              mov bp,sp
00000F75  56                push si
00000F76  57                push di
00000F77  8B7608            mov si,[bp+0x8]
00000F7A  8B7E0A            mov di,[bp+0xa]
00000F7D  F706EA160800      test word [0x16ea],0x8
00000F83  740E              jz 0xf93
00000F85  C41EBA16          les bx,[0x16ba]
00000F89  268A871D10        mov al,[es:bx+0x101d]
00000F8E  00062A17          add [0x172a],al
00000F92  4E                dec si
00000F93  33C9              xor cx,cx
00000F95  3BCE              cmp cx,si
00000F97  7327              jnc 0xfc0
00000F99  8BC1              mov ax,cx
00000F9B  250100            and ax,0x1
00000F9E  8B162617          mov dx,[0x1726]
00000FA2  03D0              add dx,ax
00000FA4  C41EBA16          les bx,[0x16ba]
00000FA8  03DA              add bx,dx
00000FAA  268A07            mov al,[es:bx]
00000FAD  C45E04            les bx,[bp+0x4]
00000FB0  268807            mov [es:bx],al
00000FB3  268A07            mov al,[es:bx]
00000FB6  0005              add [di],al
00000FB8  41                inc cx
00000FB9  FF4604            inc word [bp+0x4]
00000FBC  3BCE              cmp cx,si
00000FBE  72D9              jc 0xf99
00000FC0  F706EA160800      test word [0x16ea],0x8
00000FC6  7414              jz 0xfdc
00000FC8  C41EBA16          les bx,[0x16ba]
00000FCC  268A871F10        mov al,[es:bx+0x101f]
00000FD1  C45E04            les bx,[bp+0x4]
00000FD4  268807            mov [es:bx],al
00000FD7  268A07            mov al,[es:bx]
00000FDA  0005              add [di],al
00000FDC  5F                pop di
00000FDD  5E                pop si
00000FDE  5D                pop bp
00000FDF  C3                ret
00000FE0  55                push bp
00000FE1  8BEC              mov bp,sp
00000FE3  83EC04            sub sp,byte +0x4
00000FE6  56                push si
00000FE7  57                push di
00000FE8  8B7E0C            mov di,[bp+0xc]
00000FEB  8B7604            mov si,[bp+0x4]
00000FEE  83E60F            and si,byte +0xf
00000FF1  F706EA160100      test word [0x16ea],0x1
00000FF7  7522              jnz 0x101b
00000FF9  83FE08            cmp si,byte +0x8
00000FFC  730B              jnc 0x1009
00000FFE  8146040001        add word [bp+0x4],0x100
00001003  83560600          adc word [bp+0x6],byte +0x0
00001007  EB0B              jmp short 0x1014
00001009  836E0408          sub word [bp+0x4],byte +0x8
0000100D  835E0600          sbb word [bp+0x6],byte +0x0
00001011  83EE08            sub si,byte +0x8
00001014  C746FE0800        mov word [bp-0x2],0x8
00001019  EB05              jmp short 0x1020
0000101B  C746FE1000        mov word [bp-0x2],0x10
00001020  FF7606            push word [bp+0x6]
00001023  FF7604            push word [bp+0x4]
00001026  E833FD            call 0xd5c
00001029  59                pop cx
0000102A  59                pop cx
0000102B  B050              mov al,0x50
0000102D  50                push ax
0000102E  E8BCFB            call 0xbed
00001031  59                pop cx
00001032  FF7606            push word [bp+0x6]
00001035  FF7604            push word [bp+0x4]
00001038  E8E4FB            call 0xc1f
0000103B  59                pop cx
0000103C  59                pop cx
0000103D  E8B5FC            call 0xcf5
00001040  0BC0              or ax,ax
00001042  7405              jz 0x1049
00001044  B81500            mov ax,0x15
00001047  EB26              jmp short 0x106f
00001049  8D46FD            lea ax,[bp-0x3]
0000104C  50                push ax
0000104D  57                push di
0000104E  FF760A            push word [bp+0xa]
00001051  FF7608            push word [bp+0x8]
00001054  E81BFF            call 0xf72
00001057  83C408            add sp,byte +0x8
0000105A  B018              mov al,0x18
0000105C  50                push ax
0000105D  E86FFC            call 0xccf
00001060  59                pop cx
00001061  8BC6              mov ax,si
00001063  03C7              add ax,di
00001065  3B46FE            cmp ax,[bp-0x2]
00001068  7503              jnz 0x106d
0000106A  E888FC            call 0xcf5
0000106D  33C0              xor ax,ax
0000106F  5F                pop di
00001070  5E                pop si
00001071  8BE5              mov sp,bp
00001073  5D                pop bp
00001074  C3                ret
00001075  55                push bp
00001076  8BEC              mov bp,sp
00001078  56                push si
00001079  8B7608            mov si,[bp+0x8]
0000107C  F706EA160800      test word [0x16ea],0x8
00001082  740E              jz 0x1092
00001084  C41EBA16          les bx,[0x16ba]
00001088  268A871D10        mov al,[es:bx+0x101d]
0000108D  00062A17          add [0x172a],al
00001091  4E                dec si
00001092  33C9              xor cx,cx
00001094  3BCE              cmp cx,si
00001096  7321              jnc 0x10b9
00001098  8BC1              mov ax,cx
0000109A  250100            and ax,0x1
0000109D  8B162617          mov dx,[0x1726]
000010A1  03D0              add dx,ax
000010A3  C41EBA16          les bx,[0x16ba]
000010A7  03DA              add bx,dx
000010A9  268A07            mov al,[es:bx]
000010AC  C45E04            les bx,[bp+0x4]
000010AF  03D9              add bx,cx
000010B1  268807            mov [es:bx],al
000010B4  41                inc cx
000010B5  3BCE              cmp cx,si
000010B7  72DF              jc 0x1098
000010B9  F706EA160800      test word [0x16ea],0x8
000010BF  7411              jz 0x10d2
000010C1  C41EBA16          les bx,[0x16ba]
000010C5  268A871F10        mov al,[es:bx+0x101f]
000010CA  C45E04            les bx,[bp+0x4]
000010CD  03DE              add bx,si
000010CF  268807            mov [es:bx],al
000010D2  5E                pop si
000010D3  5D                pop bp
000010D4  C3                ret
000010D5  C41EBA16          les bx,[0x16ba]
000010D9  26C687061000      mov byte [es:bx+0x1006],0x0
000010DF  26C68706100A      mov byte [es:bx+0x1006],0xa
000010E5  C3                ret
000010E6  C41EBA16          les bx,[0x16ba]
000010EA  26C687061002      mov byte [es:bx+0x1006],0x2
000010F0  C3                ret
000010F1  55                push bp
000010F2  8BEC              mov bp,sp
000010F4  83EC02            sub sp,byte +0x2
000010F7  33D2              xor dx,dx
000010F9  C41EBA16          les bx,[0x16ba]
000010FD  031E2817          add bx,[0x1728]
00001101  268A07            mov al,[es:bx]
00001104  00062A17          add [0x172a],al
00001108  42                inc dx
00001109  83FA02            cmp dx,byte +0x2
0000110C  7CEB              jl 0x10f9
0000110E  C41EBA16          les bx,[0x16ba]
00001112  031E2817          add bx,[0x1728]
00001116  268A07            mov al,[es:bx]
00001119  8846FF            mov [bp-0x1],al
0000111C  2480              and al,0x80
0000111E  8BE5              mov sp,bp
00001120  5D                pop bp
00001121  C3                ret
00001122  55                push bp
00001123  8BEC              mov bp,sp
00001125  56                push si
00001126  57                push di
00001127  8B7604            mov si,[bp+0x4]
0000112A  8B7E06            mov di,[bp+0x6]
0000112D  8A04              mov al,[si]
0000112F  98                cbw
00001130  25FF00            and ax,0xff
00001133  50                push ax
00001134  8A4401            mov al,[si+0x1]
00001137  98                cbw
00001138  250300            and ax,0x3
0000113B  B108              mov cl,0x8
0000113D  D3E0              shl ax,cl
0000113F  5A                pop dx
00001140  0BD0              or dx,ax
00001142  8915              mov [di],dx
00001144  8A4401            mov al,[si+0x1]
00001147  98                cbw
00001148  25FC00            and ax,0xfc
0000114B  B102              mov cl,0x2
0000114D  D3F8              sar ax,cl
0000114F  50                push ax
00001150  8A4402            mov al,[si+0x2]
00001153  98                cbw
00001154  250F00            and ax,0xf
00001157  B106              mov cl,0x6
00001159  D3E0              shl ax,cl
0000115B  5A                pop dx
0000115C  0BD0              or dx,ax
0000115E  895502            mov [di+0x2],dx
00001161  8A4402            mov al,[si+0x2]
00001164  98                cbw
00001165  25F000            and ax,0xf0
00001168  B104              mov cl,0x4
0000116A  D3F8              sar ax,cl
0000116C  50                push ax
0000116D  8A4403            mov al,[si+0x3]
00001170  98                cbw
00001171  253F00            and ax,0x3f
00001174  D3E0              shl ax,cl
00001176  5A                pop dx
00001177  0BD0              or dx,ax
00001179  895504            mov [di+0x4],dx
0000117C  8A4403            mov al,[si+0x3]
0000117F  98                cbw
00001180  25C000            and ax,0xc0
00001183  B106              mov cl,0x6
00001185  D3F8              sar ax,cl
00001187  50                push ax
00001188  8A4404            mov al,[si+0x4]
0000118B  98                cbw
0000118C  25FF00            and ax,0xff
0000118F  B102              mov cl,0x2
00001191  D3E0              shl ax,cl
00001193  5A                pop dx
00001194  0BD0              or dx,ax
00001196  895506            mov [di+0x6],dx
00001199  5F                pop di
0000119A  5E                pop si
0000119B  5D                pop bp
0000119C  C3                ret
0000119D  55                push bp
0000119E  8BEC              mov bp,sp
000011A0  56                push si
000011A1  57                push di
000011A2  8B7E04            mov di,[bp+0x4]
000011A5  8B4E06            mov cx,[bp+0x6]
000011A8  8BC1              mov ax,cx
000011AA  D1E0              shl ax,1
000011AC  8B7608            mov si,[bp+0x8]
000011AF  03F0              add si,ax
000011B1  83C6FE            add si,byte -0x2
000011B4  33D2              xor dx,dx
000011B6  3BD1              cmp dx,cx
000011B8  7D11              jnl 0x11cb
000011BA  8BC7              mov ax,di
000011BC  250100            and ax,0x1
000011BF  8904              mov [si],ax
000011C1  83EE02            sub si,byte +0x2
000011C4  D1FF              sar di,1
000011C6  42                inc dx
000011C7  3BD1              cmp dx,cx
000011C9  7CEF              jl 0x11ba
000011CB  5F                pop di
000011CC  5E                pop si
000011CD  5D                pop bp
000011CE  C3                ret
000011CF  55                push bp
000011D0  8BEC              mov bp,sp
000011D2  56                push si
000011D3  57                push di
000011D4  8B5604            mov dx,[bp+0x4]
000011D7  8B4E06            mov cx,[bp+0x6]
000011DA  8BC1              mov ax,cx
000011DC  48                dec ax
000011DD  D1E0              shl ax,1
000011DF  03D0              add dx,ax
000011E1  33F6              xor si,si
000011E3  BF0100            mov di,0x1
000011E6  EB0E              jmp short 0x11f6
000011E8  8BDA              mov bx,dx
000011EA  83EA02            sub dx,byte +0x2
000011ED  833F00            cmp word [bx],byte +0x0
000011F0  7402              jz 0x11f4
000011F2  0BF7              or si,di
000011F4  D1E7              shl di,1
000011F6  8BC1              mov ax,cx
000011F8  49                dec cx
000011F9  0BC0              or ax,ax
000011FB  7FEB              jg 0x11e8
000011FD  8BC6              mov ax,si
000011FF  5F                pop di
00001200  5E                pop si
00001201  5D                pop bp
00001202  C3                ret
00001203  55                push bp
00001204  8BEC              mov bp,sp
00001206  FF7604            push word [bp+0x4]
00001209  E82801            call 0x1334
0000120C  59                pop cx
0000120D  BAFF03            mov dx,0x3ff
00001210  2BD0              sub dx,ax
00001212  52                push dx
00001213  E8EE00            call 0x1304
00001216  59                pop cx
00001217  5D                pop bp
00001218  C3                ret
00001219  55                push bp
0000121A  8BEC              mov bp,sp
0000121C  56                push si
0000121D  8B4604            mov ax,[bp+0x4]
00001220  8B7606            mov si,[bp+0x6]
00001223  0BC0              or ax,ax
00001225  7404              jz 0x122b
00001227  0BF6              or si,si
00001229  7504              jnz 0x122f
0000122B  33C0              xor ax,ax
0000122D  EB1D              jmp short 0x124c
0000122F  50                push ax
00001230  E80101            call 0x1334
00001233  59                pop cx
00001234  50                push ax
00001235  56                push si
00001236  E8FB00            call 0x1334
00001239  59                pop cx
0000123A  5A                pop dx
0000123B  03D0              add dx,ax
0000123D  8BC2              mov ax,dx
0000123F  3DFF03            cmp ax,0x3ff
00001242  7E03              jng 0x1247
00001244  2DFF03            sub ax,0x3ff
00001247  50                push ax
00001248  E8B900            call 0x1304
0000124B  59                pop cx
0000124C  5E                pop si
0000124D  5D                pop bp
0000124E  C3                ret
0000124F  55                push bp
00001250  8BEC              mov bp,sp
00001252  FF7606            push word [bp+0x6]
00001255  E8ABFF            call 0x1203
00001258  59                pop cx
00001259  50                push ax
0000125A  FF7604            push word [bp+0x4]
0000125D  E8B9FF            call 0x1219
00001260  59                pop cx
00001261  59                pop cx
00001262  5D                pop bp
00001263  C3                ret
00001264  55                push bp
00001265  8BEC              mov bp,sp
00001267  83EC0A            sub sp,byte +0xa
0000126A  56                push si
0000126B  57                push di
0000126C  33FF              xor di,di
0000126E  BEFE01            mov si,0x1fe
00001271  E98200            jmp 0x12f6
00001274  8B5E04            mov bx,[bp+0x4]
00001277  8B07              mov ax,[bx]
00001279  8946F8            mov [bp-0x8],ax
0000127C  56                push si
0000127D  E88400            call 0x1304
00001280  59                pop cx
00001281  8946FA            mov [bp-0x6],ax
00001284  8946FC            mov [bp-0x4],ax
00001287  8BD6              mov dx,si
00001289  03D6              add dx,si
0000128B  81FAFF03          cmp dx,0x3ff
0000128F  7C04              jl 0x1295
00001291  81EAFF03          sub dx,0x3ff
00001295  03D2              add dx,dx
00001297  81FAFF03          cmp dx,0x3ff
0000129B  7C04              jl 0x12a1
0000129D  81EAFF03          sub dx,0x3ff
000012A1  52                push dx
000012A2  E85F00            call 0x1304
000012A5  59                pop cx
000012A6  8946F6            mov [bp-0xa],ax
000012A9  C746FE0100        mov word [bp-0x2],0x1
000012AE  EB28              jmp short 0x12d8
000012B0  FF76FA            push word [bp-0x6]
000012B3  8B46FE            mov ax,[bp-0x2]
000012B6  D1E0              shl ax,1
000012B8  8B5E04            mov bx,[bp+0x4]
000012BB  03D8              add bx,ax
000012BD  FF37              push word [bx]
000012BF  E857FF            call 0x1219
000012C2  59                pop cx
000012C3  59                pop cx
000012C4  3146F8            xor [bp-0x8],ax
000012C7  FF76FA            push word [bp-0x6]
000012CA  FF76FC            push word [bp-0x4]
000012CD  E849FF            call 0x1219
000012D0  59                pop cx
000012D1  59                pop cx
000012D2  8946FA            mov [bp-0x6],ax
000012D5  FF46FE            inc word [bp-0x2]
000012D8  837EFE04          cmp word [bp-0x2],byte +0x4
000012DC  7CD2              jl 0x12b0
000012DE  FF76F6            push word [bp-0xa]
000012E1  FF76F8            push word [bp-0x8]
000012E4  E868FF            call 0x124f
000012E7  59                pop cx
000012E8  59                pop cx
000012E9  8BD7              mov dx,di
000012EB  D1E2              shl dx,1
000012ED  8B5E06            mov bx,[bp+0x6]
000012F0  03DA              add bx,dx
000012F2  8907              mov [bx],ax
000012F4  47                inc di
000012F5  46                inc si
000012F6  83FF04            cmp di,byte +0x4
000012F9  7D03              jnl 0x12fe
000012FB  E976FF            jmp 0x1274
000012FE  5F                pop di
000012FF  5E                pop si
00001300  8BE5              mov sp,bp
00001302  5D                pop bp
00001303  C3                ret
00001304  55                push bp
00001305  8BEC              mov bp,sp
00001307  8B4E04            mov cx,[bp+0x4]
0000130A  33DB              xor bx,bx
0000130C  BA0100            mov dx,0x1
0000130F  3BD9              cmp bx,cx
00001311  7D1D              jnl 0x1330
00001313  D1E2              shl dx,1
00001315  81FAFF03          cmp dx,0x3ff
00001319  7E10              jng 0x132b
0000131B  F7C20800          test dx,0x8
0000131F  7406              jz 0x1327
00001321  81EA0704          sub dx,0x407
00001325  EB04              jmp short 0x132b
00001327  81EAF703          sub dx,0x3f7
0000132B  43                inc bx
0000132C  3BD9              cmp bx,cx
0000132E  7CE3              jl 0x1313
00001330  8BC2              mov ax,dx
00001332  5D                pop bp
00001333  C3                ret
00001334  55                push bp
00001335  8BEC              mov bp,sp
00001337  8B4E04            mov cx,[bp+0x4]
0000133A  0BC9              or cx,cx
0000133C  7505              jnz 0x1343
0000133E  B8FFFF            mov ax,0xffff
00001341  EB30              jmp short 0x1373
00001343  33DB              xor bx,bx
00001345  BA0100            mov dx,0x1
00001348  EB21              jmp short 0x136b
0000134A  3BD1              cmp dx,cx
0000134C  7504              jnz 0x1352
0000134E  8BC3              mov ax,bx
00001350  EB21              jmp short 0x1373
00001352  D1E2              shl dx,1
00001354  81FAFF03          cmp dx,0x3ff
00001358  7E10              jng 0x136a
0000135A  F7C20800          test dx,0x8
0000135E  7406              jz 0x1366
00001360  81EA0704          sub dx,0x407
00001364  EB04              jmp short 0x136a
00001366  81EAF703          sub dx,0x3f7
0000136A  43                inc bx
0000136B  81FBFF03          cmp bx,0x3ff
0000136F  7ED9              jng 0x134a
00001371  33C0              xor ax,ax
00001373  5D                pop bp
00001374  C3                ret
00001375  55                push bp
00001376  8BEC              mov bp,sp
00001378  83EC0A            sub sp,byte +0xa
0000137B  56                push si
0000137C  57                push di
0000137D  33FF              xor di,di
0000137F  33F6              xor si,si
00001381  3B7E08            cmp di,[bp+0x8]
00001384  7C03              jl 0x1389
00001386  E91201            jmp 0x149b
00001389  8BC7              mov ax,di
0000138B  D1E0              shl ax,1
0000138D  8B5E04            mov bx,[bp+0x4]
00001390  03D8              add bx,ax
00001392  8B07              mov ax,[bx]
00001394  8946FE            mov [bp-0x2],ax
00001397  8BC7              mov ax,di
00001399  D1E0              shl ax,1
0000139B  8B5E06            mov bx,[bp+0x6]
0000139E  03D8              add bx,ax
000013A0  8B07              mov ax,[bx]
000013A2  8946F8            mov [bp-0x8],ax
000013A5  8B46FE            mov ax,[bp-0x2]
000013A8  BA0A00            mov dx,0xa
000013AB  F7EA              imul dx
000013AD  05FAFF            add ax,0xfffa
000013B0  8BD8              mov bx,ax
000013B2  B103              mov cl,0x3
000013B4  D3F8              sar ax,cl
000013B6  8946F6            mov [bp-0xa],ax
000013B9  D3E0              shl ax,cl
000013BB  2BD8              sub bx,ax
000013BD  FF46F6            inc word [bp-0xa]
000013C0  83FB07            cmp bx,byte +0x7
000013C3  7562              jnz 0x1427
000013C5  8BC6              mov ax,si
000013C7  D1E0              shl ax,1
000013C9  8B5E0A            mov bx,[bp+0xa]
000013CC  03D8              add bx,ax
000013CE  8B46F6            mov ax,[bp-0xa]
000013D1  40                inc ax
000013D2  8907              mov [bx],ax
000013D4  F746F80100        test word [bp-0x8],0x1
000013D9  7405              jz 0x13e0
000013DB  B88000            mov ax,0x80
000013DE  EB02              jmp short 0x13e2
000013E0  33C0              xor ax,ax
000013E2  8BD6              mov dx,si
000013E4  D1E2              shl dx,1
000013E6  8B5E0C            mov bx,[bp+0xc]
000013E9  03DA              add bx,dx
000013EB  8907              mov [bx],ax
000013ED  46                inc si
000013EE  D17EF8            sar word [bp-0x8],1
000013F1  8BC6              mov ax,si
000013F3  D1E0              shl ax,1
000013F5  8B5E0A            mov bx,[bp+0xa]
000013F8  03D8              add bx,ax
000013FA  8B46F6            mov ax,[bp-0xa]
000013FD  8907              mov [bx],ax
000013FF  8BC6              mov ax,si
00001401  D1E0              shl ax,1
00001403  8B5E0C            mov bx,[bp+0xc]
00001406  03D8              add bx,ax
00001408  8B46F8            mov ax,[bp-0x8]
0000140B  25FF00            and ax,0xff
0000140E  8907              mov [bx],ax
00001410  46                inc si
00001411  B108              mov cl,0x8
00001413  D37EF8            sar word [bp-0x8],cl
00001416  8BC6              mov ax,si
00001418  D1E0              shl ax,1
0000141A  8B5E0C            mov bx,[bp+0xc]
0000141D  03D8              add bx,ax
0000141F  8B46F8            mov ax,[bp-0x8]
00001422  25FF00            and ax,0xff
00001425  EB68              jmp short 0x148f
00001427  B80800            mov ax,0x8
0000142A  2BC3              sub ax,bx
0000142C  8946FC            mov [bp-0x4],ax
0000142F  B80A00            mov ax,0xa
00001432  2B46FC            sub ax,[bp-0x4]
00001435  8946FA            mov [bp-0x6],ax
00001438  8BC6              mov ax,si
0000143A  D1E0              shl ax,1
0000143C  8B5E0A            mov bx,[bp+0xa]
0000143F  03D8              add bx,ax
00001441  8B46F6            mov ax,[bp-0xa]
00001444  8907              mov [bx],ax
00001446  8B5EFA            mov bx,[bp-0x6]
00001449  D1E3              shl bx,1
0000144B  8B46F8            mov ax,[bp-0x8]
0000144E  23871217          and ax,[bx+0x1712]
00001452  B108              mov cl,0x8
00001454  2A4EFA            sub cl,[bp-0x6]
00001457  D3E0              shl ax,cl
00001459  8BD6              mov dx,si
0000145B  D1E2              shl dx,1
0000145D  8B5E0C            mov bx,[bp+0xc]
00001460  03DA              add bx,dx
00001462  8907              mov [bx],ax
00001464  46                inc si
00001465  8A4EFA            mov cl,[bp-0x6]
00001468  D37EF8            sar word [bp-0x8],cl
0000146B  8BC6              mov ax,si
0000146D  D1E0              shl ax,1
0000146F  8B5E0A            mov bx,[bp+0xa]
00001472  03D8              add bx,ax
00001474  8B46F6            mov ax,[bp-0xa]
00001477  48                dec ax
00001478  8907              mov [bx],ax
0000147A  8B5EFC            mov bx,[bp-0x4]
0000147D  D1E3              shl bx,1
0000147F  8B46F8            mov ax,[bp-0x8]
00001482  23871217          and ax,[bx+0x1712]
00001486  8BD6              mov dx,si
00001488  D1E2              shl dx,1
0000148A  8B5E0C            mov bx,[bp+0xc]
0000148D  03DA              add bx,dx
0000148F  8907              mov [bx],ax
00001491  46                inc si
00001492  47                inc di
00001493  3B7E08            cmp di,[bp+0x8]
00001496  7D03              jnl 0x149b
00001498  E9EEFE            jmp 0x1389
0000149B  33FF              xor di,di
0000149D  B9FFFF            mov cx,0xffff
000014A0  3BFE              cmp di,si
000014A2  7D74              jnl 0x1518
000014A4  8BC7              mov ax,di
000014A6  D1E0              shl ax,1
000014A8  8B5E0C            mov bx,[bp+0xc]
000014AB  03D8              add bx,ax
000014AD  833F00            cmp word [bx],byte +0x0
000014B0  7461              jz 0x1513
000014B2  8BC7              mov ax,di
000014B4  D1E0              shl ax,1
000014B6  8B5E0A            mov bx,[bp+0xa]
000014B9  03D8              add bx,ax
000014BB  8B07              mov ax,[bx]
000014BD  8BD1              mov dx,cx
000014BF  D1E2              shl dx,1
000014C1  8B5E0A            mov bx,[bp+0xa]
000014C4  03DA              add bx,dx
000014C6  3B07              cmp ax,[bx]
000014C8  751C              jnz 0x14e6
000014CA  0BC9              or cx,cx
000014CC  7C18              jl 0x14e6
000014CE  8BC7              mov ax,di
000014D0  D1E0              shl ax,1
000014D2  8B5E0C            mov bx,[bp+0xc]
000014D5  03D8              add bx,ax
000014D7  8B07              mov ax,[bx]
000014D9  8BD1              mov dx,cx
000014DB  D1E2              shl dx,1
000014DD  8B5E0C            mov bx,[bp+0xc]
000014E0  03DA              add bx,dx
000014E2  0907              or [bx],ax
000014E4  EB2D              jmp short 0x1513
000014E6  41                inc cx
000014E7  8BC7              mov ax,di
000014E9  D1E0              shl ax,1
000014EB  8B5E0A            mov bx,[bp+0xa]
000014EE  03D8              add bx,ax
000014F0  8B07              mov ax,[bx]
000014F2  8BD1              mov dx,cx
000014F4  D1E2              shl dx,1
000014F6  8B5E0A            mov bx,[bp+0xa]
000014F9  03DA              add bx,dx
000014FB  8907              mov [bx],ax
000014FD  8BC7              mov ax,di
000014FF  D1E0              shl ax,1
00001501  8B5E0C            mov bx,[bp+0xc]
00001504  03D8              add bx,ax
00001506  8B07              mov ax,[bx]
00001508  8BD1              mov dx,cx
0000150A  D1E2              shl dx,1
0000150C  8B5E0C            mov bx,[bp+0xc]
0000150F  03DA              add bx,dx
00001511  8907              mov [bx],ax
00001513  47                inc di
00001514  3BFE              cmp di,si
00001516  7C8C              jl 0x14a4
00001518  8BC1              mov ax,cx
0000151A  40                inc ax
0000151B  5F                pop di
0000151C  5E                pop si
0000151D  8BE5              mov sp,bp
0000151F  5D                pop bp
00001520  C3                ret
00001521  55                push bp
00001522  8BEC              mov bp,sp
00001524  FF7604            push word [bp+0x4]
00001527  E80AFE            call 0x1334
0000152A  59                pop cx
0000152B  8BD0              mov dx,ax
0000152D  33DB              xor bx,bx
0000152F  33C9              xor cx,cx
00001531  F7C20002          test dx,0x200
00001535  7403              jz 0x153a
00001537  B90100            mov cx,0x1
0000153A  D1E2              shl dx,1
0000153C  81E2FF03          and dx,0x3ff
00001540  0BD1              or dx,cx
00001542  43                inc bx
00001543  83FB09            cmp bx,byte +0x9
00001546  7CE7              jl 0x152f
00001548  52                push dx
00001549  E8B8FD            call 0x1304
0000154C  59                pop cx
0000154D  5D                pop bp
0000154E  C3                ret
0000154F  55                push bp
00001550  8BEC              mov bp,sp
00001552  83EC42            sub sp,byte +0x42
00001555  56                push si
00001556  57                push di
00001557  8B7604            mov si,[bp+0x4]
0000155A  8B7E08            mov di,[bp+0x8]
0000155D  33C9              xor cx,cx
0000155F  33D2              xor dx,dx
00001561  8BDA              mov bx,dx
00001563  D1E3              shl bx,1
00001565  833800            cmp word [bx+si],byte +0x0
00001568  7401              jz 0x156b
0000156A  41                inc cx
0000156B  42                inc dx
0000156C  83FA04            cmp dx,byte +0x4
0000156F  7CF0              jl 0x1561
00001571  0BC9              or cx,cx
00001573  7505              jnz 0x157a
00001575  33C0              xor ax,ax
00001577  E9DF02            jmp 0x1859
0000157A  83F904            cmp cx,byte +0x4
0000157D  7D03              jnl 0x1582
0000157F  E98700            jmp 0x1609
00001582  FF34              push word [si]
00001584  FF7402            push word [si+0x2]
00001587  E8C5FC            call 0x124f
0000158A  59                pop cx
0000158B  59                pop cx
0000158C  8946F6            mov [bp-0xa],ax
0000158F  FF7402            push word [si+0x2]
00001592  FF7404            push word [si+0x4]
00001595  E8B7FC            call 0x124f
00001598  59                pop cx
00001599  59                pop cx
0000159A  8946F4            mov [bp-0xc],ax
0000159D  FF7404            push word [si+0x4]
000015A0  FF7406            push word [si+0x6]
000015A3  E8A9FC            call 0x124f
000015A6  59                pop cx
000015A7  59                pop cx
000015A8  8946F2            mov [bp-0xe],ax
000015AB  8B46F6            mov ax,[bp-0xa]
000015AE  3B46F4            cmp ax,[bp-0xc]
000015B1  7556              jnz 0x1609
000015B3  8B46F4            mov ax,[bp-0xc]
000015B6  3B46F2            cmp ax,[bp-0xe]
000015B9  754E              jnz 0x1609
000015BB  FF76F6            push word [bp-0xa]
000015BE  E873FD            call 0x1334
000015C1  59                pop cx
000015C2  8BD0              mov dx,ax
000015C4  81FA9E01          cmp dx,0x19e
000015C8  7F3F              jg 0x1609
000015CA  8B5E06            mov bx,[bp+0x6]
000015CD  8917              mov [bx],dx
000015CF  FF76F6            push word [bp-0xa]
000015D2  E82EFC            call 0x1203
000015D5  59                pop cx
000015D6  8BC8              mov cx,ax
000015D8  C746E60000        mov word [bp-0x1a],0x0
000015DD  51                push cx
000015DE  51                push cx
000015DF  E837FC            call 0x1219
000015E2  59                pop cx
000015E3  59                pop cx
000015E4  8BC8              mov cx,ax
000015E6  FF46E6            inc word [bp-0x1a]
000015E9  837EE609          cmp word [bp-0x1a],byte +0x9
000015ED  7CEE              jl 0x15dd
000015EF  FF7402            push word [si+0x2]
000015F2  FF76F6            push word [bp-0xa]
000015F5  51                push cx
000015F6  E820FC            call 0x1219
000015F9  59                pop cx
000015FA  59                pop cx
000015FB  50                push ax
000015FC  E81AFC            call 0x1219
000015FF  59                pop cx
00001600  59                pop cx
00001601  8905              mov [di],ax
00001603  B80100            mov ax,0x1
00001606  E95002            jmp 0x1859
00001609  FF7404            push word [si+0x4]
0000160C  FF34              push word [si]
0000160E  E808FC            call 0x1219
00001611  59                pop cx
00001612  59                pop cx
00001613  50                push ax
00001614  FF7402            push word [si+0x2]
00001617  FF7402            push word [si+0x2]
0000161A  E8FCFB            call 0x1219
0000161D  59                pop cx
0000161E  59                pop cx
0000161F  5A                pop dx
00001620  33D0              xor dx,ax
00001622  8956FC            mov [bp-0x4],dx
00001625  837EFC00          cmp word [bp-0x4],byte +0x0
00001629  7503              jnz 0x162e
0000162B  E9E701            jmp 0x1815
0000162E  FF7406            push word [si+0x6]
00001631  FF7402            push word [si+0x2]
00001634  E8E2FB            call 0x1219
00001637  59                pop cx
00001638  59                pop cx
00001639  50                push ax
0000163A  FF7404            push word [si+0x4]
0000163D  FF7404            push word [si+0x4]
00001640  E8D6FB            call 0x1219
00001643  59                pop cx
00001644  59                pop cx
00001645  5A                pop dx
00001646  33D0              xor dx,ax
00001648  8BCA              mov cx,dx
0000164A  0BC9              or cx,cx
0000164C  7503              jnz 0x1651
0000164E  E9C401            jmp 0x1815
00001651  FF76FC            push word [bp-0x4]
00001654  51                push cx
00001655  E8F7FB            call 0x124f
00001658  59                pop cx
00001659  59                pop cx
0000165A  8946EA            mov [bp-0x16],ax
0000165D  FF7404            push word [si+0x4]
00001660  FF7402            push word [si+0x2]
00001663  E8B3FB            call 0x1219
00001666  59                pop cx
00001667  59                pop cx
00001668  50                push ax
00001669  FF7406            push word [si+0x6]
0000166C  FF34              push word [si]
0000166E  E8A8FB            call 0x1219
00001671  59                pop cx
00001672  59                pop cx
00001673  5A                pop dx
00001674  33D0              xor dx,ax
00001676  8BCA              mov cx,dx
00001678  0BC9              or cx,cx
0000167A  7503              jnz 0x167f
0000167C  E99601            jmp 0x1815
0000167F  FF76FC            push word [bp-0x4]
00001682  51                push cx
00001683  E8C9FB            call 0x124f
00001686  59                pop cx
00001687  59                pop cx
00001688  8946EC            mov [bp-0x14],ax
0000168B  50                push ax
0000168C  50                push ax
0000168D  E889FB            call 0x1219
00001690  59                pop cx
00001691  59                pop cx
00001692  50                push ax
00001693  FF76EA            push word [bp-0x16]
00001696  E8B6FB            call 0x124f
00001699  59                pop cx
0000169A  59                pop cx
0000169B  8946FE            mov [bp-0x2],ax
0000169E  8D46BE            lea ax,[bp-0x42]
000016A1  50                push ax
000016A2  B80A00            mov ax,0xa
000016A5  50                push ax
000016A6  FF76FE            push word [bp-0x2]
000016A9  E8F1FA            call 0x119d
000016AC  83C406            add sp,byte +0x6
000016AF  837EC200          cmp word [bp-0x3e],byte +0x0
000016B3  7403              jz 0x16b8
000016B5  E95D01            jmp 0x1815
000016B8  8B46D0            mov ax,[bp-0x30]
000016BB  8946DA            mov [bp-0x26],ax
000016BE  8B46BE            mov ax,[bp-0x42]
000016C1  3346C0            xor ax,[bp-0x40]
000016C4  8946DC            mov [bp-0x24],ax
000016C7  8B46CA            mov ax,[bp-0x36]
000016CA  3346D0            xor ax,[bp-0x30]
000016CD  8946DE            mov [bp-0x22],ax
000016D0  8B46C6            mov ax,[bp-0x3a]
000016D3  3346D0            xor ax,[bp-0x30]
000016D6  8946D8            mov [bp-0x28],ax
000016D9  8B46C4            mov ax,[bp-0x3c]
000016DC  3346C6            xor ax,[bp-0x3a]
000016DF  3346CA            xor ax,[bp-0x36]
000016E2  8946D4            mov [bp-0x2c],ax
000016E5  8B46BE            mov ax,[bp-0x42]
000016E8  3346D4            xor ax,[bp-0x2c]
000016EB  8946D2            mov [bp-0x2e],ax
000016EE  8B46CE            mov ax,[bp-0x32]
000016F1  3346D2            xor ax,[bp-0x2e]
000016F4  8946E2            mov [bp-0x1e],ax
000016F7  8B46CC            mov ax,[bp-0x34]
000016FA  3346D8            xor ax,[bp-0x28]
000016FD  3346E2            xor ax,[bp-0x1e]
00001700  8946E0            mov [bp-0x20],ax
00001703  8B46C8            mov ax,[bp-0x38]
00001706  3346E0            xor ax,[bp-0x20]
00001709  3346DC            xor ax,[bp-0x24]
0000170C  3346D2            xor ax,[bp-0x2e]
0000170F  8946D6            mov [bp-0x2a],ax
00001712  C746E40000        mov word [bp-0x1c],0x0
00001717  B80A00            mov ax,0xa
0000171A  50                push ax
0000171B  8D46D2            lea ax,[bp-0x2e]
0000171E  50                push ax
0000171F  E8ADFA            call 0x11cf
00001722  59                pop cx
00001723  59                pop cx
00001724  8946FA            mov [bp-0x6],ax
00001727  0D0100            or ax,0x1
0000172A  8946F8            mov [bp-0x8],ax
0000172D  FF76FA            push word [bp-0x6]
00001730  FF76EC            push word [bp-0x14]
00001733  E8E3FA            call 0x1219
00001736  59                pop cx
00001737  59                pop cx
00001738  8946FA            mov [bp-0x6],ax
0000173B  FF76F8            push word [bp-0x8]
0000173E  FF76EC            push word [bp-0x14]
00001741  E8D5FA            call 0x1219
00001744  59                pop cx
00001745  59                pop cx
00001746  8946F8            mov [bp-0x8],ax
00001749  FF76FA            push word [bp-0x6]
0000174C  E8E5FB            call 0x1334
0000174F  59                pop cx
00001750  8946F0            mov [bp-0x10],ax
00001753  FF76F8            push word [bp-0x8]
00001756  E8DBFB            call 0x1334
00001759  59                pop cx
0000175A  8946EE            mov [bp-0x12],ax
0000175D  817EF09E01        cmp word [bp-0x10],0x19e
00001762  7E03              jng 0x1767
00001764  E9AE00            jmp 0x1815
00001767  817EEE9E01        cmp word [bp-0x12],0x19e
0000176C  7E03              jng 0x1771
0000176E  E9A400            jmp 0x1815
00001771  8B46FA            mov ax,[bp-0x6]
00001774  3346F8            xor ax,[bp-0x8]
00001777  8946F6            mov [bp-0xa],ax
0000177A  FF76FA            push word [bp-0x6]
0000177D  E8A1FD            call 0x1521
00001780  59                pop cx
00001781  8946F4            mov [bp-0xc],ax
00001784  FF76FA            push word [bp-0x6]
00001787  FF76FA            push word [bp-0x6]
0000178A  E88CFA            call 0x1219
0000178D  59                pop cx
0000178E  59                pop cx
0000178F  8BC8              mov cx,ax
00001791  50                push ax
00001792  FF76F4            push word [bp-0xc]
00001795  E8B7FA            call 0x124f
00001798  59                pop cx
00001799  59                pop cx
0000179A  8946F4            mov [bp-0xc],ax
0000179D  FF76F6            push word [bp-0xa]
000017A0  50                push ax
000017A1  E875FA            call 0x1219
000017A4  59                pop cx
000017A5  59                pop cx
000017A6  8946E8            mov [bp-0x18],ax
000017A9  837EE800          cmp word [bp-0x18],byte +0x0
000017AD  7466              jz 0x1815
000017AF  FF76F8            push word [bp-0x8]
000017B2  FF34              push word [si]
000017B4  E862FA            call 0x1219
000017B7  59                pop cx
000017B8  59                pop cx
000017B9  334402            xor ax,[si+0x2]
000017BC  8BD0              mov dx,ax
000017BE  0BD2              or dx,dx
000017C0  7453              jz 0x1815
000017C2  FF76E8            push word [bp-0x18]
000017C5  52                push dx
000017C6  E886FA            call 0x124f
000017C9  59                pop cx
000017CA  59                pop cx
000017CB  8905              mov [di],ax
000017CD  FF76F8            push word [bp-0x8]
000017D0  E84EFD            call 0x1521
000017D3  59                pop cx
000017D4  8946F4            mov [bp-0xc],ax
000017D7  FF76F8            push word [bp-0x8]
000017DA  FF76F8            push word [bp-0x8]
000017DD  E839FA            call 0x1219
000017E0  59                pop cx
000017E1  59                pop cx
000017E2  8BC8              mov cx,ax
000017E4  50                push ax
000017E5  FF76F4            push word [bp-0xc]
000017E8  E864FA            call 0x124f
000017EB  59                pop cx
000017EC  59                pop cx
000017ED  8946F4            mov [bp-0xc],ax
000017F0  FF76F6            push word [bp-0xa]
000017F3  50                push ax
000017F4  E822FA            call 0x1219
000017F7  59                pop cx
000017F8  59                pop cx
000017F9  8946E8            mov [bp-0x18],ax
000017FC  837EE800          cmp word [bp-0x18],byte +0x0
00001800  7413              jz 0x1815
00001802  FF76FA            push word [bp-0x6]
00001805  FF34              push word [si]
00001807  E80FFA            call 0x1219
0000180A  59                pop cx
0000180B  59                pop cx
0000180C  334402            xor ax,[si+0x2]
0000180F  8BD0              mov dx,ax
00001811  0BD2              or dx,dx
00001813  7505              jnz 0x181a
00001815  B8FFFF            mov ax,0xffff
00001818  EB3F              jmp short 0x1859
0000181A  FF76E8            push word [bp-0x18]
0000181D  52                push dx
0000181E  E82EFA            call 0x124f
00001821  59                pop cx
00001822  59                pop cx
00001823  894502            mov [di+0x2],ax
00001826  8B46F0            mov ax,[bp-0x10]
00001829  3B46EE            cmp ax,[bp-0x12]
0000182C  7E1A              jng 0x1848
0000182E  8B5E06            mov bx,[bp+0x6]
00001831  8B46EE            mov ax,[bp-0x12]
00001834  8907              mov [bx],ax
00001836  8B46F0            mov ax,[bp-0x10]
00001839  894702            mov [bx+0x2],ax
0000183C  8B0D              mov cx,[di]
0000183E  8B4502            mov ax,[di+0x2]
00001841  8905              mov [di],ax
00001843  894D02            mov [di+0x2],cx
00001846  EB0E              jmp short 0x1856
00001848  8B5E06            mov bx,[bp+0x6]
0000184B  8B46F0            mov ax,[bp-0x10]
0000184E  8907              mov [bx],ax
00001850  8B46EE            mov ax,[bp-0x12]
00001853  894702            mov [bx+0x2],ax
00001856  B80200            mov ax,0x2
00001859  5F                pop di
0000185A  5E                pop si
0000185B  8BE5              mov sp,bp
0000185D  5D                pop bp
0000185E  C3                ret
0000185F  55                push bp
00001860  8BEC              mov bp,sp
00001862  83EC1A            sub sp,byte +0x1a
00001865  56                push si
00001866  57                push di
00001867  8B7604            mov si,[bp+0x4]
0000186A  8B7E06            mov di,[bp+0x6]
0000186D  8D46E6            lea ax,[bp-0x1a]
00001870  50                push ax
00001871  56                push si
00001872  E8ADF8            call 0x1122
00001875  59                pop cx
00001876  59                pop cx
00001877  8A4405            mov al,[si+0x5]
0000187A  98                cbw
0000187B  25FF00            and ax,0xff
0000187E  8946FE            mov [bp-0x2],ax
00001881  8D46F6            lea ax,[bp-0xa]
00001884  50                push ax
00001885  8D46E6            lea ax,[bp-0x1a]
00001888  50                push ax
00001889  E8D8F9            call 0x1264
0000188C  59                pop cx
0000188D  59                pop cx
0000188E  8D46EE            lea ax,[bp-0x12]
00001891  50                push ax
00001892  8D46F2            lea ax,[bp-0xe]
00001895  50                push ax
00001896  8D46F6            lea ax,[bp-0xa]
00001899  50                push ax
0000189A  E8B2FC            call 0x154f
0000189D  83C406            add sp,byte +0x6
000018A0  8BF0              mov si,ax
000018A2  0BF6              or si,si
000018A4  7504              jnz 0x18aa
000018A6  33C0              xor ax,ax
000018A8  EB74              jmp short 0x191e
000018AA  0BF6              or si,si
000018AC  7C68              jl 0x1916
000018AE  33C9              xor cx,cx
000018B0  3BCE              cmp cx,si
000018B2  7D1E              jnl 0x18d2
000018B4  8BD9              mov bx,cx
000018B6  D1E3              shl bx,1
000018B8  8D46F2            lea ax,[bp-0xe]
000018BB  03D8              add bx,ax
000018BD  B89E01            mov ax,0x19e
000018C0  2B07              sub ax,[bx]
000018C2  8BD9              mov bx,cx
000018C4  D1E3              shl bx,1
000018C6  8D56F2            lea dx,[bp-0xe]
000018C9  03DA              add bx,dx
000018CB  8907              mov [bx],ax
000018CD  41                inc cx
000018CE  3BCE              cmp cx,si
000018D0  7CE2              jl 0x18b4
000018D2  FF760A            push word [bp+0xa]
000018D5  FF7608            push word [bp+0x8]
000018D8  56                push si
000018D9  8D46EE            lea ax,[bp-0x12]
000018DC  50                push ax
000018DD  8D46F2            lea ax,[bp-0xe]
000018E0  50                push ax
000018E1  E891FA            call 0x1375
000018E4  83C40A            add sp,byte +0xa
000018E7  8805              mov [di],al
000018E9  33C9              xor cx,cx
000018EB  8BD1              mov dx,cx
000018ED  EB1B              jmp short 0x190a
000018EF  8BC1              mov ax,cx
000018F1  D1E0              shl ax,1
000018F3  8B5E08            mov bx,[bp+0x8]
000018F6  03D8              add bx,ax
000018F8  813F0002          cmp word [bx],0x200
000018FC  7F0B              jg 0x1909
000018FE  8BC1              mov ax,cx
00001900  D1E0              shl ax,1
00001902  8B5E0A            mov bx,[bp+0xa]
00001905  03D8              add bx,ax
00001907  3317              xor dx,[bx]
00001909  41                inc cx
0000190A  8A05              mov al,[di]
0000190C  98                cbw
0000190D  3BC1              cmp ax,cx
0000190F  7FDE              jg 0x18ef
00001911  3B56FE            cmp dx,[bp-0x2]
00001914  7405              jz 0x191b
00001916  B80200            mov ax,0x2
00001919  EB03              jmp short 0x191e
0000191B  B80100            mov ax,0x1
0000191E  5F                pop di
0000191F  5E                pop si
00001920  8BE5              mov sp,bp
00001922  5D                pop bp
00001923  C3                ret
00001924  55                push bp
00001925  8BEC              mov bp,sp
00001927  83EC1A            sub sp,byte +0x1a
0000192A  56                push si
0000192B  8D46E6            lea ax,[bp-0x1a]
0000192E  50                push ax
0000192F  8D46F2            lea ax,[bp-0xe]
00001932  50                push ax
00001933  8D46FF            lea ax,[bp-0x1]
00001936  50                push ax
00001937  FF7608            push word [bp+0x8]
0000193A  E822FF            call 0x185f
0000193D  83C408            add sp,byte +0x8
00001940  8BD0              mov dx,ax
00001942  83FA01            cmp dx,byte +0x1
00001945  754C              jnz 0x1993
00001947  33C9              xor cx,cx
00001949  EB3C              jmp short 0x1987
0000194B  8A460A            mov al,[bp+0xa]
0000194E  98                cbw
0000194F  8BD9              mov bx,cx
00001951  D1E3              shl bx,1
00001953  8D56F2            lea dx,[bp-0xe]
00001956  03DA              add bx,dx
00001958  8B17              mov dx,[bx]
0000195A  33D0              xor dx,ax
0000195C  81FA0002          cmp dx,0x200
00001960  7D24              jnl 0x1986
00001962  8A460A            mov al,[bp+0xa]
00001965  98                cbw
00001966  8BD9              mov bx,cx
00001968  D1E3              shl bx,1
0000196A  8D56F2            lea dx,[bp-0xe]
0000196D  03DA              add bx,dx
0000196F  8B17              mov dx,[bx]
00001971  33D0              xor dx,ax
00001973  C45E04            les bx,[bp+0x4]
00001976  03DA              add bx,dx
00001978  8BF1              mov si,cx
0000197A  D1E6              shl si,1
0000197C  8D46E6            lea ax,[bp-0x1a]
0000197F  03F0              add si,ax
00001981  8A04              mov al,[si]
00001983  263007            xor [es:bx],al
00001986  41                inc cx
00001987  8A46FF            mov al,[bp-0x1]
0000198A  98                cbw
0000198B  3BC1              cmp ax,cx
0000198D  7FBC              jg 0x194b
0000198F  33C0              xor ax,ax
00001991  EB02              jmp short 0x1995
00001993  8BC2              mov ax,dx
00001995  5E                pop si
00001996  8BE5              mov sp,bp
00001998  5D                pop bp
00001999  C3                ret
0000199A  59                pop cx
0000199B  0E                push cs
0000199C  51                push cx
0000199D  33C9              xor cx,cx
0000199F  EB16              jmp short 0x19b7
000019A1  59                pop cx
000019A2  0E                push cs
000019A3  51                push cx
000019A4  B90100            mov cx,0x1
000019A7  EB0E              jmp short 0x19b7
000019A9  59                pop cx
000019AA  0E                push cs
000019AB  51                push cx
000019AC  B90200            mov cx,0x2
000019AF  EB06              jmp short 0x19b7
000019B1  59                pop cx
000019B2  0E                push cs
000019B3  51                push cx
000019B4  B90300            mov cx,0x3
000019B7  55                push bp
000019B8  56                push si
000019B9  57                push di
000019BA  8BEC              mov bp,sp
000019BC  8BF9              mov di,cx
000019BE  8B460A            mov ax,[bp+0xa]
000019C1  8B560C            mov dx,[bp+0xc]
000019C4  8B5E0E            mov bx,[bp+0xe]
000019C7  8B4E10            mov cx,[bp+0x10]
000019CA  0BC9              or cx,cx
000019CC  7508              jnz 0x19d6
000019CE  0BD2              or dx,dx
000019D0  7469              jz 0x1a3b
000019D2  0BDB              or bx,bx
000019D4  7465              jz 0x1a3b
000019D6  F7C70100          test di,0x1
000019DA  751C              jnz 0x19f8
000019DC  0BD2              or dx,dx
000019DE  790A              jns 0x19ea
000019E0  F7DA              neg dx
000019E2  F7D8              neg ax
000019E4  83DA00            sbb dx,byte +0x0
000019E7  83CF0C            or di,byte +0xc
000019EA  0BC9              or cx,cx
000019EC  790A              jns 0x19f8
000019EE  F7D9              neg cx
000019F0  F7DB              neg bx
000019F2  83D900            sbb cx,byte +0x0
000019F5  83F704            xor di,byte +0x4
000019F8  8BE9              mov bp,cx
000019FA  B92000            mov cx,0x20
000019FD  57                push di
000019FE  33FF              xor di,di
00001A00  33F6              xor si,si
00001A02  D1E0              shl ax,1
00001A04  D1D2              rcl dx,1
00001A06  D1D6              rcl si,1
00001A08  D1D7              rcl di,1
00001A0A  3BFD              cmp di,bp
00001A0C  720B              jc 0x1a19
00001A0E  7704              ja 0x1a14
00001A10  3BF3              cmp si,bx
00001A12  7205              jc 0x1a19
00001A14  2BF3              sub si,bx
00001A16  1BFD              sbb di,bp
00001A18  40                inc ax
00001A19  E2E7              loop 0x1a02
00001A1B  5B                pop bx
00001A1C  F7C30200          test bx,0x2
00001A20  7406              jz 0x1a28
00001A22  8BC6              mov ax,si
00001A24  8BD7              mov dx,di
00001A26  D1EB              shr bx,1
00001A28  F7C30400          test bx,0x4
00001A2C  7407              jz 0x1a35
00001A2E  F7DA              neg dx
00001A30  F7D8              neg ax
00001A32  83DA00            sbb dx,byte +0x0
00001A35  5F                pop di
00001A36  5E                pop si
00001A37  5D                pop bp
00001A38  CA0800            retf 0x8
00001A3B  F7F3              div bx
00001A3D  F7C70200          test di,0x2
00001A41  7401              jz 0x1a44
00001A43  92                xchg ax,dx
00001A44  33D2              xor dx,dx
00001A46  EBED              jmp short 0x1a35
00001A48  5B                pop bx
00001A49  0E                push cs
00001A4A  53                push bx
00001A4B  80F910            cmp cl,0x10
00001A4E  7310              jnc 0x1a60
00001A50  8BD8              mov bx,ax
00001A52  D3E0              shl ax,cl
00001A54  D3E2              shl dx,cl
00001A56  F6D9              neg cl
00001A58  80C110            add cl,0x10
00001A5B  D3EB              shr bx,cl
00001A5D  0BD3              or dx,bx
00001A5F  CB                retf
00001A60  80E910            sub cl,0x10
00001A63  92                xchg ax,dx
00001A64  33C0              xor ax,ax
00001A66  D3E2              shl dx,cl
00001A68  CB                retf
00001A69  5B                pop bx
00001A6A  0E                push cs
00001A6B  53                push bx
00001A6C  80F910            cmp cl,0x10
00001A6F  7310              jnc 0x1a81
00001A71  8BDA              mov bx,dx
00001A73  D3E8              shr ax,cl
00001A75  D3EA              shr dx,cl
00001A77  F6D9              neg cl
00001A79  80C110            add cl,0x10
00001A7C  D3E3              shl bx,cl
00001A7E  0BC3              or ax,bx
00001A80  CB                retf
00001A81  80E910            sub cl,0x10
00001A84  92                xchg ax,dx
00001A85  33D2              xor dx,dx
00001A87  D3E8              shr ax,cl
00001A89  CB                retf
00001A8A  56                push si
00001A8B  96                xchg ax,si
00001A8C  92                xchg ax,dx
00001A8D  85C0              test ax,ax
00001A8F  7402              jz 0x1a93
00001A91  F7E3              mul bx
00001A93  E305              jcxz 0x1a9a
00001A95  91                xchg ax,cx
00001A96  F7E6              mul si
00001A98  03C1              add ax,cx
00001A9A  96                xchg ax,si
00001A9B  F7E3              mul bx
00001A9D  03D6              add dx,si
00001A9F  5E                pop si
00001AA0  C3                ret
00001AA1  55                push bp
00001AA2  8BEC              mov bp,sp
00001AA4  56                push si
00001AA5  8B7604            mov si,[bp+0x4]
00001AA8  8C04              mov [si],es
00001AAA  8C4C02            mov [si+0x2],cs
00001AAD  8C5404            mov [si+0x4],ss
00001AB0  8C5C06            mov [si+0x6],ds
00001AB3  5E                pop si
00001AB4  5D                pop bp
00001AB5  C3                ret
00001AB6  0000              add [bx+si],al
00001AB8  0000              add [bx+si],al
00001ABA  0000              add [bx+si],al
00001ABC  0000              add [bx+si],al
00001ABE  0000              add [bx+si],al
00001AC0  0000              add [bx+si],al
00001AC2  0000              add [bx+si],al
00001AC4  0000              add [bx+si],al
00001AC6  84A8ACA0          test [bx+si+0xa0ac],ch
00001ACA  0000              add [bx+si],al
00001ACC  0000              add [bx+si],al
00001ACE  0000              add [bx+si],al
00001AD0  0000              add [bx+si],al
00001AD2  0200              add al,[bx+si]
00001AD4  0800              or [bx+si],al
00001AD6  0000              add [bx+si],al
00001AD8  0000              add [bx+si],al
00001ADA  0000              add [bx+si],al
00001ADC  0000              add [bx+si],al
00001ADE  0000              add [bx+si],al
00001AE0  0000              add [bx+si],al
00001AE2  0000              add [bx+si],al
00001AE4  0000              add [bx+si],al
00001AE6  0000              add [bx+si],al
00001AE8  0000              add [bx+si],al
00001AEA  0000              add [bx+si],al
00001AEC  0000              add [bx+si],al
00001AEE  0000              add [bx+si],al
00001AF0  0000              add [bx+si],al
00001AF2  0000              add [bx+si],al
00001AF4  0000              add [bx+si],al
00001AF6  0000              add [bx+si],al
00001AF8  0000              add [bx+si],al
00001AFA  0000              add [bx+si],al
00001AFC  0000              add [bx+si],al
00001AFE  0000              add [bx+si],al
00001B00  0000              add [bx+si],al
00001B02  0000              add [bx+si],al
00001B04  0000              add [bx+si],al
00001B06  0000              add [bx+si],al
00001B08  0000              add [bx+si],al
00001B0A  0000              add [bx+si],al
00001B0C  0000              add [bx+si],al
00001B0E  0000              add [bx+si],al
00001B10  0000              add [bx+si],al
00001B12  0000              add [bx+si],al
00001B14  0100              add [bx+si],ax
00001B16  0300              add ax,[bx+si]
00001B18  07                pop es
00001B19  000F              add [bx],cl
00001B1B  001F              add [bx],bl
00001B1D  003F              add [bx],bh
00001B1F  007F00            add [bx+0x0],bh
00001B22  FF00              inc word [bx+si]
00001B24  0000              add [bx+si],al
00001B26  0000              add [bx+si],al
00001B28  0000              add [bx+si],al
00001B2A  0000              add [bx+si],al
00001B2C  0000              add [bx+si],al
00001B2E  53                push bx
00001B2F  54                push sp
00001B30  41                inc cx
00001B31  43                inc bx
00001B32  4B                dec bx
00001B33  90                nop
00001B34  90                nop
00001B35  90                nop
00001B36  90                nop
00001B37  90                nop
00001B38  90                nop
00001B39  90                nop
00001B3A  90                nop
00001B3B  90                nop
00001B3C  90                nop
00001B3D  90                nop
00001B3E  90                nop
00001B3F  90                nop
00001B40  90                nop
00001B41  90                nop
00001B42  90                nop
00001B43  90                nop
00001B44  90                nop
00001B45  90                nop
00001B46  90                nop
00001B47  90                nop
00001B48  90                nop
00001B49  90                nop
00001B4A  90                nop
00001B4B  90                nop
00001B4C  90                nop
00001B4D  90                nop
00001B4E  90                nop
00001B4F  90                nop
00001B50  90                nop
00001B51  90                nop
00001B52  90                nop
00001B53  90                nop
00001B54  90                nop
00001B55  90                nop
00001B56  90                nop
00001B57  90                nop
00001B58  90                nop
00001B59  90                nop
00001B5A  90                nop
00001B5B  90                nop
00001B5C  90                nop
00001B5D  90                nop
00001B5E  90                nop
00001B5F  90                nop
00001B60  90                nop
00001B61  90                nop
00001B62  90                nop
00001B63  90                nop
00001B64  90                nop
00001B65  90                nop
00001B66  90                nop
00001B67  90                nop
00001B68  90                nop
00001B69  90                nop
00001B6A  90                nop
00001B6B  90                nop
00001B6C  90                nop
00001B6D  90                nop
00001B6E  90                nop
00001B6F  90                nop
00001B70  90                nop
00001B71  90                nop
00001B72  90                nop
00001B73  90                nop
00001B74  90                nop
00001B75  90                nop
00001B76  90                nop
00001B77  90                nop
00001B78  90                nop
00001B79  90                nop
00001B7A  90                nop
00001B7B  90                nop
00001B7C  90                nop
00001B7D  90                nop
00001B7E  90                nop
00001B7F  90                nop
00001B80  90                nop
00001B81  90                nop
00001B82  90                nop
00001B83  90                nop
00001B84  90                nop
00001B85  90                nop
00001B86  90                nop
00001B87  90                nop
00001B88  90                nop
00001B89  90                nop
00001B8A  90                nop
00001B8B  90                nop
00001B8C  90                nop
00001B8D  90                nop
00001B8E  90                nop
00001B8F  90                nop
00001B90  90                nop
00001B91  90                nop
00001B92  90                nop
00001B93  90                nop
00001B94  90                nop
00001B95  90                nop
00001B96  90                nop
00001B97  90                nop
00001B98  90                nop
00001B99  90                nop
00001B9A  90                nop
00001B9B  90                nop
00001B9C  90                nop
00001B9D  90                nop
00001B9E  90                nop
00001B9F  90                nop
00001BA0  90                nop
00001BA1  90                nop
00001BA2  90                nop
00001BA3  90                nop
00001BA4  90                nop
00001BA5  90                nop
00001BA6  90                nop
00001BA7  90                nop
00001BA8  90                nop
00001BA9  90                nop
00001BAA  90                nop
00001BAB  90                nop
00001BAC  90                nop
00001BAD  90                nop
00001BAE  90                nop
00001BAF  90                nop
00001BB0  90                nop
00001BB1  90                nop
00001BB2  90                nop
00001BB3  90                nop
00001BB4  90                nop
00001BB5  90                nop
00001BB6  90                nop
00001BB7  90                nop
00001BB8  90                nop
00001BB9  90                nop
00001BBA  90                nop
00001BBB  90                nop
00001BBC  90                nop
00001BBD  90                nop
00001BBE  90                nop
00001BBF  90                nop
00001BC0  90                nop
00001BC1  90                nop
00001BC2  90                nop
00001BC3  90                nop
00001BC4  90                nop
00001BC5  90                nop
00001BC6  90                nop
00001BC7  90                nop
00001BC8  90                nop
00001BC9  90                nop
00001BCA  90                nop
00001BCB  90                nop
00001BCC  90                nop
00001BCD  90                nop
00001BCE  90                nop
00001BCF  90                nop
00001BD0  90                nop
00001BD1  90                nop
00001BD2  90                nop
00001BD3  90                nop
00001BD4  90                nop
00001BD5  90                nop
00001BD6  90                nop
00001BD7  90                nop
00001BD8  90                nop
00001BD9  90                nop
00001BDA  90                nop
00001BDB  90                nop
00001BDC  90                nop
00001BDD  90                nop
00001BDE  90                nop
00001BDF  90                nop
00001BE0  90                nop
00001BE1  90                nop
00001BE2  90                nop
00001BE3  90                nop
00001BE4  90                nop
00001BE5  90                nop
00001BE6  90                nop
00001BE7  90                nop
00001BE8  90                nop
00001BE9  90                nop
00001BEA  90                nop
00001BEB  90                nop
00001BEC  90                nop
00001BED  90                nop
00001BEE  90                nop
00001BEF  90                nop
00001BF0  90                nop
00001BF1  90                nop
00001BF2  90                nop
00001BF3  90                nop
00001BF4  90                nop
00001BF5  90                nop
00001BF6  90                nop
00001BF7  90                nop
00001BF8  90                nop
00001BF9  90                nop
00001BFA  90                nop
00001BFB  90                nop
00001BFC  90                nop
00001BFD  90                nop
00001BFE  90                nop
00001BFF  90                nop
00001C00  90                nop
00001C01  90                nop
00001C02  90                nop
00001C03  90                nop
00001C04  90                nop
00001C05  90                nop
00001C06  90                nop
00001C07  90                nop
00001C08  90                nop
00001C09  90                nop
00001C0A  90                nop
00001C0B  90                nop
00001C0C  90                nop
00001C0D  90                nop
00001C0E  90                nop
00001C0F  90                nop
00001C10  90                nop
00001C11  90                nop
00001C12  90                nop
00001C13  90                nop
00001C14  90                nop
00001C15  90                nop
00001C16  90                nop
00001C17  90                nop
00001C18  90                nop
00001C19  90                nop
00001C1A  90                nop
00001C1B  90                nop
00001C1C  90                nop
00001C1D  90                nop
00001C1E  90                nop
00001C1F  90                nop
00001C20  90                nop
00001C21  90                nop
00001C22  90                nop
00001C23  90                nop
00001C24  90                nop
00001C25  90                nop
00001C26  90                nop
00001C27  90                nop
00001C28  90                nop
00001C29  90                nop
00001C2A  90                nop
00001C2B  90                nop
00001C2C  90                nop
00001C2D  90                nop
00001C2E  90                nop
00001C2F  90                nop
00001C30  90                nop
00001C31  90                nop
00001C32  90                nop
00001C33  90                nop
00001C34  90                nop
00001C35  90                nop
00001C36  90                nop
00001C37  90                nop
00001C38  90                nop
00001C39  90                nop
00001C3A  90                nop
00001C3B  90                nop
00001C3C  90                nop
00001C3D  90                nop
00001C3E  90                nop
00001C3F  90                nop
00001C40  90                nop
00001C41  90                nop
00001C42  90                nop
00001C43  90                nop
00001C44  90                nop
00001C45  90                nop
00001C46  90                nop
00001C47  90                nop
00001C48  90                nop
00001C49  90                nop
00001C4A  90                nop
00001C4B  90                nop
00001C4C  90                nop
00001C4D  90                nop
00001C4E  90                nop
00001C4F  90                nop
00001C50  90                nop
00001C51  90                nop
00001C52  90                nop
00001C53  90                nop
00001C54  90                nop
00001C55  90                nop
00001C56  90                nop
00001C57  90                nop
00001C58  90                nop
00001C59  90                nop
00001C5A  90                nop
00001C5B  90                nop
00001C5C  90                nop
00001C5D  90                nop
00001C5E  90                nop
00001C5F  90                nop
00001C60  90                nop
00001C61  90                nop
00001C62  90                nop
00001C63  90                nop
00001C64  90                nop
00001C65  90                nop
00001C66  90                nop
00001C67  90                nop
00001C68  90                nop
00001C69  90                nop
00001C6A  90                nop
00001C6B  90                nop
00001C6C  90                nop
00001C6D  90                nop
00001C6E  90                nop
00001C6F  90                nop
00001C70  90                nop
00001C71  90                nop
00001C72  90                nop
00001C73  90                nop
00001C74  90                nop
00001C75  90                nop
00001C76  90                nop
00001C77  90                nop
00001C78  90                nop
00001C79  90                nop
00001C7A  90                nop
00001C7B  90                nop
00001C7C  90                nop
00001C7D  90                nop
00001C7E  90                nop
00001C7F  90                nop
00001C80  90                nop
00001C81  90                nop
00001C82  90                nop
00001C83  90                nop
00001C84  90                nop
00001C85  90                nop
00001C86  90                nop
00001C87  90                nop
00001C88  90                nop
00001C89  90                nop
00001C8A  90                nop
00001C8B  90                nop
00001C8C  90                nop
00001C8D  90                nop
00001C8E  90                nop
00001C8F  90                nop
00001C90  90                nop
00001C91  90                nop
00001C92  90                nop
00001C93  90                nop
00001C94  90                nop
00001C95  90                nop
00001C96  90                nop
00001C97  90                nop
00001C98  90                nop
00001C99  90                nop
00001C9A  90                nop
00001C9B  90                nop
00001C9C  90                nop
00001C9D  90                nop
00001C9E  90                nop
00001C9F  90                nop
00001CA0  90                nop
00001CA1  90                nop
00001CA2  90                nop
00001CA3  90                nop
00001CA4  90                nop
00001CA5  90                nop
00001CA6  90                nop
00001CA7  90                nop
00001CA8  90                nop
00001CA9  90                nop
00001CAA  90                nop
00001CAB  90                nop
00001CAC  90                nop
00001CAD  90                nop
00001CAE  90                nop
00001CAF  90                nop
00001CB0  90                nop
00001CB1  90                nop
00001CB2  90                nop
00001CB3  90                nop
00001CB4  90                nop
00001CB5  90                nop
00001CB6  90                nop
00001CB7  90                nop
00001CB8  90                nop
00001CB9  90                nop
00001CBA  90                nop
00001CBB  90                nop
00001CBC  90                nop
00001CBD  90                nop
00001CBE  90                nop
00001CBF  90                nop
00001CC0  90                nop
00001CC1  90                nop
00001CC2  90                nop
00001CC3  90                nop
00001CC4  90                nop
00001CC5  90                nop
00001CC6  90                nop
00001CC7  90                nop
00001CC8  90                nop
00001CC9  90                nop
00001CCA  90                nop
00001CCB  90                nop
00001CCC  90                nop
00001CCD  90                nop
00001CCE  90                nop
00001CCF  90                nop
00001CD0  90                nop
00001CD1  90                nop
00001CD2  90                nop
00001CD3  90                nop
00001CD4  90                nop
00001CD5  90                nop
00001CD6  90                nop
00001CD7  90                nop
00001CD8  90                nop
00001CD9  90                nop
00001CDA  90                nop
00001CDB  90                nop
00001CDC  90                nop
00001CDD  90                nop
00001CDE  90                nop
00001CDF  90                nop
00001CE0  90                nop
00001CE1  90                nop
00001CE2  90                nop
00001CE3  90                nop
00001CE4  90                nop
00001CE5  90                nop
00001CE6  90                nop
00001CE7  90                nop
00001CE8  90                nop
00001CE9  90                nop
00001CEA  90                nop
00001CEB  90                nop
00001CEC  90                nop
00001CED  90                nop
00001CEE  90                nop
00001CEF  90                nop
00001CF0  90                nop
00001CF1  90                nop
00001CF2  90                nop
00001CF3  90                nop
00001CF4  90                nop
00001CF5  90                nop
00001CF6  90                nop
00001CF7  90                nop
00001CF8  90                nop
00001CF9  90                nop
00001CFA  90                nop
00001CFB  90                nop
00001CFC  90                nop
00001CFD  90                nop
00001CFE  90                nop
00001CFF  90                nop
00001D00  90                nop
00001D01  90                nop
00001D02  90                nop
00001D03  90                nop
00001D04  90                nop
00001D05  90                nop
00001D06  90                nop
00001D07  90                nop
00001D08  90                nop
00001D09  90                nop
00001D0A  90                nop
00001D0B  90                nop
00001D0C  90                nop
00001D0D  90                nop
00001D0E  90                nop
00001D0F  90                nop
00001D10  90                nop
00001D11  90                nop
00001D12  90                nop
00001D13  90                nop
00001D14  90                nop
00001D15  90                nop
00001D16  90                nop
00001D17  90                nop
00001D18  90                nop
00001D19  90                nop
00001D1A  90                nop
00001D1B  90                nop
00001D1C  90                nop
00001D1D  90                nop
00001D1E  90                nop
00001D1F  90                nop
00001D20  90                nop
00001D21  90                nop
00001D22  90                nop
00001D23  90                nop
00001D24  90                nop
00001D25  90                nop
00001D26  90                nop
00001D27  90                nop
00001D28  90                nop
00001D29  90                nop
00001D2A  90                nop
00001D2B  90                nop
00001D2C  90                nop
00001D2D  90                nop
00001D2E  90                nop
00001D2F  90                nop
00001D30  90                nop
00001D31  90                nop
00001D32  90                nop
00001D33  90                nop
00001D34  90                nop
00001D35  90                nop
00001D36  90                nop
00001D37  90                nop
00001D38  90                nop
00001D39  90                nop
00001D3A  90                nop
00001D3B  90                nop
00001D3C  90                nop
00001D3D  90                nop
00001D3E  90                nop
00001D3F  90                nop
00001D40  90                nop
00001D41  90                nop
00001D42  90                nop
00001D43  90                nop
00001D44  90                nop
00001D45  90                nop
00001D46  90                nop
00001D47  90                nop
00001D48  90                nop
00001D49  90                nop
00001D4A  90                nop
00001D4B  90                nop
00001D4C  90                nop
00001D4D  90                nop
00001D4E  90                nop
00001D4F  90                nop
00001D50  90                nop
00001D51  90                nop
00001D52  90                nop
00001D53  90                nop
00001D54  90                nop
00001D55  90                nop
00001D56  90                nop
00001D57  90                nop
00001D58  90                nop
00001D59  90                nop
00001D5A  90                nop
00001D5B  90                nop
00001D5C  90                nop
00001D5D  90                nop
00001D5E  90                nop
00001D5F  90                nop
00001D60  90                nop
00001D61  90                nop
00001D62  90                nop
00001D63  90                nop
00001D64  90                nop
00001D65  90                nop
00001D66  90                nop
00001D67  90                nop
00001D68  90                nop
00001D69  90                nop
00001D6A  90                nop
00001D6B  90                nop
00001D6C  90                nop
00001D6D  90                nop
00001D6E  90                nop
00001D6F  90                nop
00001D70  90                nop
00001D71  90                nop
00001D72  90                nop
00001D73  90                nop
00001D74  90                nop
00001D75  90                nop
00001D76  90                nop
00001D77  90                nop
00001D78  90                nop
00001D79  90                nop
00001D7A  90                nop
00001D7B  90                nop
00001D7C  90                nop
00001D7D  90                nop
00001D7E  90                nop
00001D7F  90                nop
00001D80  90                nop
00001D81  90                nop
00001D82  90                nop
00001D83  90                nop
00001D84  90                nop
00001D85  90                nop
00001D86  90                nop
00001D87  90                nop
00001D88  90                nop
00001D89  90                nop
00001D8A  90                nop
00001D8B  90                nop
00001D8C  90                nop
00001D8D  90                nop
00001D8E  90                nop
00001D8F  90                nop
00001D90  90                nop
00001D91  90                nop
00001D92  90                nop
00001D93  90                nop
00001D94  90                nop
00001D95  90                nop
00001D96  90                nop
00001D97  90                nop
00001D98  90                nop
00001D99  90                nop
00001D9A  90                nop
00001D9B  90                nop
00001D9C  90                nop
00001D9D  90                nop
00001D9E  90                nop
00001D9F  90                nop
00001DA0  90                nop
00001DA1  90                nop
00001DA2  90                nop
00001DA3  90                nop
00001DA4  90                nop
00001DA5  90                nop
00001DA6  90                nop
00001DA7  90                nop
00001DA8  90                nop
00001DA9  90                nop
00001DAA  90                nop
00001DAB  90                nop
00001DAC  90                nop
00001DAD  90                nop
00001DAE  90                nop
00001DAF  90                nop
00001DB0  90                nop
00001DB1  90                nop
00001DB2  90                nop
00001DB3  90                nop
00001DB4  90                nop
00001DB5  90                nop
00001DB6  90                nop
00001DB7  90                nop
00001DB8  90                nop
00001DB9  90                nop
00001DBA  90                nop
00001DBB  90                nop
00001DBC  90                nop
00001DBD  90                nop
00001DBE  90                nop
00001DBF  90                nop
00001DC0  90                nop
00001DC1  90                nop
00001DC2  90                nop
00001DC3  90                nop
00001DC4  90                nop
00001DC5  90                nop
00001DC6  90                nop
00001DC7  90                nop
00001DC8  90                nop
00001DC9  90                nop
00001DCA  90                nop
00001DCB  90                nop
00001DCC  90                nop
00001DCD  90                nop
00001DCE  90                nop
00001DCF  90                nop
00001DD0  90                nop
00001DD1  90                nop
00001DD2  90                nop
00001DD3  90                nop
00001DD4  90                nop
00001DD5  90                nop
00001DD6  90                nop
00001DD7  90                nop
00001DD8  90                nop
00001DD9  90                nop
00001DDA  90                nop
00001DDB  90                nop
00001DDC  90                nop
00001DDD  90                nop
00001DDE  90                nop
00001DDF  90                nop
00001DE0  90                nop
00001DE1  90                nop
00001DE2  90                nop
00001DE3  90                nop
00001DE4  90                nop
00001DE5  90                nop
00001DE6  90                nop
00001DE7  90                nop
00001DE8  90                nop
00001DE9  90                nop
00001DEA  90                nop
00001DEB  90                nop
00001DEC  90                nop
00001DED  90                nop
00001DEE  90                nop
00001DEF  90                nop
00001DF0  90                nop
00001DF1  90                nop
00001DF2  90                nop
00001DF3  90                nop
00001DF4  90                nop
00001DF5  90                nop
00001DF6  90                nop
00001DF7  90                nop
00001DF8  90                nop
00001DF9  90                nop
00001DFA  90                nop
00001DFB  90                nop
00001DFC  90                nop
00001DFD  90                nop
00001DFE  90                nop
00001DFF  90                nop
00001E00  90                nop
00001E01  90                nop
00001E02  90                nop
00001E03  90                nop
00001E04  90                nop
00001E05  90                nop
00001E06  90                nop
00001E07  90                nop
00001E08  90                nop
00001E09  90                nop
00001E0A  90                nop
00001E0B  90                nop
00001E0C  90                nop
00001E0D  90                nop
00001E0E  90                nop
00001E0F  90                nop
00001E10  90                nop
00001E11  90                nop
00001E12  90                nop
00001E13  90                nop
00001E14  90                nop
00001E15  90                nop
00001E16  90                nop
00001E17  90                nop
00001E18  90                nop
00001E19  90                nop
00001E1A  90                nop
00001E1B  90                nop
00001E1C  90                nop
00001E1D  90                nop
00001E1E  90                nop
00001E1F  90                nop
00001E20  90                nop
00001E21  90                nop
00001E22  90                nop
00001E23  90                nop
00001E24  90                nop
00001E25  90                nop
00001E26  90                nop
00001E27  90                nop
00001E28  90                nop
00001E29  90                nop
00001E2A  90                nop
00001E2B  90                nop
00001E2C  90                nop
00001E2D  90                nop
00001E2E  90                nop
00001E2F  90                nop
00001E30  90                nop
00001E31  90                nop
00001E32  90                nop
00001E33  90                nop
00001E34  90                nop
00001E35  90                nop
00001E36  90                nop
00001E37  90                nop
00001E38  90                nop
00001E39  90                nop
00001E3A  90                nop
00001E3B  90                nop
00001E3C  90                nop
00001E3D  90                nop
00001E3E  90                nop
00001E3F  90                nop
00001E40  90                nop
00001E41  90                nop
00001E42  90                nop
00001E43  90                nop
00001E44  90                nop
00001E45  90                nop
00001E46  90                nop
00001E47  90                nop
00001E48  90                nop
00001E49  90                nop
00001E4A  90                nop
00001E4B  90                nop
00001E4C  90                nop
00001E4D  90                nop
00001E4E  90                nop
00001E4F  90                nop
00001E50  90                nop
00001E51  90                nop
00001E52  90                nop
00001E53  90                nop
00001E54  90                nop
00001E55  90                nop
00001E56  90                nop
00001E57  90                nop
00001E58  90                nop
00001E59  90                nop
00001E5A  90                nop
00001E5B  90                nop
00001E5C  90                nop
00001E5D  90                nop
00001E5E  90                nop
00001E5F  90                nop
00001E60  90                nop
00001E61  90                nop
00001E62  90                nop
00001E63  90                nop
00001E64  90                nop
00001E65  90                nop
00001E66  90                nop
00001E67  90                nop
00001E68  90                nop
00001E69  90                nop
00001E6A  90                nop
00001E6B  90                nop
00001E6C  90                nop
00001E6D  90                nop
00001E6E  90                nop
00001E6F  90                nop
00001E70  90                nop
00001E71  90                nop
00001E72  90                nop
00001E73  90                nop
00001E74  90                nop
00001E75  90                nop
00001E76  90                nop
00001E77  90                nop
00001E78  90                nop
00001E79  90                nop
00001E7A  90                nop
00001E7B  90                nop
00001E7C  90                nop
00001E7D  90                nop
00001E7E  90                nop
00001E7F  90                nop
00001E80  90                nop
00001E81  90                nop
00001E82  90                nop
00001E83  90                nop
00001E84  90                nop
00001E85  90                nop
00001E86  90                nop
00001E87  90                nop
00001E88  90                nop
00001E89  90                nop
00001E8A  90                nop
00001E8B  90                nop
00001E8C  90                nop
00001E8D  90                nop
00001E8E  90                nop
00001E8F  90                nop
00001E90  90                nop
00001E91  90                nop
00001E92  90                nop
00001E93  90                nop
00001E94  90                nop
00001E95  90                nop
00001E96  90                nop
00001E97  90                nop
00001E98  90                nop
00001E99  90                nop
00001E9A  90                nop
00001E9B  90                nop
00001E9C  90                nop
00001E9D  90                nop
00001E9E  90                nop
00001E9F  90                nop
00001EA0  90                nop
00001EA1  90                nop
00001EA2  90                nop
00001EA3  90                nop
00001EA4  90                nop
00001EA5  90                nop
00001EA6  90                nop
00001EA7  90                nop
00001EA8  90                nop
00001EA9  90                nop
00001EAA  90                nop
00001EAB  90                nop
00001EAC  90                nop
00001EAD  90                nop
00001EAE  90                nop
00001EAF  90                nop
00001EB0  90                nop
00001EB1  90                nop
00001EB2  90                nop
00001EB3  90                nop
00001EB4  90                nop
00001EB5  90                nop
00001EB6  90                nop
00001EB7  90                nop
00001EB8  90                nop
00001EB9  90                nop
00001EBA  90                nop
00001EBB  90                nop
00001EBC  90                nop
00001EBD  90                nop
00001EBE  90                nop
00001EBF  90                nop
00001EC0  90                nop
00001EC1  90                nop
00001EC2  90                nop
00001EC3  90                nop
00001EC4  90                nop
00001EC5  90                nop
00001EC6  90                nop
00001EC7  90                nop
00001EC8  90                nop
00001EC9  90                nop
00001ECA  90                nop
00001ECB  90                nop
00001ECC  90                nop
00001ECD  90                nop
00001ECE  90                nop
00001ECF  90                nop
00001ED0  90                nop
00001ED1  90                nop
00001ED2  90                nop
00001ED3  90                nop
00001ED4  90                nop
00001ED5  90                nop
00001ED6  90                nop
00001ED7  90                nop
00001ED8  90                nop
00001ED9  90                nop
00001EDA  90                nop
00001EDB  90                nop
00001EDC  90                nop
00001EDD  90                nop
00001EDE  90                nop
00001EDF  90                nop
00001EE0  90                nop
00001EE1  90                nop
00001EE2  90                nop
00001EE3  90                nop
00001EE4  90                nop
00001EE5  90                nop
00001EE6  90                nop
00001EE7  90                nop
00001EE8  90                nop
00001EE9  90                nop
00001EEA  90                nop
00001EEB  90                nop
00001EEC  90                nop
00001EED  90                nop
00001EEE  90                nop
00001EEF  90                nop
00001EF0  90                nop
00001EF1  90                nop
00001EF2  90                nop
00001EF3  90                nop
00001EF4  90                nop
00001EF5  90                nop
00001EF6  90                nop
00001EF7  90                nop
00001EF8  90                nop
00001EF9  90                nop
00001EFA  90                nop
00001EFB  90                nop
00001EFC  90                nop
00001EFD  90                nop
00001EFE  90                nop
00001EFF  90                nop
00001F00  90                nop
00001F01  90                nop
00001F02  90                nop
00001F03  90                nop
00001F04  90                nop
00001F05  90                nop
00001F06  90                nop
00001F07  90                nop
00001F08  90                nop
00001F09  90                nop
00001F0A  90                nop
00001F0B  90                nop
00001F0C  90                nop
00001F0D  90                nop
00001F0E  90                nop
00001F0F  90                nop
00001F10  90                nop
00001F11  90                nop
00001F12  90                nop
00001F13  90                nop
00001F14  90                nop
00001F15  90                nop
00001F16  90                nop
00001F17  90                nop
00001F18  90                nop
00001F19  90                nop
00001F1A  90                nop
00001F1B  90                nop
00001F1C  90                nop
00001F1D  90                nop
00001F1E  90                nop
00001F1F  90                nop
00001F20  90                nop
00001F21  90                nop
00001F22  90                nop
00001F23  90                nop
00001F24  90                nop
00001F25  90                nop
00001F26  90                nop
00001F27  90                nop
00001F28  90                nop
00001F29  90                nop
00001F2A  90                nop
00001F2B  90                nop
00001F2C  90                nop
00001F2D  90                nop
00001F2E  90                nop
00001F2F  90                nop
00001F30  90                nop
00001F31  90                nop
00001F32  90                nop
00001F33  90                nop
00001F34  90                nop
00001F35  90                nop
00001F36  90                nop
00001F37  90                nop
00001F38  90                nop
00001F39  90                nop
00001F3A  90                nop
00001F3B  90                nop
00001F3C  90                nop
00001F3D  90                nop
00001F3E  90                nop
00001F3F  90                nop
00001F40  90                nop
00001F41  90                nop
00001F42  90                nop
00001F43  90                nop
00001F44  90                nop
00001F45  90                nop
00001F46  90                nop
00001F47  90                nop
00001F48  90                nop
00001F49  90                nop
00001F4A  90                nop
00001F4B  90                nop
00001F4C  90                nop
00001F4D  90                nop
00001F4E  90                nop
00001F4F  90                nop
00001F50  90                nop
00001F51  90                nop
00001F52  90                nop
00001F53  90                nop
00001F54  90                nop
00001F55  90                nop
00001F56  90                nop
00001F57  90                nop
00001F58  90                nop
00001F59  90                nop
00001F5A  90                nop
00001F5B  90                nop
00001F5C  90                nop
00001F5D  90                nop
00001F5E  90                nop
00001F5F  90                nop
00001F60  90                nop
00001F61  90                nop
00001F62  90                nop
00001F63  90                nop
00001F64  90                nop
00001F65  90                nop
00001F66  90                nop
00001F67  90                nop
00001F68  90                nop
00001F69  90                nop
00001F6A  90                nop
00001F6B  90                nop
00001F6C  90                nop
00001F6D  90                nop
00001F6E  90                nop
00001F6F  90                nop
00001F70  90                nop
00001F71  90                nop
00001F72  90                nop
00001F73  90                nop
00001F74  90                nop
00001F75  90                nop
00001F76  90                nop
00001F77  90                nop
00001F78  90                nop
00001F79  90                nop
00001F7A  90                nop
00001F7B  90                nop
00001F7C  90                nop
00001F7D  90                nop
00001F7E  90                nop
00001F7F  90                nop
00001F80  90                nop
00001F81  90                nop
00001F82  90                nop
00001F83  90                nop
00001F84  90                nop
00001F85  90                nop
00001F86  90                nop
00001F87  90                nop
00001F88  90                nop
00001F89  90                nop
00001F8A  90                nop
00001F8B  90                nop
00001F8C  90                nop
00001F8D  90                nop
00001F8E  90                nop
00001F8F  90                nop
00001F90  90                nop
00001F91  90                nop
00001F92  90                nop
00001F93  90                nop
00001F94  90                nop
00001F95  90                nop
00001F96  90                nop
00001F97  90                nop
00001F98  90                nop
00001F99  90                nop
00001F9A  90                nop
00001F9B  90                nop
00001F9C  90                nop
00001F9D  90                nop
00001F9E  90                nop
00001F9F  90                nop
00001FA0  90                nop
00001FA1  90                nop
00001FA2  90                nop
00001FA3  90                nop
00001FA4  90                nop
00001FA5  90                nop
00001FA6  90                nop
00001FA7  90                nop
00001FA8  90                nop
00001FA9  90                nop
00001FAA  90                nop
00001FAB  90                nop
00001FAC  90                nop
00001FAD  90                nop
00001FAE  90                nop
00001FAF  90                nop
00001FB0  90                nop
00001FB1  90                nop
00001FB2  90                nop
00001FB3  90                nop
00001FB4  90                nop
00001FB5  90                nop
00001FB6  90                nop
00001FB7  90                nop
00001FB8  90                nop
00001FB9  90                nop
00001FBA  90                nop
00001FBB  90                nop
00001FBC  90                nop
00001FBD  90                nop
00001FBE  90                nop
00001FBF  90                nop
00001FC0  90                nop
00001FC1  90                nop
00001FC2  90                nop
00001FC3  90                nop
00001FC4  90                nop
00001FC5  90                nop
00001FC6  90                nop
00001FC7  90                nop
00001FC8  90                nop
00001FC9  90                nop
00001FCA  90                nop
00001FCB  90                nop
00001FCC  90                nop
00001FCD  90                nop
00001FCE  90                nop
00001FCF  90                nop
00001FD0  90                nop
00001FD1  90                nop
00001FD2  90                nop
00001FD3  90                nop
00001FD4  90                nop
00001FD5  90                nop
00001FD6  90                nop
00001FD7  90                nop
00001FD8  90                nop
00001FD9  90                nop
00001FDA  90                nop
00001FDB  90                nop
00001FDC  90                nop
00001FDD  90                nop
00001FDE  90                nop
00001FDF  90                nop
00001FE0  90                nop
00001FE1  90                nop
00001FE2  90                nop
00001FE3  90                nop
00001FE4  90                nop
00001FE5  90                nop
00001FE6  90                nop
00001FE7  90                nop
00001FE8  90                nop
00001FE9  90                nop
00001FEA  90                nop
00001FEB  90                nop
00001FEC  90                nop
00001FED  90                nop
00001FEE  90                nop
00001FEF  90                nop
00001FF0  90                nop
00001FF1  90                nop
00001FF2  90                nop
00001FF3  90                nop
00001FF4  90                nop
00001FF5  90                nop
00001FF6  90                nop
00001FF7  90                nop
00001FF8  90                nop
00001FF9  90                nop
00001FFA  90                nop
00001FFB  90                nop
00001FFC  90                nop
00001FFD  90                nop
00001FFE  90                nop
00001FFF  16                push ss
00002000  55                push bp
00002001  AA                stosb
00002002  04EB              add al,0xeb
00002004  0B905446          or dx,[bx+si+0x4654]
00002008  46                inc si
00002009  53                push bx
0000200A  0000              add [bx+si],al
0000200C  0000              add [bx+si],al
0000200E  0000              add [bx+si],al
00002010  50                push ax
00002011  53                push bx
00002012  51                push cx
00002013  52                push dx
00002014  56                push si
00002015  57                push di
00002016  55                push bp
00002017  1E                push ds
00002018  06                push es
00002019  9C                pushf
0000201A  8CCA              mov dx,cs
0000201C  8EDA              mov ds,dx
0000201E  50                push ax
0000201F  BF6005            mov di,0x560
00002022  F6060A0002        test byte [0xa],0x2
00002027  7403              jz 0x202c
00002029  BFE004            mov di,0x4e0
0000202C  B104              mov cl,0x4
0000202E  D3EF              shr di,cl
00002030  47                inc di
00002031  33C0              xor ax,ax
00002033  8EC0              mov es,ax
00002035  FA                cli
00002036  26A11304          mov ax,[es:0x413]
0000203A  B106              mov cl,0x6
0000203C  D3E0              shl ax,cl
0000203E  2BC7              sub ax,di
00002040  8BD0              mov dx,ax
00002042  F6060A0002        test byte [0xa],0x2
00002047  7409              jz 0x2052
00002049  BB4003            mov bx,0x340
0000204C  B104              mov cl,0x4
0000204E  D3EB              shr bx,cl
00002050  03C3              add ax,bx
00002052  B106              mov cl,0x6
00002054  D3E8              shr ax,cl
00002056  26A31304          mov [es:0x413],ax
0000205A  FB                sti
0000205B  57                push di
0000205C  8EC2              mov es,dx
0000205E  33FF              xor di,di
00002060  B96005            mov cx,0x560
00002063  F6060A0002        test byte [0xa],0x2
00002068  7406              jz 0x2070
0000206A  BF4003            mov di,0x340
0000206D  B9E004            mov cx,0x4e0
00002070  2BCF              sub cx,di
00002072  8BF7              mov si,di
00002074  FC                cld
00002075  F3A4              rep movsb
00002077  5F                pop di
00002078  8CC0              mov ax,es
0000207A  8ED8              mov ds,ax
0000207C  2EF6060A0002      test byte [cs:0xa],0x2
00002082  750E              jnz 0x2092
00002084  8C1E5303          mov [0x353],ds
00002088  C70651039200      mov word [0x351],0x92
0000208E  FF2E5103          jmp far [0x351]
00002092  C606400300        mov byte [0x340],0x0
00002097  90                nop
00002098  B440              mov ah,0x40
0000209A  CD1A              int 0x1a
0000209C  7209              jc 0x20a7
0000209E  81F95353          cmp cx,0x5353
000020A2  7503              jnz 0x20a7
000020A4  A24003            mov [0x340],al
000020A7  8CD8              mov ax,ds
000020A9  8EC0              mov es,ax
000020AB  BF4103            mov di,0x341
000020AE  A04003            mov al,[0x340]
000020B1  5A                pop dx
000020B2  E86504            call 0x251a
000020B5  7303              jnc 0x20ba
000020B7  EB2C              jmp short 0x20e5
000020B9  90                nop
000020BA  B80000            mov ax,0x0
000020BD  8EC0              mov es,ax
000020BF  26A16800          mov ax,[es:0x68]
000020C3  A34903            mov [0x349],ax
000020C6  26A16A00          mov ax,[es:0x6a]
000020CA  A34B03            mov [0x34b],ax
000020CD  C7064D031403      mov word [0x34d],0x314
000020D3  8C0E4F03          mov [0x34f],cs
000020D7  FA                cli
000020D8  26C70668005503    mov word [es:0x68],0x355
000020DF  268C1E6A00        mov [es:0x6a],ds
000020E4  FB                sti
000020E5  9D                popf
000020E6  07                pop es
000020E7  1F                pop ds
000020E8  5D                pop bp
000020E9  5F                pop di
000020EA  5E                pop si
000020EB  5A                pop dx
000020EC  59                pop cx
000020ED  5B                pop bx
000020EE  58                pop ax
000020EF  CB                retf
000020F0  80FF00            cmp bh,0x0
000020F3  7404              jz 0x20f9
000020F5  B416              mov ah,0x16
000020F7  F9                stc
000020F8  C3                ret
000020F9  80FB00            cmp bl,0x0
000020FC  7511              jnz 0x210f
000020FE  50                push ax
000020FF  A14903            mov ax,[0x349]
00002102  268905            mov [es:di],ax
00002105  A14B03            mov ax,[0x34b]
00002108  26894502          mov [es:di+0x2],ax
0000210C  58                pop ax
0000210D  F8                clc
0000210E  C3                ret
0000210F  50                push ax
00002110  268B05            mov ax,[es:di]
00002113  A34903            mov [0x349],ax
00002116  268B4502          mov ax,[es:di+0x2]
0000211A  A34B03            mov [0x34b],ax
0000211D  F8                clc
0000211E  C3                ret
0000211F  80FF00            cmp bh,0x0
00002122  7404              jz 0x2128
00002124  B416              mov ah,0x16
00002126  F9                stc
00002127  C3                ret
00002128  50                push ax
00002129  57                push di
0000212A  FC                cld
0000212B  8CC8              mov ax,cs
0000212D  AB                stosw
0000212E  33C0              xor ax,ax
00002130  AB                stosw
00002131  B84003            mov ax,0x340
00002134  AB                stosw
00002135  33C0              xor ax,ax
00002137  AB                stosw
00002138  B85503            mov ax,0x355
0000213B  AB                stosw
0000213C  33C0              xor ax,ax
0000213E  AB                stosw
0000213F  8CD8              mov ax,ds
00002141  AB                stosw
00002142  33C0              xor ax,ax
00002144  AB                stosw
00002145  B86005            mov ax,0x560
00002148  AB                stosw
00002149  33C0              xor ax,ax
0000214B  AB                stosw
0000214C  5F                pop di
0000214D  58                pop ax
0000214E  F8                clc
0000214F  C3                ret
00002150  50                push ax
00002151  51                push cx
00002152  1E                push ds
00002153  52                push dx
00002154  89167904          mov [0x479],dx
00002158  8AD6              mov dl,dh
0000215A  32F6              xor dh,dh
0000215C  89164204          mov [0x442],dx
00002160  89164404          mov [0x444],dx
00002164  5A                pop dx
00002165  C6067B0401        mov byte [0x47b],0x1
0000216A  F8                clc
0000216B  1F                pop ds
0000216C  59                pop cx
0000216D  58                pop ax
0000216E  C3                ret
0000216F  00A06F01          add [bx+si+0x16f],ah
00002173  C3                ret
00002174  F8                clc
00002175  C3                ret
00002176  A07C04            mov al,[0x47c]
00002179  B95353            mov cx,0x5353
0000217C  F8                clc
0000217D  C3                ret
0000217E  33C0              xor ax,ax
00002180  BB0002            mov bx,0x200
00002183  B501              mov ch,0x1
00002185  8A0E7C04          mov cl,[0x47c]
00002189  FEC9              dec cl
0000218B  F8                clc
0000218C  C3                ret
0000218D  B91000            mov cx,0x10
00002190  26894D02          mov [es:di+0x2],cx
00002194  263B0D            cmp cx,[es:di]
00002197  7703              ja 0x219c
00002199  268B0D            mov cx,[es:di]
0000219C  56                push si
0000219D  57                push di
0000219E  BE5B04            mov si,0x45b
000021A1  83C704            add di,byte +0x4
000021A4  F3A4              rep movsb
000021A6  5F                pop di
000021A7  5E                pop si
000021A8  2E8A1E7B04        mov bl,[cs:0x47b]
000021AD  8AFB              mov bh,bl
000021AF  B90000            mov cx,0x0
000021B2  F8                clc
000021B3  C3                ret
000021B4  32F6              xor dh,dh
000021B6  33FF              xor di,di
000021B8  F8                clc
000021B9  C3                ret
000021BA  F8                clc
000021BB  C3                ret
000021BC  3A3E7B04          cmp bh,[0x47b]
000021C0  7204              jc 0x21c6
000021C2  B411              mov ah,0x11
000021C4  F9                stc
000021C5  C3                ret
000021C6  8ACF              mov cl,bh
000021C8  B501              mov ch,0x1
000021CA  D2E5              shl ch,cl
000021CC  8ACD              mov cl,ch
000021CE  B500              mov ch,0x0
000021D0  51                push cx
000021D1  B91100            mov cx,0x11
000021D4  26894D02          mov [es:di+0x2],cx
000021D8  263B0D            cmp cx,[es:di]
000021DB  7703              ja 0x21e0
000021DD  268B0D            mov cx,[es:di]
000021E0  56                push si
000021E1  57                push di
000021E2  BE4004            mov si,0x440
000021E5  83C704            add di,byte +0x4
000021E8  F3A4              rep movsb
000021EA  5F                pop di
000021EB  5E                pop si
000021EC  B301              mov bl,0x1
000021EE  59                pop cx
000021EF  F8                clc
000021F0  C3                ret
000021F1  3A3E7B04          cmp bh,[0x47b]
000021F5  7204              jc 0x21fb
000021F7  B411              mov ah,0x11
000021F9  F9                stc
000021FA  C3                ret
000021FB  8B0E4604          mov cx,[0x446]
000021FF  8B3E4204          mov di,[0x442]
00002203  B602              mov dh,0x2
00002205  32D2              xor dl,dl
00002207  8ADF              mov bl,bh
00002209  F8                clc
0000220A  C3                ret
0000220B  3A3E7B04          cmp bh,[0x47b]
0000220F  7204              jc 0x2215
00002211  B411              mov ah,0x11
00002213  F9                stc
00002214  C3                ret
00002215  3ADF              cmp bl,bh
00002217  7404              jz 0x221d
00002219  B40B              mov ah,0xb
0000221B  F9                stc
0000221C  C3                ret
0000221D  3B0E4604          cmp cx,[0x446]
00002221  7404              jz 0x2227
00002223  B40A              mov ah,0xa
00002225  F9                stc
00002226  C3                ret
00002227  F8                clc
00002228  C3                ret
00002229  3A3E7B04          cmp bh,[0x47b]
0000222D  7204              jc 0x2233
0000222F  B411              mov ah,0x11
00002231  F9                stc
00002232  C3                ret
00002233  80FB00            cmp bl,0x0
00002236  7404              jz 0x223c
00002238  B408              mov ah,0x8
0000223A  F9                stc
0000223B  C3                ret
0000223C  BA0100            mov dx,0x1
0000223F  BF0000            mov di,0x0
00002242  F8                clc
00002243  C3                ret
00002244  3A3E7B04          cmp bh,[0x47b]
00002248  7204              jc 0x224e
0000224A  B411              mov ah,0x11
0000224C  F9                stc
0000224D  C3                ret
0000224E  80FB00            cmp bl,0x0
00002251  7404              jz 0x2257
00002253  B408              mov ah,0x8
00002255  F9                stc
00002256  C3                ret
00002257  F7C70100          test di,0x1
0000225B  7404              jz 0x2261
0000225D  B407              mov ah,0x7
0000225F  F9                stc
00002260  C3                ret
00002261  F8                clc
00002262  C3                ret
00002263  3A1E7B04          cmp bl,[0x47b]
00002267  7204              jc 0x226d
00002269  B40B              mov ah,0xb
0000226B  F9                stc
0000226C  C3                ret
0000226D  B90A00            mov cx,0xa
00002270  26894D02          mov [es:di+0x2],cx
00002274  263B0D            cmp cx,[es:di]
00002277  7703              ja 0x227c
00002279  268B0D            mov cx,[es:di]
0000227C  56                push si
0000227D  57                push di
0000227E  BE5104            mov si,0x451
00002281  83C704            add di,byte +0x4
00002284  F3A4              rep movsb
00002286  5F                pop di
00002287  5E                pop si
00002288  B700              mov bh,0x0
0000228A  B600              mov dh,0x0
0000228C  B240              mov dl,0x40
0000228E  F8                clc
0000228F  C3                ret
00002290  3A1E7B04          cmp bl,[0x47b]
00002294  7204              jc 0x229a
00002296  B40B              mov ah,0xb
00002298  F9                stc
00002299  C3                ret
0000229A  B700              mov bh,0x0
0000229C  B90000            mov cx,0x0
0000229F  B600              mov dh,0x0
000022A1  8A167D04          mov dl,[0x47d]
000022A5  BF0000            mov di,0x0
000022A8  F8                clc
000022A9  C3                ret
000022AA  3A1E7B04          cmp bl,[0x47b]
000022AE  7204              jc 0x22b4
000022B0  B40B              mov ah,0xb
000022B2  F9                stc
000022B3  C3                ret
000022B4  50                push ax
000022B5  B000              mov al,0x0
000022B7  80F911            cmp cl,0x11
000022BA  7502              jnz 0x22be
000022BC  B001              mov al,0x1
000022BE  E8B3FE            call 0x2174
000022C1  58                pop ax
000022C2  9C                pushf
000022C3  F6C240            test dl,0x40
000022C6  7408              jz 0x22d0
000022C8  800E7D0440        or byte [0x47d],0x40
000022CD  EB06              jmp short 0x22d5
000022CF  90                nop
000022D0  80267D04BF        and byte [0x47d],0xbf
000022D5  9D                popf
000022D6  C3                ret
000022D7  3A1E7B04          cmp bl,[0x47b]
000022DB  7204              jc 0x22e1
000022DD  B40B              mov ah,0xb
000022DF  F9                stc
000022E0  C3                ret
000022E1  B780              mov bh,0x80
000022E3  F8                clc
000022E4  C3                ret
000022E5  F8                clc
000022E6  C3                ret
000022E7  80FB00            cmp bl,0x0
000022EA  751D              jnz 0x2309
000022EC  51                push cx
000022ED  B90E00            mov cx,0xe
000022F0  26894D02          mov [es:di+0x2],cx
000022F4  263B0D            cmp cx,[es:di]
000022F7  7203              jc 0x22fc
000022F9  268B0D            mov cx,[es:di]
000022FC  56                push si
000022FD  57                push di
000022FE  BE6B04            mov si,0x46b
00002301  83C704            add di,byte +0x4
00002304  F3A4              rep movsb
00002306  5F                pop di
00002307  5E                pop si
00002308  59                pop cx
00002309  BA0001            mov dx,0x100
0000230C  32E4              xor ah,ah
0000230E  C3                ret
0000230F  B81500            mov ax,0x15
00002312  F9                stc
00002313  C3                ret
00002314  80E47F            and ah,0x7f
00002317  80FC30            cmp ah,0x30
0000231A  7205              jc 0x2321
0000231C  B81500            mov ax,0x15
0000231F  F9                stc
00002320  CB                retf
00002321  53                push bx
00002322  32C0              xor al,al
00002324  86E0              xchg ah,al
00002326  03C0              add ax,ax
00002328  8BD8              mov bx,ax
0000232A  81C37E04          add bx,0x47e
0000232E  2E8B07            mov ax,[cs:bx]
00002331  5B                pop bx
00002332  FFD0              call ax
00002334  CB                retf
00002335  0000              add [bx+si],al
00002337  0000              add [bx+si],al
00002339  0000              add [bx+si],al
0000233B  0000              add [bx+si],al
0000233D  0000              add [bx+si],al
0000233F  0000              add [bx+si],al
00002341  0000              add [bx+si],al
00002343  0000              add [bx+si],al
00002345  0000              add [bx+si],al
00002347  0000              add [bx+si],al
00002349  0000              add [bx+si],al
0000234B  0000              add [bx+si],al
0000234D  0000              add [bx+si],al
0000234F  0000              add [bx+si],al
00002351  0000              add [bx+si],al
00002353  0000              add [bx+si],al
00002355  F6C480            test ah,0x80
00002358  7511              jnz 0x236b
0000235A  F6C440            test ah,0x40
0000235D  740C              jz 0x236b
0000235F  80FC40            cmp ah,0x40
00002362  740C              jz 0x2370
00002364  2E3A064003        cmp al,[cs:0x340]
00002369  7405              jz 0x2370
0000236B  2EFF2E4903        jmp far [cs:0x349]
00002370  FB                sti
00002371  80C440            add ah,0x40
00002374  55                push bp
00002375  8BEC              mov bp,sp
00002377  806606FE          and byte [bp+0x6],0xfe
0000237B  1E                push ds
0000237C  50                push ax
0000237D  8CC8              mov ax,cs
0000237F  8ED8              mov ds,ax
00002381  58                pop ax
00002382  FF1E4D03          call far [0x34d]
00002386  1F                pop ds
00002387  7304              jnc 0x238d
00002389  804E0601          or byte [bp+0x6],0x1
0000238D  8BE5              mov sp,bp
0000238F  5D                pop bp
00002390  CF                iret
00002391  0000              add [bx+si],al
00002393  0000              add [bx+si],al
00002395  0000              add [bx+si],al
00002397  0000              add [bx+si],al
00002399  0000              add [bx+si],al
0000239B  0000              add [bx+si],al
0000239D  0000              add [bx+si],al
0000239F  00444F            add [si+0x4f],al
000023A2  43                inc bx
000023A3  20536F            and [bp+di+0x6f],dl
000023A6  636B65            arpl [bp+di+0x65],bp
000023A9  7420              jz 0x23cb
000023AB  53                push bx
000023AC  657276            gs jc 0x2425
000023AF  6963657320        imul sp,[bp+di+0x65],word 0x2073
000023B4  2D2056            sub ax,0x5620
000023B7  657273            gs jc 0x242d
000023BA  696F6E2030        imul bp,[bx+0x6e],word 0x3020
000023BF  2E320D            xor cl,[cs:di]
000023C2  0A28              or ch,[bx+si]
000023C4  43                inc bx
000023C5  2920              sub [bx+si],sp
000023C7  43                inc bx
000023C8  6F                outsw
000023C9  7079              jo 0x2444
000023CB  7269              jc 0x2436
000023CD  67687420          a32 push word 0x2074
000023D1  3139              xor [bx+di],di
000023D3  3932              cmp [bp+si],si
000023D5  2D3139            sub ax,0x3931
000023D8  39362C20          cmp [0x202c],si
000023DC  4D                dec bp
000023DD  2D5379            sub ax,0x7953
000023E0  7374              jnc 0x2456
000023E2  656D              gs insw
000023E4  7320              jnc 0x2406
000023E6  4C                dec sp
000023E7  7464              jz 0x244d
000023E9  2E0D0A0A          cs or ax,0xa0a
000023ED  2444              and al,0x44
000023EF  4F                dec di
000023F0  43                inc bx
000023F1  20536F            and [bp+di+0x6f],dl
000023F4  636B65            arpl [bp+di+0x65],bp
000023F7  7420              jz 0x2419
000023F9  53                push bx
000023FA  657276            gs jc 0x2473
000023FD  6963657320        imul sp,[bp+di+0x65],word 0x2073
00002402  56                push si
00002403  657273            gs jc 0x2479
00002406  696F6E2030        imul bp,[bx+0x6e],word 0x3020
0000240B  2E3220            xor ah,[cs:bx+si]
0000240E  696E737461        imul bp,[bp+0x73],word 0x6174
00002413  6C                insb
00002414  6C                insb
00002415  61                popa
00002416  7469              jz 0x2481
00002418  6F                outsw
00002419  6E                outsb
0000241A  206661            and [bp+0x61],ah
0000241D  696C65642E        imul bp,[si+0x65],word 0x2e64
00002422  0D0A53            or ax,0x530a
00002425  6F                outsw
00002426  636B65            arpl [bp+di+0x65],bp
00002429  7420              jz 0x244b
0000242B  6E                outsb
0000242C  6F                outsw
0000242D  7420              jz 0x244f
0000242F  666F              outsd
00002431  756E              jnz 0x24a1
00002433  64210D            and [fs:di],cx
00002436  0A0A              or cl,[bp+si]
00002438  2444              and al,0x44
0000243A  4F                dec di
0000243B  43                inc bx
0000243C  53                push bx
0000243D  53                push bx
0000243E  9C                pushf
0000243F  2498              and al,0x98
00002441  00F0              add al,dh
00002443  00F0              add al,dh
00002445  0002              add [bp+si],al
00002447  0002              add [bp+si],al
00002449  0000              add [bx+si],al
0000244B  0000              add [bx+si],al
0000244D  0002              add [bp+si],al
0000244F  0000              add [bx+si],al
00002451  0100              add [bx+si],ax
00002453  0000              add [bx+si],al
00002455  0000              add [bx+si],al
00002457  0000              add [bx+si],al
00002459  0000              add [bx+si],al
0000245B  0000              add [bx+si],al
0000245D  0000              add [bx+si],al
0000245F  0000              add [bx+si],al
00002461  0000              add [bx+si],al
00002463  0000              add [bx+si],al
00002465  0200              add al,[bx+si]
00002467  32E0              xor ah,al
00002469  7860              js 0x24cb
0000246B  4D                dec bp
0000246C  2D5379            sub ax,0x7953
0000246F  7374              jnc 0x24e5
00002471  656D              gs insw
00002473  7320              jnc 0x2495
00002475  44                inc sp
00002476  4F                dec di
00002477  43                inc bx
00002478  0000              add [bx+si],al
0000247A  A00000            mov al,[0x0]
0000247D  007601            add [bp+0x1],dh
00002480  0F030F            lsl cx,[bx]
00002483  037E01            add di,[bp+0x1]
00002486  8D01              lea ax,[bx+di]
00002488  B401              mov ah,0x1
0000248A  BA01BC            mov dx,0xbc01
0000248D  01F1              add cx,si
0000248F  010B              add [bp+di],cx
00002491  0229              add ch,[bx+di]
00002493  024402            add al,[si+0x2]
00002496  6302              arpl [bp+si],ax
00002498  90                nop
00002499  02AA02D7          add ch,[bp+si+0xd702]
0000249D  02E5              add ah,ch
0000249F  020F              add cl,[bx]
000024A1  030F              add cx,[bx]
000024A3  030F              add cx,[bx]
000024A5  030F              add cx,[bx]
000024A7  030F              add cx,[bx]
000024A9  030F              add cx,[bx]
000024AB  030F              add cx,[bx]
000024AD  030F              add cx,[bx]
000024AF  030F              add cx,[bx]
000024B1  030F              add cx,[bx]
000024B3  030F              add cx,[bx]
000024B5  030F              add cx,[bx]
000024B7  03E7              add sp,di
000024B9  020F              add cl,[bx]
000024BB  030F              add cx,[bx]
000024BD  030F              add cx,[bx]
000024BF  030F              add cx,[bx]
000024C1  030F              add cx,[bx]
000024C3  030F              add cx,[bx]
000024C5  030F              add cx,[bx]
000024C7  030F              add cx,[bx]
000024C9  030F              add cx,[bx]
000024CB  030F              add cx,[bx]
000024CD  030F              add cx,[bx]
000024CF  030F              add cx,[bx]
000024D1  030F              add cx,[bx]
000024D3  030F              add cx,[bx]
000024D5  030F              add cx,[bx]
000024D7  030F              add cx,[bx]
000024D9  030F              add cx,[bx]
000024DB  030F              add cx,[bx]
000024DD  0300              add ax,[bx+si]
000024DF  005053            add [bx+si+0x53],dl
000024E2  52                push dx
000024E3  B40E              mov ah,0xe
000024E5  8BDA              mov bx,dx
000024E7  8A07              mov al,[bx]
000024E9  3C24              cmp al,0x24
000024EB  7407              jz 0x24f4
000024ED  33DB              xor bx,bx
000024EF  CD10              int 0x10
000024F1  42                inc dx
000024F2  EBF1              jmp short 0x24e5
000024F4  5A                pop dx
000024F5  5B                pop bx
000024F6  58                pop ax
000024F7  C3                ret
000024F8  50                push ax
000024F9  E8E4FF            call 0x24e0
000024FC  32E4              xor ah,ah
000024FE  CD16              int 0x16
00002500  58                pop ax
00002501  C3                ret
00002502  50                push ax
00002503  53                push bx
00002504  52                push dx
00002505  B40E              mov ah,0xe
00002507  8BDA              mov bx,dx
00002509  8A07              mov al,[bx]
0000250B  3C24              cmp al,0x24
0000250D  7407              jz 0x2516
0000250F  33DB              xor bx,bx
00002511  CD10              int 0x10
00002513  42                inc dx
00002514  EBF1              jmp short 0x2507
00002516  5A                pop dx
00002517  5B                pop bx
00002518  58                pop ax
00002519  C3                ret
0000251A  52                push dx
0000251B  FEC0              inc al
0000251D  A27C04            mov [0x47c],al
00002520  E82DFC            call 0x2150
00002523  7222              jc 0x2547
00002525  2EF7060A000400    test word [cs:0xa],0x4
0000252C  7506              jnz 0x2534
0000252E  BAA003            mov dx,0x3a0
00002531  E8CEFF            call 0x2502
00002534  56                push si
00002535  51                push cx
00002536  B90800            mov cx,0x8
00002539  BE3904            mov si,0x439
0000253C  F3A4              rep movsb
0000253E  59                pop cx
0000253F  5E                pop si
00002540  A07B04            mov al,[0x47b]
00002543  3C00              cmp al,0x0
00002545  770C              ja 0x2553
00002547  BAEE03            mov dx,0x3ee
0000254A  E8B5FF            call 0x2502
0000254D  B8FFFF            mov ax,0xffff
00002550  5A                pop dx
00002551  F9                stc
00002552  C3                ret
00002553  33C0              xor ax,ax
00002555  5A                pop dx
00002556  F8                clc
00002557  C3                ret
00002558  0000              add [bx+si],al
0000255A  0000              add [bx+si],al
0000255C  0000              add [bx+si],al
0000255E  0000              add [bx+si],al
00002560  0000              add [bx+si],al
00002562  0000              add [bx+si],al
00002564  0000              add [bx+si],al
00002566  0000              add [bx+si],al
00002568  0000              add [bx+si],al
0000256A  0000              add [bx+si],al
0000256C  0000              add [bx+si],al
0000256E  0000              add [bx+si],al
00002570  0000              add [bx+si],al
00002572  0000              add [bx+si],al
00002574  0000              add [bx+si],al
00002576  0000              add [bx+si],al
00002578  0000              add [bx+si],al
0000257A  0000              add [bx+si],al
0000257C  0000              add [bx+si],al
0000257E  0000              add [bx+si],al
00002580  0000              add [bx+si],al
00002582  0000              add [bx+si],al
00002584  0000              add [bx+si],al
00002586  0000              add [bx+si],al
00002588  0000              add [bx+si],al
0000258A  0000              add [bx+si],al
0000258C  0000              add [bx+si],al
0000258E  0000              add [bx+si],al
00002590  0000              add [bx+si],al
00002592  0000              add [bx+si],al
00002594  0000              add [bx+si],al
00002596  0000              add [bx+si],al
00002598  0000              add [bx+si],al
0000259A  0000              add [bx+si],al
0000259C  0000              add [bx+si],al
0000259E  0000              add [bx+si],al
000025A0  0000              add [bx+si],al
000025A2  0000              add [bx+si],al
000025A4  0000              add [bx+si],al
000025A6  0000              add [bx+si],al
000025A8  0000              add [bx+si],al
000025AA  0000              add [bx+si],al
000025AC  0000              add [bx+si],al
000025AE  0000              add [bx+si],al
000025B0  0000              add [bx+si],al
000025B2  0000              add [bx+si],al
000025B4  0000              add [bx+si],al
000025B6  0000              add [bx+si],al
000025B8  0000              add [bx+si],al
000025BA  0000              add [bx+si],al
000025BC  0000              add [bx+si],al
000025BE  0000              add [bx+si],al
000025C0  0000              add [bx+si],al
000025C2  0000              add [bx+si],al
000025C4  0000              add [bx+si],al
000025C6  0000              add [bx+si],al
000025C8  0000              add [bx+si],al
000025CA  0000              add [bx+si],al
000025CC  0000              add [bx+si],al
000025CE  0000              add [bx+si],al
000025D0  0000              add [bx+si],al
000025D2  0000              add [bx+si],al
000025D4  0000              add [bx+si],al
000025D6  0000              add [bx+si],al
000025D8  0000              add [bx+si],al
000025DA  0000              add [bx+si],al
000025DC  0000              add [bx+si],al
000025DE  0000              add [bx+si],al
000025E0  0000              add [bx+si],al
000025E2  0000              add [bx+si],al
000025E4  0000              add [bx+si],al
000025E6  0000              add [bx+si],al
000025E8  0000              add [bx+si],al
000025EA  0000              add [bx+si],al
000025EC  0000              add [bx+si],al
000025EE  0000              add [bx+si],al
000025F0  0000              add [bx+si],al
000025F2  0000              add [bx+si],al
000025F4  0000              add [bx+si],al
000025F6  0000              add [bx+si],al
000025F8  0000              add [bx+si],al
000025FA  0000              add [bx+si],al
000025FC  0000              add [bx+si],al
000025FE  0000              add [bx+si],al
00002600  0000              add [bx+si],al
00002602  0000              add [bx+si],al
00002604  0000              add [bx+si],al
00002606  0000              add [bx+si],al
00002608  0000              add [bx+si],al
0000260A  0000              add [bx+si],al
0000260C  0000              add [bx+si],al
0000260E  0000              add [bx+si],al
00002610  0000              add [bx+si],al
00002612  0000              add [bx+si],al
00002614  0000              add [bx+si],al
00002616  0000              add [bx+si],al
00002618  0000              add [bx+si],al
0000261A  0000              add [bx+si],al
0000261C  0000              add [bx+si],al
0000261E  0000              add [bx+si],al
00002620  0000              add [bx+si],al
00002622  0000              add [bx+si],al
00002624  0000              add [bx+si],al
00002626  0000              add [bx+si],al
00002628  0000              add [bx+si],al
0000262A  0000              add [bx+si],al
0000262C  0000              add [bx+si],al
0000262E  0000              add [bx+si],al
00002630  0000              add [bx+si],al
00002632  0000              add [bx+si],al
00002634  0000              add [bx+si],al
00002636  0000              add [bx+si],al
00002638  0000              add [bx+si],al
0000263A  0000              add [bx+si],al
0000263C  0000              add [bx+si],al
0000263E  0000              add [bx+si],al
00002640  0000              add [bx+si],al
00002642  0000              add [bx+si],al
00002644  0000              add [bx+si],al
00002646  0000              add [bx+si],al
00002648  0000              add [bx+si],al
0000264A  0000              add [bx+si],al
0000264C  0000              add [bx+si],al
0000264E  0000              add [bx+si],al
00002650  0000              add [bx+si],al
00002652  0000              add [bx+si],al
00002654  0000              add [bx+si],al
00002656  0000              add [bx+si],al
00002658  0000              add [bx+si],al
0000265A  0000              add [bx+si],al
0000265C  0000              add [bx+si],al
0000265E  0000              add [bx+si],al
00002660  0000              add [bx+si],al
00002662  0000              add [bx+si],al
00002664  0000              add [bx+si],al
00002666  0000              add [bx+si],al
00002668  0000              add [bx+si],al
0000266A  0000              add [bx+si],al
0000266C  0000              add [bx+si],al
0000266E  0000              add [bx+si],al
00002670  0000              add [bx+si],al
00002672  0000              add [bx+si],al
00002674  0000              add [bx+si],al
00002676  0000              add [bx+si],al
00002678  0000              add [bx+si],al
0000267A  0000              add [bx+si],al
0000267C  0000              add [bx+si],al
0000267E  0000              add [bx+si],al
00002680  0000              add [bx+si],al
00002682  0000              add [bx+si],al
00002684  0000              add [bx+si],al
00002686  0000              add [bx+si],al
00002688  0000              add [bx+si],al
0000268A  0000              add [bx+si],al
0000268C  0000              add [bx+si],al
0000268E  0000              add [bx+si],al
00002690  0000              add [bx+si],al
00002692  0000              add [bx+si],al
00002694  0000              add [bx+si],al
00002696  0000              add [bx+si],al
00002698  0000              add [bx+si],al
0000269A  0000              add [bx+si],al
0000269C  0000              add [bx+si],al
0000269E  0000              add [bx+si],al
000026A0  0000              add [bx+si],al
000026A2  0000              add [bx+si],al
000026A4  0000              add [bx+si],al
000026A6  0000              add [bx+si],al
000026A8  0000              add [bx+si],al
000026AA  0000              add [bx+si],al
000026AC  0000              add [bx+si],al
000026AE  0000              add [bx+si],al
000026B0  0000              add [bx+si],al
000026B2  0000              add [bx+si],al
000026B4  0000              add [bx+si],al
000026B6  0000              add [bx+si],al
000026B8  0000              add [bx+si],al
000026BA  0000              add [bx+si],al
000026BC  0000              add [bx+si],al
000026BE  0000              add [bx+si],al
000026C0  0000              add [bx+si],al
000026C2  0000              add [bx+si],al
000026C4  0000              add [bx+si],al
000026C6  0000              add [bx+si],al
000026C8  0000              add [bx+si],al
000026CA  0000              add [bx+si],al
000026CC  0000              add [bx+si],al
000026CE  0000              add [bx+si],al
000026D0  0000              add [bx+si],al
000026D2  0000              add [bx+si],al
000026D4  0000              add [bx+si],al
000026D6  0000              add [bx+si],al
000026D8  0000              add [bx+si],al
000026DA  0000              add [bx+si],al
000026DC  0000              add [bx+si],al
000026DE  0000              add [bx+si],al
000026E0  0000              add [bx+si],al
000026E2  0000              add [bx+si],al
000026E4  0000              add [bx+si],al
000026E6  0000              add [bx+si],al
000026E8  0000              add [bx+si],al
000026EA  0000              add [bx+si],al
000026EC  0000              add [bx+si],al
000026EE  0000              add [bx+si],al
000026F0  0000              add [bx+si],al
000026F2  0000              add [bx+si],al
000026F4  0000              add [bx+si],al
000026F6  0000              add [bx+si],al
000026F8  0000              add [bx+si],al
000026FA  0000              add [bx+si],al
000026FC  0000              add [bx+si],al
000026FE  0000              add [bx+si],al
00002700  0000              add [bx+si],al
00002702  0000              add [bx+si],al
00002704  0000              add [bx+si],al
00002706  0000              add [bx+si],al
00002708  0000              add [bx+si],al
0000270A  0000              add [bx+si],al
0000270C  0000              add [bx+si],al
0000270E  0000              add [bx+si],al
00002710  0000              add [bx+si],al
00002712  0000              add [bx+si],al
00002714  0000              add [bx+si],al
00002716  0000              add [bx+si],al
00002718  0000              add [bx+si],al
0000271A  0000              add [bx+si],al
0000271C  0000              add [bx+si],al
0000271E  0000              add [bx+si],al
00002720  0000              add [bx+si],al
00002722  0000              add [bx+si],al
00002724  0000              add [bx+si],al
00002726  0000              add [bx+si],al
00002728  0000              add [bx+si],al
0000272A  0000              add [bx+si],al
0000272C  0000              add [bx+si],al
0000272E  0000              add [bx+si],al
00002730  0000              add [bx+si],al
00002732  0000              add [bx+si],al
00002734  0000              add [bx+si],al
00002736  0000              add [bx+si],al
00002738  0000              add [bx+si],al
0000273A  0000              add [bx+si],al
0000273C  0000              add [bx+si],al
0000273E  0000              add [bx+si],al
00002740  0000              add [bx+si],al
00002742  0000              add [bx+si],al
00002744  0000              add [bx+si],al
00002746  0000              add [bx+si],al
00002748  0000              add [bx+si],al
0000274A  0000              add [bx+si],al
0000274C  0000              add [bx+si],al
0000274E  0000              add [bx+si],al
00002750  0000              add [bx+si],al
00002752  0000              add [bx+si],al
00002754  0000              add [bx+si],al
00002756  0000              add [bx+si],al
00002758  0000              add [bx+si],al
0000275A  0000              add [bx+si],al
0000275C  0000              add [bx+si],al
0000275E  0000              add [bx+si],al
00002760  0000              add [bx+si],al
00002762  0000              add [bx+si],al
00002764  0000              add [bx+si],al
00002766  0000              add [bx+si],al
00002768  0000              add [bx+si],al
0000276A  0000              add [bx+si],al
0000276C  0000              add [bx+si],al
0000276E  0000              add [bx+si],al
00002770  0000              add [bx+si],al
00002772  0000              add [bx+si],al
00002774  0000              add [bx+si],al
00002776  0000              add [bx+si],al
00002778  0000              add [bx+si],al
0000277A  0000              add [bx+si],al
0000277C  0000              add [bx+si],al
0000277E  0000              add [bx+si],al
00002780  0000              add [bx+si],al
00002782  0000              add [bx+si],al
00002784  0000              add [bx+si],al
00002786  0000              add [bx+si],al
00002788  0000              add [bx+si],al
0000278A  0000              add [bx+si],al
0000278C  0000              add [bx+si],al
0000278E  0000              add [bx+si],al
00002790  0000              add [bx+si],al
00002792  0000              add [bx+si],al
00002794  0000              add [bx+si],al
00002796  0000              add [bx+si],al
00002798  0000              add [bx+si],al
0000279A  0000              add [bx+si],al
0000279C  0000              add [bx+si],al
0000279E  0000              add [bx+si],al
000027A0  0000              add [bx+si],al
000027A2  0000              add [bx+si],al
000027A4  0000              add [bx+si],al
000027A6  0000              add [bx+si],al
000027A8  0000              add [bx+si],al
000027AA  0000              add [bx+si],al
000027AC  0000              add [bx+si],al
000027AE  0000              add [bx+si],al
000027B0  0000              add [bx+si],al
000027B2  0000              add [bx+si],al
000027B4  0000              add [bx+si],al
000027B6  0000              add [bx+si],al
000027B8  0000              add [bx+si],al
000027BA  0000              add [bx+si],al
000027BC  0000              add [bx+si],al
000027BE  0000              add [bx+si],al
000027C0  0000              add [bx+si],al
000027C2  0000              add [bx+si],al
000027C4  0000              add [bx+si],al
000027C6  0000              add [bx+si],al
000027C8  0000              add [bx+si],al
000027CA  0000              add [bx+si],al
000027CC  0000              add [bx+si],al
000027CE  0000              add [bx+si],al
000027D0  0000              add [bx+si],al
000027D2  0000              add [bx+si],al
000027D4  0000              add [bx+si],al
000027D6  0000              add [bx+si],al
000027D8  0000              add [bx+si],al
000027DA  0000              add [bx+si],al
000027DC  0000              add [bx+si],al
000027DE  0000              add [bx+si],al
000027E0  0000              add [bx+si],al
000027E2  0000              add [bx+si],al
000027E4  0000              add [bx+si],al
000027E6  0000              add [bx+si],al
000027E8  0000              add [bx+si],al
000027EA  0000              add [bx+si],al
000027EC  0000              add [bx+si],al
000027EE  0000              add [bx+si],al
000027F0  0000              add [bx+si],al
000027F2  0000              add [bx+si],al
000027F4  0000              add [bx+si],al
000027F6  0000              add [bx+si],al
000027F8  0000              add [bx+si],al
000027FA  0000              add [bx+si],al
000027FC  0000              add [bx+si],al
000027FE  005055            add [bx+si+0x55],dl
00002801  AA                stosb
00002802  34E9              xor al,0xe9
00002804  2C62              sub al,0x62
00002806  54                push sp
00002807  46                inc si
00002808  46                inc si
00002809  53                push bx
0000280A  0000              add [bx+si],al
0000280C  2000              and [bx+si],al
0000280E  0000              add [bx+si],al
00002810  0000              add [bx+si],al
00002812  0000              add [bx+si],al
00002814  0000              add [bx+si],al
00002816  0000              add [bx+si],al
00002818  0000              add [bx+si],al
0000281A  50                push ax
0000281B  1E                push ds
0000281C  E460              in al,0x60
0000281E  3C53              cmp al,0x53
00002820  750E              jnz 0x2830
00002822  B80000            mov ax,0x0
00002825  8ED8              mov ds,ax
00002827  A01704            mov al,[0x417]
0000282A  240C              and al,0xc
0000282C  3C0C              cmp al,0xc
0000282E  7407              jz 0x2837
00002830  1F                pop ds
00002831  58                pop ax
00002832  2EFF2E1E57        jmp far [cs:0x571e]
00002837  53                push bx
00002838  51                push cx
00002839  52                push dx
0000283A  56                push si
0000283B  57                push di
0000283C  1E                push ds
0000283D  2EA14C58          mov ax,[cs:0x584c]
00002841  8ED8              mov ds,ax
00002843  BB0010            mov bx,0x1000
00002846  C6470300          mov byte [bx+0x3],0x0
0000284A  B10F              mov cl,0xf
0000284C  FEC9              dec cl
0000284E  884F05            mov [bx+0x5],cl
00002851  C647041B          mov byte [bx+0x4],0x1b
00002855  FF07              inc word [bx]
00002857  C6470DFF          mov byte [bx+0xd],0xff
0000285B  C6870008FF        mov byte [bx+0x800],0xff
00002860  C6470419          mov byte [bx+0x4],0x19
00002864  FF07              inc word [bx]
00002866  80F900            cmp cl,0x0
00002869  75E1              jnz 0x284c
0000286B  C6470284          mov byte [bx+0x2],0x84
0000286F  C6470284          mov byte [bx+0x2],0x84
00002873  1F                pop ds
00002874  B443              mov ah,0x43
00002876  2EA01557          mov al,[cs:0x5715]
0000287A  CD1A              int 0x1a
0000287C  724A              jc 0x28c8
0000287E  3D0000            cmp ax,0x0
00002881  7502              jnz 0x2885
00002883  8BC3              mov ax,bx
00002885  2EA32E57          mov [cs:0x572e],ax
00002889  B448              mov ah,0x48
0000288B  2EA01557          mov al,[cs:0x5715]
0000288F  32FF              xor bh,bh
00002891  CD1A              int 0x1a
00002893  B449              mov ah,0x49
00002895  2EA01557          mov al,[cs:0x5715]
00002899  32FF              xor bh,bh
0000289B  2E813E2E570002    cmp word [cs:0x572e],0x200
000028A2  7D0C              jnl 0x28b0
000028A4  56                push si
000028A5  B301              mov bl,0x1
000028A7  80E6FE            and dh,0xfe
000028AA  33FF              xor di,di
000028AC  CD1A              int 0x1a
000028AE  EB13              jmp short 0x28c3
000028B0  57                push di
000028B1  B300              mov bl,0x0
000028B3  CD1A              int 0x1a
000028B5  B44B              mov ah,0x4b
000028B7  2EA01557          mov al,[cs:0x5715]
000028BB  33DB              xor bx,bx
000028BD  B602              mov dh,0x2
000028BF  33FF              xor di,di
000028C1  CD1A              int 0x1a
000028C3  58                pop ax
000028C4  86E0              xchg ah,al
000028C6  8ED8              mov ds,ax
000028C8  5F                pop di
000028C9  5E                pop si
000028CA  5A                pop dx
000028CB  59                pop cx
000028CC  5B                pop bx
000028CD  1F                pop ds
000028CE  58                pop ax
000028CF  2EFF2E1E57        jmp far [cs:0x571e]
000028D4  EB19              jmp short 0x28ef
000028D6  90                nop
000028D7  2449              and al,0x49
000028D9  4E                dec si
000028DA  54                push sp
000028DB  3133              xor [bp+di],si
000028DD  53                push bx
000028DE  46                inc si
000028DF  4D                dec bp
000028E0  7379              jnc 0x295b
000028E2  7374              jnc 0x2958
000028E4  656D              gs insw
000028E6  7300              jnc 0x28e8
000028E8  0000              add [bx+si],al
000028EA  0000              add [bx+si],al
000028EC  0000              add [bx+si],al
000028EE  002E3A16          add [0x163a],ch
000028F2  395772            cmp [bx+0x72],dx
000028F5  392E3A16          cmp [0x163a],bp
000028F9  3A5772            cmp dl,[bx+0x72]
000028FC  37                aaa
000028FD  2EF606385701      test byte [cs:0x5738],0x1
00002903  742A              jz 0x292f
00002905  2E89163057        mov [cs:0x5730],dx
0000290A  2E2A163A57        sub dl,[cs:0x573a]
0000290F  2E02163957        add dl,[cs:0x5739]
00002914  2E89163257        mov [cs:0x5732],dx
00002919  9C                pushf
0000291A  2EFF1E2257        call far [cs:0x5722]
0000291F  9C                pushf
00002920  2E3B163257        cmp dx,[cs:0x5732]
00002925  7505              jnz 0x292c
00002927  2E8B163057        mov dx,[cs:0x5730]
0000292C  9D                popf
0000292D  EB60              jmp short 0x298f
0000292F  2EFF2E2257        jmp far [cs:0x5722]
00002934  FB                sti
00002935  2E833E135700      cmp word [cs:0x5713],byte +0x0
0000293B  7405              jz 0x2942
0000293D  B800AA            mov ax,0xaa00
00002940  EB5D              jmp short 0x299f
00002942  2EC70613570100    mov word [cs:0x5713],0x1
00002949  2E8C161A57        mov [cs:0x571a],ss
0000294E  2E89261C57        mov [cs:0x571c],sp
00002953  FA                cli
00002954  2E8E161657        mov ss,[cs:0x5716]
00002959  2E8B261857        mov sp,[cs:0x5718]
0000295E  FB                sti
0000295F  50                push ax
00002960  53                push bx
00002961  51                push cx
00002962  52                push dx
00002963  56                push si
00002964  57                push di
00002965  55                push bp
00002966  1E                push ds
00002967  06                push es
00002968  9C                pushf
00002969  8CC8              mov ax,cs
0000296B  8ED8              mov ds,ax
0000296D  90                nop
0000296E  0E                push cs
0000296F  E8FB05            call 0x2f6d
00002972  9D                popf
00002973  07                pop es
00002974  1F                pop ds
00002975  5D                pop bp
00002976  5F                pop di
00002977  5E                pop si
00002978  5A                pop dx
00002979  59                pop cx
0000297A  5B                pop bx
0000297B  58                pop ax
0000297C  FA                cli
0000297D  2E8E161A57        mov ss,[cs:0x571a]
00002982  2E8B261C57        mov sp,[cs:0x571c]
00002987  FB                sti
00002988  2EC70613570000    mov word [cs:0x5713],0x0
0000298F  720E              jc 0x299f
00002991  55                push bp
00002992  8BEC              mov bp,sp
00002994  836606FE          and word [bp+0x6],byte -0x2
00002998  814E060002        or word [bp+0x6],0x200
0000299D  5D                pop bp
0000299E  CF                iret
0000299F  55                push bp
000029A0  8BEC              mov bp,sp
000029A2  834E0601          or word [bp+0x6],byte +0x1
000029A6  814E060002        or word [bp+0x6],0x200
000029AB  5D                pop bp
000029AC  CF                iret
000029AD  3D20E8            cmp ax,0xe820
000029B0  757C              jnz 0x2a2e
000029B2  2EF606385720      test byte [cs:0x5738],0x20
000029B8  7423              jz 0x29dd
000029BA  55                push bp
000029BB  8BEC              mov bp,sp
000029BD  834E0601          or word [bp+0x6],byte +0x1
000029C1  50                push ax
000029C2  06                push es
000029C3  33C0              xor ax,ax
000029C5  8EC0              mov es,ax
000029C7  FA                cli
000029C8  2EA12657          mov ax,[cs:0x5726]
000029CC  26A35400          mov [es:0x54],ax
000029D0  2EA12857          mov ax,[cs:0x5728]
000029D4  26A35600          mov [es:0x56],ax
000029D8  FB                sti
000029D9  07                pop es
000029DA  58                pop ax
000029DB  5D                pop bp
000029DC  CF                iret
000029DD  9C                pushf
000029DE  2EFF1E2657        call far [cs:0x5726]
000029E3  55                push bp
000029E4  8BEC              mov bp,sp
000029E6  50                push ax
000029E7  9C                pushf
000029E8  58                pop ax
000029E9  894606            mov [bp+0x6],ax
000029EC  58                pop ax
000029ED  5D                pop bp
000029EE  2E8C161A57        mov [cs:0x571a],ss
000029F3  2E89261C57        mov [cs:0x571c],sp
000029F8  FA                cli
000029F9  2E8E161657        mov ss,[cs:0x5716]
000029FE  2E8B261857        mov sp,[cs:0x5718]
00002A03  FB                sti
00002A04  50                push ax
00002A05  53                push bx
00002A06  51                push cx
00002A07  52                push dx
00002A08  56                push si
00002A09  57                push di
00002A0A  55                push bp
00002A0B  1E                push ds
00002A0C  06                push es
00002A0D  9C                pushf
00002A0E  8CC8              mov ax,cs
00002A10  8ED8              mov ds,ax
00002A12  90                nop
00002A13  0E                push cs
00002A14  E8F404            call 0x2f0b
00002A17  9D                popf
00002A18  07                pop es
00002A19  1F                pop ds
00002A1A  5D                pop bp
00002A1B  5F                pop di
00002A1C  5E                pop si
00002A1D  5A                pop dx
00002A1E  59                pop cx
00002A1F  5B                pop bx
00002A20  58                pop ax
00002A21  FA                cli
00002A22  2E8E161A57        mov ss,[cs:0x571a]
00002A27  2E8B261C57        mov sp,[cs:0x571c]
00002A2C  FB                sti
00002A2D  CF                iret
00002A2E  2EFF2E2657        jmp far [cs:0x5726]
00002A33  55                push bp
00002A34  8BEC              mov bp,sp
00002A36  56                push si
00002A37  8B7604            mov si,[bp+0x4]
00002A3A  EB0A              jmp short 0x2a46
00002A3C  8A04              mov al,[si]
00002A3E  46                inc si
00002A3F  B40E              mov ah,0xe
00002A41  BB0700            mov bx,0x7
00002A44  CD10              int 0x10
00002A46  803C00            cmp byte [si],0x0
00002A49  75F1              jnz 0x2a3c
00002A4B  5E                pop si
00002A4C  5D                pop bp
00002A4D  C20200            ret 0x2
00002A50  55                push bp
00002A51  8BEC              mov bp,sp
00002A53  81EC1602          sub sp,0x216
00002A57  56                push si
00002A58  8B7604            mov si,[bp+0x4]
00002A5B  8B1C              mov bx,[si]
00002A5D  8B4702            mov ax,[bx+0x2]
00002A60  8946FE            mov [bp-0x2],ax
00002A63  833C00            cmp word [si],byte +0x0
00002A66  740B              jz 0x2a73
00002A68  B80300            mov ax,0x3
00002A6B  50                push ax
00002A6C  53                push bx
00002A6D  8B1F              mov bx,[bx]
00002A6F  FF17              call near [bx]
00002A71  EB00              jmp short 0x2a73
00002A73  FF76FE            push word [bp-0x2]
00002A76  E8780B            call 0x35f1
00002A79  8904              mov [si],ax
00002A7B  FF34              push word [si]
00002A7D  E83A0B            call 0x35ba
00002A80  B109              mov cl,0x9
00002A82  E86A50            call 0x7aef
00002A85  8956FC            mov [bp-0x4],dx
00002A88  8946FA            mov [bp-0x6],ax
00002A8B  8B1C              mov bx,[si]
00002A8D  8B4708            mov ax,[bx+0x8]
00002A90  0B470A            or ax,[bx+0xa]
00002A93  7403              jz 0x2a98
00002A95  E9D100            jmp 0x2b69
00002A98  C746EC0000        mov word [bp-0x14],0x0
00002A9D  C746EA0004        mov word [bp-0x16],0x400
00002AA2  C746F80000        mov word [bp-0x8],0x0
00002AA7  C746F61000        mov word [bp-0xa],0x10
00002AAC  8B4EEC            mov cx,[bp-0x14]
00002AAF  8B5EEA            mov bx,[bp-0x16]
00002AB2  8B56F8            mov dx,[bp-0x8]
00002AB5  8B46F6            mov ax,[bp-0xa]
00002AB8  E8A650            call 0x7b61
00002ABB  8956F0            mov [bp-0x10],dx
00002ABE  8946EE            mov [bp-0x12],ax
00002AC1  52                push dx
00002AC2  50                push ax
00002AC3  FF76FC            push word [bp-0x4]
00002AC6  FF76FA            push word [bp-0x6]
00002AC9  E83B4F            call 0x7a07
00002ACC  8956F4            mov [bp-0xc],dx
00002ACF  8946F2            mov [bp-0xe],ax
00002AD2  FF76F0            push word [bp-0x10]
00002AD5  FF76EE            push word [bp-0x12]
00002AD8  FF76FC            push word [bp-0x4]
00002ADB  FF76FA            push word [bp-0x6]
00002ADE  E8364F            call 0x7a17
00002AE1  0BC2              or ax,dx
00002AE3  746F              jz 0x2b54
00002AE5  8346F201          add word [bp-0xe],byte +0x1
00002AE9  8356F400          adc word [bp-0xc],byte +0x0
00002AED  8B4EEC            mov cx,[bp-0x14]
00002AF0  8B5EEA            mov bx,[bp-0x16]
00002AF3  8B56F4            mov dx,[bp-0xc]
00002AF6  8B46F2            mov ax,[bp-0xe]
00002AF9  E86550            call 0x7b61
00002AFC  8956F0            mov [bp-0x10],dx
00002AFF  8946EE            mov [bp-0x12],ax
00002B02  52                push dx
00002B03  50                push ax
00002B04  FF76FC            push word [bp-0x4]
00002B07  FF76FA            push word [bp-0x6]
00002B0A  E8FA4E            call 0x7a07
00002B0D  8956F8            mov [bp-0x8],dx
00002B10  8946F6            mov [bp-0xa],ax
00002B13  FF76F0            push word [bp-0x10]
00002B16  FF76EE            push word [bp-0x12]
00002B19  FF76FC            push word [bp-0x4]
00002B1C  FF76FA            push word [bp-0x6]
00002B1F  E8F54E            call 0x7a17
00002B22  0BC2              or ax,dx
00002B24  742E              jz 0x2b54
00002B26  8346F601          add word [bp-0xa],byte +0x1
00002B2A  8356F800          adc word [bp-0x8],byte +0x0
00002B2E  8B4EF8            mov cx,[bp-0x8]
00002B31  8B5EF6            mov bx,[bp-0xa]
00002B34  8B56F4            mov dx,[bp-0xc]
00002B37  8B46F2            mov ax,[bp-0xe]
00002B3A  E82450            call 0x7b61
00002B3D  8956F0            mov [bp-0x10],dx
00002B40  8946EE            mov [bp-0x12],ax
00002B43  52                push dx
00002B44  50                push ax
00002B45  FF76FC            push word [bp-0x4]
00002B48  FF76FA            push word [bp-0x6]
00002B4B  E8B94E            call 0x7a07
00002B4E  8956EC            mov [bp-0x14],dx
00002B51  8946EA            mov [bp-0x16],ax
00002B54  8B46F2            mov ax,[bp-0xe]
00002B57  894406            mov [si+0x6],ax
00002B5A  8B46F6            mov ax,[bp-0xa]
00002B5D  894402            mov [si+0x2],ax
00002B60  8B46EA            mov ax,[bp-0x16]
00002B63  894404            mov [si+0x4],ax
00002B66  E9B000            jmp 0x2c19
00002B69  33C0              xor ax,ax
00002B6B  33D2              xor dx,dx
00002B6D  50                push ax
00002B6E  52                push dx
00002B6F  16                push ss
00002B70  8D86EAFD          lea ax,[bp+0xfdea]
00002B74  50                push ax
00002B75  B80100            mov ax,0x1
00002B78  50                push ax
00002B79  FF34              push word [si]
00002B7B  8B1C              mov bx,[si]
00002B7D  8B1F              mov bx,[bx]
00002B7F  FF5702            call near [bx+0x2]
00002B82  8B1C              mov bx,[si]
00002B84  8B4708            mov ax,[bx+0x8]
00002B87  894406            mov [si+0x6],ax
00002B8A  33D2              xor dx,dx
00002B8C  8BDA              mov bx,dx
00002B8E  B104              mov cl,0x4
00002B90  D3E3              shl bx,cl
00002B92  8D46AC            lea ax,[bp-0x54]
00002B95  03D8              add bx,ax
00002B97  803F00            cmp byte [bx],0x0
00002B9A  742E              jz 0x2bca
00002B9C  8BDA              mov bx,dx
00002B9E  D3E3              shl bx,cl
00002BA0  8D46AD            lea ax,[bp-0x53]
00002BA3  03D8              add bx,ax
00002BA5  8A07              mov al,[bx]
00002BA7  B400              mov ah,0x0
00002BA9  40                inc ax
00002BAA  894402            mov [si+0x2],ax
00002BAD  33C0              xor ax,ax
00002BAF  50                push ax
00002BB0  FF7406            push word [si+0x6]
00002BB3  50                push ax
00002BB4  FF7402            push word [si+0x2]
00002BB7  FF76FC            push word [bp-0x4]
00002BBA  FF76FA            push word [bp-0x6]
00002BBD  E8474E            call 0x7a07
00002BC0  52                push dx
00002BC1  50                push ax
00002BC2  E8424E            call 0x7a07
00002BC5  894404            mov [si+0x4],ax
00002BC8  EB06              jmp short 0x2bd0
00002BCA  42                inc dx
00002BCB  83FA04            cmp dx,byte +0x4
00002BCE  7CBC              jl 0x2b8c
00002BD0  33C0              xor ax,ax
00002BD2  33D2              xor dx,dx
00002BD4  89440E            mov [si+0xe],ax
00002BD7  89540C            mov [si+0xc],dx
00002BDA  89440A            mov [si+0xa],ax
00002BDD  895408            mov [si+0x8],dx
00002BE0  8B4690            mov ax,[bp-0x70]
00002BE3  0B4692            or ax,[bp-0x6e]
00002BE6  7531              jnz 0x2c19
00002BE8  8B4694            mov ax,[bp-0x6c]
00002BEB  0B4696            or ax,[bp-0x6a]
00002BEE  7508              jnz 0x2bf8
00002BF0  8B4698            mov ax,[bp-0x68]
00002BF3  0B469A            or ax,[bp-0x66]
00002BF6  7421              jz 0x2c19
00002BF8  8B4696            mov ax,[bp-0x6a]
00002BFB  8B5694            mov dx,[bp-0x6c]
00002BFE  89440A            mov [si+0xa],ax
00002C01  895408            mov [si+0x8],dx
00002C04  8B469A            mov ax,[bp-0x66]
00002C07  8B5698            mov dx,[bp-0x68]
00002C0A  89440E            mov [si+0xe],ax
00002C0D  89540C            mov [si+0xc],dx
00002C10  8B1C              mov bx,[si]
00002C12  8B5F02            mov bx,[bx+0x2]
00002C15  834F0E10          or word [bx+0xe],byte +0x10
00002C19  5E                pop si
00002C1A  8BE5              mov sp,bp
00002C1C  5D                pop bp
00002C1D  C20200            ret 0x2
00002C20  55                push bp
00002C21  8BEC              mov bp,sp
00002C23  81EC0002          sub sp,0x200
00002C27  56                push si
00002C28  8B7604            mov si,[bp+0x4]
00002C2B  33C0              xor ax,ax
00002C2D  33D2              xor dx,dx
00002C2F  50                push ax
00002C30  52                push dx
00002C31  16                push ss
00002C32  8D8600FE          lea ax,[bp+0xfe00]
00002C36  50                push ax
00002C37  B80100            mov ax,0x1
00002C3A  50                push ax
00002C3B  FF34              push word [si]
00002C3D  8B1C              mov bx,[si]
00002C3F  8B1F              mov bx,[bx]
00002C41  FF5702            call near [bx+0x2]
00002C44  C746A80000        mov word [bp-0x58],0x0
00002C49  C746A60000        mov word [bp-0x5a],0x0
00002C4E  8B440A            mov ax,[si+0xa]
00002C51  8B5408            mov dx,[si+0x8]
00002C54  8946AC            mov [bp-0x54],ax
00002C57  8956AA            mov [bp-0x56],dx
00002C5A  8B440E            mov ax,[si+0xe]
00002C5D  8B540C            mov dx,[si+0xc]
00002C60  8946B0            mov [bp-0x50],ax
00002C63  8956AE            mov [bp-0x52],dx
00002C66  8B1C              mov bx,[si]
00002C68  8B5F02            mov bx,[bx+0x2]
00002C6B  83670EEF          and word [bx+0xe],byte -0x11
00002C6F  33C0              xor ax,ax
00002C71  33D2              xor dx,dx
00002C73  50                push ax
00002C74  52                push dx
00002C75  16                push ss
00002C76  8D8600FE          lea ax,[bp+0xfe00]
00002C7A  50                push ax
00002C7B  B80100            mov ax,0x1
00002C7E  50                push ax
00002C7F  FF34              push word [si]
00002C81  8B1C              mov bx,[si]
00002C83  8B1F              mov bx,[bx]
00002C85  FF5704            call near [bx+0x4]
00002C88  5E                pop si
00002C89  8BE5              mov sp,bp
00002C8B  5D                pop bp
00002C8C  C20200            ret 0x2
00002C8F  55                push bp
00002C90  8BEC              mov bp,sp
00002C92  83EC04            sub sp,byte +0x4
00002C95  56                push si
00002C96  57                push di
00002C97  830E125902        or word [0x5912],byte +0x2
00002C9C  33C0              xor ax,ax
00002C9E  50                push ax
00002C9F  FF7604            push word [bp+0x4]
00002CA2  A13B57            mov ax,[0x573b]
00002CA5  B108              mov cl,0x8
00002CA7  D3E8              shr ax,cl
00002CA9  50                push ax
00002CAA  E8C257            call 0x846f
00002CAD  8946FE            mov [bp-0x2],ax
00002CB0  837EFE00          cmp word [bp-0x2],byte +0x0
00002CB4  740D              jz 0x2cc3
00002CB6  B84F57            mov ax,0x574f
00002CB9  50                push ax
00002CBA  E876FD            call 0x2a33
00002CBD  B80D00            mov ax,0xd
00002CC0  E99E01            jmp 0x2e61
00002CC3  F606385710        test byte [0x5738],0x10
00002CC8  7425              jz 0x2cef
00002CCA  C606395700        mov byte [0x5739],0x0
00002CCF  C41E4757          les bx,[0x5747]
00002CD3  26F7070100        test word [es:bx],0x1
00002CD8  7406              jz 0x2ce0
00002CDA  26830740          add word [es:bx],byte +0x40
00002CDE  EB49              jmp short 0x2d29
00002CE0  C41E4757          les bx,[0x5747]
00002CE4  268B07            mov ax,[es:bx]
00002CE7  250100            and ax,0x1
00002CEA  268907            mov [es:bx],ax
00002CED  EB3A              jmp short 0x2d29
00002CEF  C606395780        mov byte [0x5739],0x80
00002CF4  50                push ax
00002CF5  51                push cx
00002CF6  B43F              mov ah,0x3f
00002CF8  CD1A              int 0x1a
00002CFA  7216              jc 0x2d12
00002CFC  81F95A5A          cmp cx,0x5a5a
00002D00  7510              jnz 0x2d12
00002D02  0AC0              or al,al
00002D04  7507              jnz 0x2d0d
00002D06  800E385701        or byte [0x5738],0x1
00002D0B  EB05              jmp short 0x2d12
00002D0D  80263857FE        and byte [0x5738],0xfe
00002D12  59                pop cx
00002D13  58                pop ax
00002D14  A03857            mov al,[0x5738]
00002D17  B400              mov ah,0x0
00002D19  A90100            test ax,0x1
00002D1C  750B              jnz 0x2d29
00002D1E  C41E4357          les bx,[0x5743]
00002D22  268A07            mov al,[es:bx]
00002D25  00063957          add [0x5739],al
00002D29  A03957            mov al,[0x5739]
00002D2C  A23A57            mov [0x573a],al
00002D2F  A10A59            mov ax,[0x590a]
00002D32  BA1100            mov dx,0x11
00002D35  F7EA              imul dx
00002D37  50                push ax
00002D38  E8EE4D            call 0x7b29
00002D3B  59                pop cx
00002D3C  A3F258            mov [0x58f2],ax
00002D3F  33F6              xor si,si
00002D41  C746FC0000        mov word [bp-0x4],0x0
00002D46  3B360A59          cmp si,[0x590a]
00002D4A  7C03              jl 0x2d4f
00002D4C  E9BF00            jmp 0x2e0e
00002D4F  F606385710        test byte [0x5738],0x10
00002D54  7517              jnz 0x2d6d
00002D56  8BC6              mov ax,si
00002D58  D1E0              shl ax,1
00002D5A  8B1E0C59          mov bx,[0x590c]
00002D5E  03D8              add bx,ax
00002D60  FF37              push word [bx]
00002D62  E8E948            call 0x764e
00002D65  3D0300            cmp ax,0x3
00002D68  7503              jnz 0x2d6d
00002D6A  E99700            jmp 0x2e04
00002D6D  8BC6              mov ax,si
00002D6F  D1E0              shl ax,1
00002D71  8B1E0C59          mov bx,[0x590c]
00002D75  03D8              add bx,ax
00002D77  8B1F              mov bx,[bx]
00002D79  8A4606            mov al,[bp+0x6]
00002D7C  88470B            mov [bx+0xb],al
00002D7F  837E0600          cmp word [bp+0x6],byte +0x0
00002D83  7407              jz 0x2d8c
00002D85  B88657            mov ax,0x5786
00002D88  50                push ax
00002D89  E8A7FC            call 0x2a33
00002D8C  F606385710        test byte [0x5738],0x10
00002D91  741B              jz 0x2dae
00002D93  57                push di
00002D94  8A163A57          mov dl,[0x573a]
00002D98  B408              mov ah,0x8
00002D9A  CD13              int 0x13
00002D9C  5F                pop di
00002D9D  8B46FC            mov ax,[bp-0x4]
00002DA0  BA1100            mov dx,0x11
00002DA3  F7EA              imul dx
00002DA5  8B1EF258          mov bx,[0x58f2]
00002DA9  03D8              add bx,ax
00002DAB  885F10            mov [bx+0x10],bl
00002DAE  8BC6              mov ax,si
00002DB0  D1E0              shl ax,1
00002DB2  8B1E0C59          mov bx,[0x590c]
00002DB6  03D8              add bx,ax
00002DB8  FF37              push word [bx]
00002DBA  33C0              xor ax,ax
00002DBC  50                push ax
00002DBD  E89937            call 0x6559
00002DC0  50                push ax
00002DC1  8B46FC            mov ax,[bp-0x4]
00002DC4  BA1100            mov dx,0x11
00002DC7  F7EA              imul dx
00002DC9  8B1EF258          mov bx,[0x58f2]
00002DCD  03D8              add bx,ax
00002DCF  58                pop ax
00002DD0  8907              mov [bx],ax
00002DD2  FF46FC            inc word [bp-0x4]
00002DD5  FE063A57          inc byte [0x573a]
00002DD9  A03857            mov al,[0x5738]
00002DDC  B400              mov ah,0x0
00002DDE  A91000            test ax,0x10
00002DE1  7509              jnz 0x2dec
00002DE3  C41E4357          les bx,[0x5743]
00002DE7  26FE07            inc byte [es:bx]
00002DEA  EB18              jmp short 0x2e04
00002DEC  A03A57            mov al,[0x573a]
00002DEF  B400              mov ah,0x0
00002DF1  C41E4757          les bx,[0x5747]
00002DF5  268B17            mov dx,[es:bx]
00002DF8  B106              mov cl,0x6
00002DFA  D3EA              shr dx,cl
00002DFC  83E203            and dx,byte +0x3
00002DFF  42                inc dx
00002E00  3BC2              cmp ax,dx
00002E02  730A              jnc 0x2e0e
00002E04  46                inc si
00002E05  3B360A59          cmp si,[0x590a]
00002E09  7D03              jnl 0x2e0e
00002E0B  E941FF            jmp 0x2d4f
00002E0E  A03A57            mov al,[0x573a]
00002E11  3A063957          cmp al,[0x5739]
00002E15  7705              ja 0x2e1c
00002E17  B80300            mov ax,0x3
00002E1A  EB45              jmp short 0x2e61
00002E1C  FA                cli
00002E1D  C41E3F57          les bx,[0x573f]
00002E21  26C747020000      mov word [es:bx+0x2],0x0
00002E27  26C7070000        mov word [es:bx],0x0
00002E2C  FB                sti
00002E2D  C606F458FF        mov byte [0x58f4],0xff
00002E32  A03857            mov al,[0x5738]
00002E35  B400              mov ah,0x0
00002E37  A90400            test ax,0x4
00002E3A  7523              jnz 0x2e5f
00002E3C  B89B57            mov ax,0x579b
00002E3F  50                push ax
00002E40  E8F0FB            call 0x2a33
00002E43  B8AC57            mov ax,0x57ac
00002E46  50                push ax
00002E47  E8E9FB            call 0x2a33
00002E4A  B8D557            mov ax,0x57d5
00002E4D  50                push ax
00002E4E  E8E2FB            call 0x2a33
00002E51  B8D857            mov ax,0x57d8
00002E54  50                push ax
00002E55  E8DBFB            call 0x2a33
00002E58  B8FB57            mov ax,0x57fb
00002E5B  50                push ax
00002E5C  E8D4FB            call 0x2a33
00002E5F  33C0              xor ax,ax
00002E61  5F                pop di
00002E62  5E                pop si
00002E63  8BE5              mov sp,bp
00002E65  5D                pop bp
00002E66  C3                ret
00002E67  55                push bp
00002E68  8BEC              mov bp,sp
00002E6A  81EC0002          sub sp,0x200
00002E6E  56                push si
00002E6F  8B7608            mov si,[bp+0x8]
00002E72  FF7606            push word [bp+0x6]
00002E75  FF7604            push word [bp+0x4]
00002E78  16                push ss
00002E79  8D8600FE          lea ax,[bp+0xfe00]
00002E7D  50                push ax
00002E7E  B80100            mov ax,0x1
00002E81  50                push ax
00002E82  56                push si
00002E83  8B1C              mov bx,[si]
00002E85  FF5702            call near [bx+0x2]
00002E88  5E                pop si
00002E89  8BE5              mov sp,bp
00002E8B  5D                pop bp
00002E8C  C20600            ret 0x6
00002E8F  55                push bp
00002E90  8BEC              mov bp,sp
00002E92  56                push si
00002E93  57                push di
00002E94  8B7606            mov si,[bp+0x6]
00002E97  8B7E04            mov di,[bp+0x4]
00002E9A  8B5E08            mov bx,[bp+0x8]
00002E9D  4B                dec bx
00002E9E  83FB0F            cmp bx,byte +0xf
00002EA1  773B              ja 0x2ede
00002EA3  D1E3              shl bx,1
00002EA5  2EFFA7EB06        jmp near [cs:bx+0x6eb]
00002EAA  C7040003          mov word [si],0x300
00002EAE  EB32              jmp short 0x2ee2
00002EB0  EB12              jmp short 0x2ec4
00002EB2  C7040080          mov word [si],0x8000
00002EB6  EB2A              jmp short 0x2ee2
00002EB8  EB24              jmp short 0x2ede
00002EBA  EB14              jmp short 0x2ed0
00002EBC  EB20              jmp short 0x2ede
00002EBE  C7040040          mov word [si],0x4000
00002EC2  EB1E              jmp short 0x2ee2
00002EC4  C704000C          mov word [si],0xc00
00002EC8  EB18              jmp short 0x2ee2
00002ECA  C7040004          mov word [si],0x400
00002ECE  EB12              jmp short 0x2ee2
00002ED0  C7040010          mov word [si],0x1000
00002ED4  EB0C              jmp short 0x2ee2
00002ED6  EB06              jmp short 0x2ede
00002ED8  C7040006          mov word [si],0x600
00002EDC  EB04              jmp short 0x2ee2
00002EDE  C7040001          mov word [si],0x100
00002EE2  830D01            or word [di],byte +0x1
00002EE5  5F                pop di
00002EE6  5E                pop si
00002EE7  5D                pop bp
00002EE8  C20600            ret 0x6
00002EEB  AA                stosb
00002EEC  06                push es
00002EED  B006              mov al,0x6
00002EEF  B206              mov dl,0x6
00002EF1  B806BA            mov ax,0xba06
00002EF4  06                push es
00002EF5  BC06BE            mov sp,0xbe06
00002EF8  06                push es
00002EF9  C406CA06          les ax,[0x6ca]
00002EFD  DE06D006          fiadd word [0x6d0]
00002F01  D006D606          rol byte [0x6d6],1
00002F05  DE06DE06          fiadd word [0x6de]
00002F09  D806558B          fadd dword [0x8b55]
00002F0D  EC                in al,dx
00002F0E  83EC04            sub sp,byte +0x4
00002F11  8B4608            mov ax,[bp+0x8]
00002F14  8B560E            mov dx,[bp+0xe]
00002F17  8946FE            mov [bp-0x2],ax
00002F1A  8956FC            mov [bp-0x4],dx
00002F1D  F746060100        test word [bp+0x6],0x1
00002F22  7545              jnz 0x2f69
00002F24  C45EFC            les bx,[bp-0x4]
00002F27  26837F1200        cmp word [es:bx+0x12],byte +0x0
00002F2C  753B              jnz 0x2f69
00002F2E  26837F1001        cmp word [es:bx+0x10],byte +0x1
00002F33  7534              jnz 0x2f69
00002F35  268B07            mov ax,[es:bx]
00002F38  260B4702          or ax,[es:bx+0x2]
00002F3C  752B              jnz 0x2f69
00002F3E  26837F0A0A        cmp word [es:bx+0xa],byte +0xa
00002F43  7724              ja 0x2f69
00002F45  7507              jnz 0x2f4e
00002F47  26837F0800        cmp word [es:bx+0x8],byte +0x0
00002F4C  771B              ja 0x2f69
00002F4E  B84000            mov ax,0x40
00002F51  8EC0              mov es,ax
00002F53  26A11300          mov ax,[es:0x13]
00002F57  33D2              xor dx,dx
00002F59  B10A              mov cl,0xa
00002F5B  E8504B            call 0x7aae
00002F5E  C45EFC            les bx,[bp-0x4]
00002F61  2689570A          mov [es:bx+0xa],dx
00002F65  26894708          mov [es:bx+0x8],ax
00002F69  8BE5              mov sp,bp
00002F6B  5D                pop bp
00002F6C  CB                retf
00002F6D  55                push bp
00002F6E  8BEC              mov bp,sp
00002F70  83EC38            sub sp,byte +0x38
00002F73  56                push si
00002F74  57                push di
00002F75  C746FE0000        mov word [bp-0x2],0x0
00002F7A  8B4618            mov ax,[bp+0x18]
00002F7D  B108              mov cl,0x8
00002F7F  D3E8              shr ax,cl
00002F81  B400              mov ah,0x0
00002F83  8BF0              mov si,ax
00002F85  836606FE          and word [bp+0x6],byte -0x2
00002F89  816618FF00        and word [bp+0x18],0xff
00002F8E  8A4612            mov al,[bp+0x12]
00002F91  B400              mov ah,0x0
00002F93  8A163957          mov dl,[0x5739]
00002F97  B600              mov dh,0x0
00002F99  2BC2              sub ax,dx
00002F9B  BA1100            mov dx,0x11
00002F9E  F7EA              imul dx
00002FA0  8B3EF258          mov di,[0x58f2]
00002FA4  03F8              add di,ax
00002FA6  8B05              mov ax,[di]
00002FA8  8946FC            mov [bp-0x4],ax
00002FAB  8B5EFC            mov bx,[bp-0x4]
00002FAE  8B4702            mov ax,[bx+0x2]
00002FB1  8946FA            mov [bp-0x6],ax
00002FB4  8B5EFA            mov bx,[bp-0x6]
00002FB7  807F0B00          cmp byte [bx+0xb],0x0
00002FBB  B80100            mov ax,0x1
00002FBE  50                push ax
00002FBF  FF76FA            push word [bp-0x6]
00002FC2  E80E46            call 0x75d3
00002FC5  83FE16            cmp si,byte +0x16
00002FC8  7506              jnz 0x2fd0
00002FCA  FF76FA            push word [bp-0x6]
00002FCD  E87E46            call 0x764e
00002FD0  8B5EFA            mov bx,[bp-0x6]
00002FD3  807F0C00          cmp byte [bx+0xc],0x0
00002FD7  741F              jz 0x2ff8
00002FD9  C7064D570100      mov word [0x574d],0x1
00002FDF  57                push di
00002FE0  E86DFA            call 0x2a50
00002FE3  8B05              mov ax,[di]
00002FE5  8946FC            mov [bp-0x4],ax
00002FE8  8B5EFC            mov bx,[bp-0x4]
00002FEB  837F0600          cmp word [bx+0x6],byte +0x0
00002FEF  7407              jz 0x2ff8
00002FF1  8B5EFA            mov bx,[bp-0x6]
00002FF4  C6470C01          mov byte [bx+0xc],0x1
00002FF8  B80100            mov ax,0x1
00002FFB  50                push ax
00002FFC  FF76FC            push word [bp-0x4]
00002FFF  E8CF05            call 0x35d1
00003002  803EF45800        cmp byte [0x58f4],0x0
00003007  7425              jz 0x302e
00003009  C41E3F57          les bx,[0x573f]
0000300D  268B07            mov ax,[es:bx]
00003010  260B4702          or ax,[es:bx+0x2]
00003014  7418              jz 0x302e
00003016  FE0EF458          dec byte [0x58f4]
0000301A  803EF45800        cmp byte [0x58f4],0x0
0000301F  750D              jnz 0x302e
00003021  A03857            mov al,[0x5738]
00003024  B400              mov ah,0x0
00003026  A90200            test ax,0x2
00003029  7503              jnz 0x302e
0000302B  E8E443            call 0x7412
0000302E  8BDE              mov bx,si
00003030  83FB1F            cmp bx,byte +0x1f
00003033  7603              jna 0x3038
00003035  E9C304            jmp 0x34fb
00003038  D1E3              shl bx,1
0000303A  2EFFA77A0D        jmp near [cs:bx+0xd7a]
0000303F  A14B57            mov ax,[0x574b]
00003042  894618            mov [bp+0x18],ax
00003045  E9B804            jmp 0x3500
00003048  8A4618            mov al,[bp+0x18]
0000304B  B400              mov ah,0x0
0000304D  8946F8            mov [bp-0x8],ax
00003050  8A4614            mov al,[bp+0x14]
00003053  B400              mov ah,0x0
00003055  253F00            and ax,0x3f
00003058  48                dec ax
00003059  8946F6            mov [bp-0xa],ax
0000305C  8B4614            mov ax,[bp+0x14]
0000305F  B108              mov cl,0x8
00003061  D3E8              shr ax,cl
00003063  B400              mov ah,0x0
00003065  8B5614            mov dx,[bp+0x14]
00003068  81E2C000          and dx,0xc0
0000306C  B102              mov cl,0x2
0000306E  D3E2              shl dx,cl
00003070  03C2              add ax,dx
00003072  8946F4            mov [bp-0xc],ax
00003075  8B4612            mov ax,[bp+0x12]
00003078  B108              mov cl,0x8
0000307A  D3E8              shr ax,cl
0000307C  B400              mov ah,0x0
0000307E  8946F2            mov [bp-0xe],ax
00003081  8B4502            mov ax,[di+0x2]
00003084  F76EF4            imul word [bp-0xc]
00003087  0346F2            add ax,[bp-0xe]
0000308A  33C9              xor cx,cx
0000308C  50                push ax
0000308D  8B4506            mov ax,[di+0x6]
00003090  33D2              xor dx,dx
00003092  5B                pop bx
00003093  E8CB4A            call 0x7b61
00003096  0346F6            add ax,[bp-0xa]
00003099  83D200            adc dx,byte +0x0
0000309C  8956F0            mov [bp-0x10],dx
0000309F  8946EE            mov [bp-0x12],ax
000030A2  F606385710        test byte [0x5738],0x10
000030A7  740F              jz 0x30b8
000030A9  8B5EFC            mov bx,[bp-0x4]
000030AC  8B470A            mov ax,[bx+0xa]
000030AF  8B5708            mov dx,[bx+0x8]
000030B2  0156EE            add [bp-0x12],dx
000030B5  1146F0            adc [bp-0x10],ax
000030B8  8B5EFC            mov bx,[bp-0x4]
000030BB  837F0603          cmp word [bx+0x6],byte +0x3
000030BF  7508              jnz 0x30c9
000030C1  C746FE0300        mov word [bp-0x2],0x3
000030C6  E93704            jmp 0x3500
000030C9  83FE02            cmp si,byte +0x2
000030CC  7565              jnz 0x3133
000030CE  FF76F0            push word [bp-0x10]
000030D1  FF76EE            push word [bp-0x12]
000030D4  FF7608            push word [bp+0x8]
000030D7  FF7616            push word [bp+0x16]
000030DA  FF76F8            push word [bp-0x8]
000030DD  FF76FC            push word [bp-0x4]
000030E0  8B5EFC            mov bx,[bp-0x4]
000030E3  8B1F              mov bx,[bx]
000030E5  FF5702            call near [bx+0x2]
000030E8  8946FE            mov [bp-0x2],ax
000030EB  8B46EE            mov ax,[bp-0x12]
000030EE  0B46F0            or ax,[bp-0x10]
000030F1  7403              jz 0x30f6
000030F3  E90A04            jmp 0x3500
000030F6  8B4508            mov ax,[di+0x8]
000030F9  0B450A            or ax,[di+0xa]
000030FC  750B              jnz 0x3109
000030FE  8B450C            mov ax,[di+0xc]
00003101  0B450E            or ax,[di+0xe]
00003104  7503              jnz 0x3109
00003106  E9F703            jmp 0x3500
00003109  8B4608            mov ax,[bp+0x8]
0000310C  8B5616            mov dx,[bp+0x16]
0000310F  8946E8            mov [bp-0x18],ax
00003112  8956E6            mov [bp-0x1a],dx
00003115  C45EE6            les bx,[bp-0x1a]
00003118  33C0              xor ax,ax
0000311A  33D2              xor dx,dx
0000311C  268987B001        mov [es:bx+0x1b0],ax
00003121  268997AE01        mov [es:bx+0x1ae],dx
00003126  268987AC01        mov [es:bx+0x1ac],ax
0000312B  268997AA01        mov [es:bx+0x1aa],dx
00003130  E9CD03            jmp 0x3500
00003133  83FE03            cmp si,byte +0x3
00003136  751D              jnz 0x3155
00003138  FF76F0            push word [bp-0x10]
0000313B  FF76EE            push word [bp-0x12]
0000313E  FF7608            push word [bp+0x8]
00003141  FF7616            push word [bp+0x16]
00003144  FF76F8            push word [bp-0x8]
00003147  FF76FC            push word [bp-0x4]
0000314A  8B5EFC            mov bx,[bp-0x4]
0000314D  8B1F              mov bx,[bx]
0000314F  FF5704            call near [bx+0x4]
00003152  E9CC01            jmp 0x3321
00003155  FF76FC            push word [bp-0x4]
00003158  FF76F0            push word [bp-0x10]
0000315B  FF76EE            push word [bp-0x12]
0000315E  E806FD            call 0x2e67
00003161  E9E900            jmp 0x324d
00003164  E95B02            jmp 0x33c2
00003167  8B4608            mov ax,[bp+0x8]
0000316A  8B5616            mov dx,[bp+0x16]
0000316D  8946EC            mov [bp-0x14],ax
00003170  8956EA            mov [bp-0x16],dx
00003173  8B5EFA            mov bx,[bp-0x6]
00003176  C6470C01          mov byte [bx+0xc],0x1
0000317A  837E1427          cmp word [bp+0x14],byte +0x27
0000317E  7256              jc 0x31d6
00003180  B80500            mov ax,0x5
00003183  50                push ax
00003184  1E                push ds
00003185  B80058            mov ax,0x5800
00003188  50                push ax
00003189  FF76EC            push word [bp-0x14]
0000318C  52                push dx
0000318D  E8B242            call 0x7442
00003190  83C40A            add sp,byte +0xa
00003193  8B46FC            mov ax,[bp-0x4]
00003196  C45EEA            les bx,[bp-0x16]
00003199  268C5F07          mov [es:bx+0x7],ds
0000319D  26894705          mov [es:bx+0x5],ax
000031A1  8B46FA            mov ax,[bp-0x6]
000031A4  268C5F0B          mov [es:bx+0xb],ds
000031A8  26894709          mov [es:bx+0x9],ax
000031AC  268C5F15          mov [es:bx+0x15],ds
000031B0  26C747130A59      mov word [es:bx+0x13],0x590a
000031B6  8A4612            mov al,[bp+0x12]
000031B9  2688470E          mov [es:bx+0xe],al
000031BD  26C747113203      mov word [es:bx+0x11],0x332
000031C3  26C7470F5353      mov word [es:bx+0xf],0x5353
000031C9  268C5F19          mov [es:bx+0x19],ds
000031CD  26C747170558      mov word [es:bx+0x17],0x5805
000031D3  E92A03            jmp 0x3500
000031D6  C746FE0600        mov word [bp-0x2],0x6
000031DB  E92203            jmp 0x3500
000031DE  8D46C8            lea ax,[bp-0x38]
000031E1  16                push ss
000031E2  50                push ax
000031E3  FF7608            push word [bp+0x8]
000031E6  FF7616            push word [bp+0x16]
000031E9  B91200            mov cx,0x12
000031EC  E88949            call 0x7b78
000031EF  B80800            mov ax,0x8
000031F2  50                push ax
000031F3  1E                push ds
000031F4  B82E58            mov ax,0x582e
000031F7  50                push ax
000031F8  16                push ss
000031F9  8D46C8            lea ax,[bp-0x38]
000031FC  50                push ax
000031FD  E85D42            call 0x745d
00003200  83C40A            add sp,byte +0xa
00003203  0BC0              or ax,ax
00003205  751D              jnz 0x3224
00003207  8B5EFC            mov bx,[bp-0x4]
0000320A  8B46D4            mov ax,[bp-0x2c]
0000320D  8B56D2            mov dx,[bp-0x2e]
00003210  035708            add dx,[bx+0x8]
00003213  13470A            adc ax,[bx+0xa]
00003216  50                push ax
00003217  52                push dx
00003218  FF76D0            push word [bp-0x30]
0000321B  53                push bx
0000321C  8B1F              mov bx,[bx]
0000321E  FF5706            call near [bx+0x6]
00003221  E9FD00            jmp 0x3321
00003224  B80700            mov ax,0x7
00003227  50                push ax
00003228  1E                push ds
00003229  B83658            mov ax,0x5836
0000322C  50                push ax
0000322D  16                push ss
0000322E  8D46C8            lea ax,[bp-0x38]
00003231  50                push ax
00003232  E82842            call 0x745d
00003235  83C40A            add sp,byte +0xa
00003238  0BC0              or ax,ax
0000323A  7514              jnz 0x3250
0000323C  FF76D4            push word [bp-0x2c]
0000323F  FF76D2            push word [bp-0x2e]
00003242  FF76FC            push word [bp-0x4]
00003245  8B5EFC            mov bx,[bp-0x4]
00003248  8B1F              mov bx,[bx]
0000324A  FF5708            call near [bx+0x8]
0000324D  E9D100            jmp 0x3321
00003250  B80800            mov ax,0x8
00003253  50                push ax
00003254  1E                push ds
00003255  B83D58            mov ax,0x583d
00003258  50                push ax
00003259  16                push ss
0000325A  8D46C8            lea ax,[bp-0x38]
0000325D  50                push ax
0000325E  E8FC41            call 0x745d
00003261  83C40A            add sp,byte +0xa
00003264  0BC0              or ax,ax
00003266  7403              jz 0x326b
00003268  E9C200            jmp 0x332d
0000326B  8B46D4            mov ax,[bp-0x2c]
0000326E  8B56D2            mov dx,[bp-0x2e]
00003271  81F2434D          xor dx,0x4d43
00003275  359C26            xor ax,0x269c
00003278  8946E8            mov [bp-0x18],ax
0000327B  8956E6            mov [bp-0x1a],dx
0000327E  8B46D8            mov ax,[bp-0x28]
00003281  8B56D6            mov dx,[bp-0x2a]
00003284  81F2D9FB          xor dx,0xfbd9
00003288  35D80D            xor ax,0xdd8
0000328B  8946E4            mov [bp-0x1c],ax
0000328E  8956E2            mov [bp-0x1e],dx
00003291  8B4508            mov ax,[di+0x8]
00003294  0B450A            or ax,[di+0xa]
00003297  7508              jnz 0x32a1
00003299  8B450C            mov ax,[di+0xc]
0000329C  0B450E            or ax,[di+0xe]
0000329F  742C              jz 0x32cd
000032A1  8B450A            mov ax,[di+0xa]
000032A4  8B5508            mov dx,[di+0x8]
000032A7  3B46E8            cmp ax,[bp-0x18]
000032AA  7403              jz 0x32af
000032AC  E91301            jmp 0x33c2
000032AF  3B56E6            cmp dx,[bp-0x1a]
000032B2  7403              jz 0x32b7
000032B4  E90B01            jmp 0x33c2
000032B7  8B450E            mov ax,[di+0xe]
000032BA  8B550C            mov dx,[di+0xc]
000032BD  3B46E4            cmp ax,[bp-0x1c]
000032C0  7403              jz 0x32c5
000032C2  E9FD00            jmp 0x33c2
000032C5  3B56E2            cmp dx,[bp-0x1e]
000032C8  7403              jz 0x32cd
000032CA  E9F500            jmp 0x33c2
000032CD  8B5ED0            mov bx,[bp-0x30]
000032D0  83FB04            cmp bx,byte +0x4
000032D3  7603              jna 0x32d8
000032D5  E92302            jmp 0x34fb
000032D8  D1E3              shl bx,1
000032DA  2EFFA7700D        jmp near [cs:bx+0xd70]
000032DF  8B5EFA            mov bx,[bp-0x6]
000032E2  83670EEF          and word [bx+0xe],byte -0x11
000032E6  E91702            jmp 0x3500
000032E9  8B5EFA            mov bx,[bp-0x6]
000032EC  834F0E10          or word [bx+0xe],byte +0x10
000032F0  E90D02            jmp 0x3500
000032F3  33C0              xor ax,ax
000032F5  33D2              xor dx,dx
000032F7  89450E            mov [di+0xe],ax
000032FA  89550C            mov [di+0xc],dx
000032FD  89450A            mov [di+0xa],ax
00003300  895508            mov [di+0x8],dx
00003303  EB18              jmp short 0x331d
00003305  8B46E8            mov ax,[bp-0x18]
00003308  8B56E6            mov dx,[bp-0x1a]
0000330B  89450A            mov [di+0xa],ax
0000330E  895508            mov [di+0x8],dx
00003311  8B46E4            mov ax,[bp-0x1c]
00003314  8B56E2            mov dx,[bp-0x1e]
00003317  89450E            mov [di+0xe],ax
0000331A  89550C            mov [di+0xc],dx
0000331D  57                push di
0000331E  E8FFF8            call 0x2c20
00003321  8946FE            mov [bp-0x2],ax
00003324  E9D901            jmp 0x3500
00003327  E9D101            jmp 0x34fb
0000332A  E99500            jmp 0x33c2
0000332D  B80300            mov ax,0x3
00003330  50                push ax
00003331  1E                push ds
00003332  B84558            mov ax,0x5845
00003335  50                push ax
00003336  16                push ss
00003337  8D46C8            lea ax,[bp-0x38]
0000333A  50                push ax
0000333B  E81F41            call 0x745d
0000333E  83C40A            add sp,byte +0xa
00003341  0BC0              or ax,ax
00003343  7403              jz 0x3348
00003345  E9B301            jmp 0x34fb
00003348  8B46D4            mov ax,[bp-0x2c]
0000334B  8B56D2            mov dx,[bp-0x2e]
0000334E  81F2434D          xor dx,0x4d43
00003352  359C26            xor ax,0x269c
00003355  8946E4            mov [bp-0x1c],ax
00003358  8956E2            mov [bp-0x1e],dx
0000335B  8B46D8            mov ax,[bp-0x28]
0000335E  8B56D6            mov dx,[bp-0x2a]
00003361  81F2D9FB          xor dx,0xfbd9
00003365  35D80D            xor ax,0xdd8
00003368  8946E8            mov [bp-0x18],ax
0000336B  8956E6            mov [bp-0x1a],dx
0000336E  8B46D0            mov ax,[bp-0x30]
00003371  0BC0              or ax,ax
00003373  7408              jz 0x337d
00003375  3D0100            cmp ax,0x1
00003378  7450              jz 0x33ca
0000337A  E97E01            jmp 0x34fb
0000337D  33C0              xor ax,ax
0000337F  BA0804            mov dx,0x408
00003382  50                push ax
00003383  52                push dx
00003384  16                push ss
00003385  8D46DA            lea ax,[bp-0x26]
00003388  50                push ax
00003389  B80800            mov ax,0x8
0000338C  50                push ax
0000338D  B80400            mov ax,0x4
00003390  50                push ax
00003391  8B5EFC            mov bx,[bp-0x4]
00003394  FF7704            push word [bx+0x4]
00003397  8B5F04            mov bx,[bx+0x4]
0000339A  8B1F              mov bx,[bx]
0000339C  FF5702            call near [bx+0x2]
0000339F  8B46DC            mov ax,[bp-0x24]
000033A2  8B56DA            mov dx,[bp-0x26]
000033A5  3B46E4            cmp ax,[bp-0x1c]
000033A8  7518              jnz 0x33c2
000033AA  3B56E2            cmp dx,[bp-0x1e]
000033AD  7513              jnz 0x33c2
000033AF  8B46E0            mov ax,[bp-0x20]
000033B2  8B56DE            mov dx,[bp-0x22]
000033B5  3B46E8            cmp ax,[bp-0x18]
000033B8  7508              jnz 0x33c2
000033BA  3B56E6            cmp dx,[bp-0x1a]
000033BD  7503              jnz 0x33c2
000033BF  E93E01            jmp 0x3500
000033C2  C746FE0100        mov word [bp-0x2],0x1
000033C7  E93601            jmp 0x3500
000033CA  33C0              xor ax,ax
000033CC  BA0804            mov dx,0x408
000033CF  50                push ax
000033D0  52                push dx
000033D1  16                push ss
000033D2  8D46DA            lea ax,[bp-0x26]
000033D5  50                push ax
000033D6  B80800            mov ax,0x8
000033D9  50                push ax
000033DA  B80400            mov ax,0x4
000033DD  50                push ax
000033DE  8B5EFC            mov bx,[bp-0x4]
000033E1  FF7704            push word [bx+0x4]
000033E4  8B5F04            mov bx,[bx+0x4]
000033E7  8B1F              mov bx,[bx]
000033E9  FF5702            call near [bx+0x2]
000033EC  837EDCFF          cmp word [bp-0x24],byte -0x1
000033F0  7537              jnz 0x3429
000033F2  837EDAFF          cmp word [bp-0x26],byte -0x1
000033F6  7531              jnz 0x3429
000033F8  837EDCFF          cmp word [bp-0x24],byte -0x1
000033FC  752B              jnz 0x3429
000033FE  837EDAFF          cmp word [bp-0x26],byte -0x1
00003402  7525              jnz 0x3429
00003404  33C0              xor ax,ax
00003406  BA0804            mov dx,0x408
00003409  50                push ax
0000340A  52                push dx
0000340B  16                push ss
0000340C  8D46E2            lea ax,[bp-0x1e]
0000340F  50                push ax
00003410  B80800            mov ax,0x8
00003413  50                push ax
00003414  B80400            mov ax,0x4
00003417  50                push ax
00003418  8B5EFC            mov bx,[bp-0x4]
0000341B  FF7704            push word [bx+0x4]
0000341E  8B5F04            mov bx,[bx+0x4]
00003421  8B1F              mov bx,[bx]
00003423  FF5704            call near [bx+0x4]
00003426  E9D700            jmp 0x3500
00003429  C746FE0B00        mov word [bp-0x2],0xb
0000342E  E9CF00            jmp 0x3500
00003431  E9C700            jmp 0x34fb
00003434  E9C400            jmp 0x34fb
00003437  8B4504            mov ax,[di+0x4]
0000343A  48                dec ax
0000343B  25FF00            and ax,0xff
0000343E  B108              mov cl,0x8
00003440  D3E0              shl ax,cl
00003442  8B5506            mov dx,[di+0x6]
00003445  03D0              add dx,ax
00003447  8B4504            mov ax,[di+0x4]
0000344A  48                dec ax
0000344B  250003            and ax,0x300
0000344E  B102              mov cl,0x2
00003450  D3E8              shr ax,cl
00003452  03D0              add dx,ax
00003454  895614            mov [bp+0x14],dx
00003457  8B4502            mov ax,[di+0x2]
0000345A  48                dec ax
0000345B  B108              mov cl,0x8
0000345D  D3E0              shl ax,cl
0000345F  894612            mov [bp+0x12],ax
00003462  F606385710        test byte [0x5738],0x10
00003467  7420              jz 0x3489
00003469  C41E4757          les bx,[0x5747]
0000346D  268B07            mov ax,[es:bx]
00003470  B106              mov cl,0x6
00003472  D3E8              shr ax,cl
00003474  250300            and ax,0x3
00003477  40                inc ax
00003478  094612            or [bp+0x12],ax
0000347B  81661600FF        and word [bp+0x16],0xff00
00003480  8A4510            mov al,[di+0x10]
00003483  98                cbw
00003484  094616            or [bp+0x16],ax
00003487  EB77              jmp short 0x3500
00003489  C41E4357          les bx,[0x5743]
0000348D  268A07            mov al,[es:bx]
00003490  B400              mov ah,0x0
00003492  094612            or [bp+0x12],ax
00003495  EB69              jmp short 0x3500
00003497  F606385710        test byte [0x5738],0x10
0000349C  7417              jz 0x34b5
0000349E  8B5EFA            mov bx,[bp-0x6]
000034A1  F7470E4000        test word [bx+0xe],0x40
000034A6  7405              jz 0x34ad
000034A8  B80002            mov ax,0x200
000034AB  EB03              jmp short 0x34b0
000034AD  B80001            mov ax,0x100
000034B0  894618            mov [bp+0x18],ax
000034B3  EB4B              jmp short 0x3500
000034B5  8B5D04            mov bx,[di+0x4]
000034B8  33C9              xor cx,cx
000034BA  8B4502            mov ax,[di+0x2]
000034BD  33D2              xor dx,dx
000034BF  E89F46            call 0x7b61
000034C2  50                push ax
000034C3  8B4506            mov ax,[di+0x6]
000034C6  52                push dx
000034C7  33D2              xor dx,dx
000034C9  59                pop cx
000034CA  5B                pop bx
000034CB  E89346            call 0x7b61
000034CE  8956E8            mov [bp-0x18],dx
000034D1  8946E6            mov [bp-0x1a],ax
000034D4  C746180003        mov word [bp+0x18],0x300
000034D9  8B46E8            mov ax,[bp-0x18]
000034DC  894614            mov [bp+0x14],ax
000034DF  8B46E6            mov ax,[bp-0x1a]
000034E2  894612            mov [bp+0x12],ax
000034E5  EB19              jmp short 0x3500
000034E7  833E4D5700        cmp word [0x574d],byte +0x0
000034EC  7412              jz 0x3500
000034EE  C7064D570000      mov word [0x574d],0x0
000034F4  C746FE1000        mov word [bp-0x2],0x10
000034F9  EB05              jmp short 0x3500
000034FB  C746FE0400        mov word [bp-0x2],0x4
00003500  837EFE00          cmp word [bp-0x2],byte +0x0
00003504  740E              jz 0x3514
00003506  FF76FE            push word [bp-0x2]
00003509  8D4618            lea ax,[bp+0x18]
0000350C  50                push ax
0000350D  8D4606            lea ax,[bp+0x6]
00003510  50                push ax
00003511  E87BF9            call 0x2e8f
00003514  33C0              xor ax,ax
00003516  50                push ax
00003517  FF76FC            push word [bp-0x4]
0000351A  E8B400            call 0x35d1
0000351D  833E285900        cmp word [0x5928],byte +0x0
00003522  7417              jz 0x353b
00003524  A03857            mov al,[0x5738]
00003527  B400              mov ah,0x0
00003529  A90200            test ax,0x2
0000352C  750D              jnz 0x353b
0000352E  33C0              xor ax,ax
00003530  33D2              xor dx,dx
00003532  50                push ax
00003533  52                push dx
00003534  FF362859          push word [0x5928]
00003538  E86641            call 0x76a1
0000353B  33C0              xor ax,ax
0000353D  50                push ax
0000353E  FF76FA            push word [bp-0x6]
00003541  E88F40            call 0x75d3
00003544  8B4618            mov ax,[bp+0x18]
00003547  A34B57            mov [0x574b],ax
0000354A  334616            xor ax,[bp+0x16]
0000354D  334614            xor ax,[bp+0x14]
00003550  334612            xor ax,[bp+0x12]
00003553  33460A            xor ax,[bp+0xa]
00003556  334608            xor ax,[bp+0x8]
00003559  33460C            xor ax,[bp+0xc]
0000355C  33460E            xor ax,[bp+0xe]
0000355F  334610            xor ax,[bp+0x10]
00003562  334606            xor ax,[bp+0x6]
00003565  A3F558            mov [0x58f5],ax
00003568  33C0              xor ax,ax
0000356A  5F                pop di
0000356B  5E                pop si
0000356C  8BE5              mov sp,bp
0000356E  5D                pop bp
0000356F  CB                retf
00003570  DF                db 0xDF
00003571  0AE9              or ch,cl
00003573  0AF3              or dh,bl
00003575  0A05              or al,[di]
00003577  0B00              or ax,[bx+si]
00003579  0D000D            or ax,0xd00
0000357C  3F                aas
0000357D  084808            or [bx+si+0x8],cl
00003580  48                dec ax
00003581  0800              or [bx+si],al
00003583  0D6409            or ax,0x964
00003586  FB                sti
00003587  0CFB              or al,0xfb
00003589  0C37              or al,0x37
0000358B  0CFB              or al,0xfb
0000358D  0CFB              or al,0xfb
0000358F  0CFB              or al,0xfb
00003591  0C48              or al,0x48
00003593  0800              or [bx+si],al
00003595  0DFB0C            or ax,0xcfb
00003598  FB                sti
00003599  0C00              or al,0x0
0000359B  0DFB0C            or ax,0xcfb
0000359E  FB                sti
0000359F  0CFB              or al,0xfb
000035A1  0CFB              or al,0xfb
000035A3  0C97              or al,0x97
000035A5  0CE7              or al,0xe7
000035A7  0CFB              or al,0xfb
000035A9  0CFB              or al,0xfb
000035AB  0CFB              or al,0xfb
000035AD  0CFB              or al,0xfb
000035AF  0C67              or al,0x67
000035B1  09FB              or bx,di
000035B3  0CFB              or al,0xfb
000035B5  0CFB              or al,0xfb
000035B7  0CDE              or al,0xde
000035B9  09558B            or [di-0x75],dx
000035BC  EC                in al,dx
000035BD  8B4604            mov ax,[bp+0x4]
000035C0  8BD8              mov bx,ax
000035C2  8B5714            mov dx,[bx+0x14]
000035C5  8B4712            mov ax,[bx+0x12]
000035C8  B109              mov cl,0x9
000035CA  E8E144            call 0x7aae
000035CD  5D                pop bp
000035CE  C20200            ret 0x2
000035D1  55                push bp
000035D2  8BEC              mov bp,sp
000035D4  56                push si
000035D5  8B7604            mov si,[bp+0x4]
000035D8  837C0400          cmp word [si+0x4],byte +0x0
000035DC  740E              jz 0x35ec
000035DE  FF7606            push word [bp+0x6]
000035E1  FF7404            push word [si+0x4]
000035E4  8B5C04            mov bx,[si+0x4]
000035E7  8B1F              mov bx,[bx]
000035E9  FF5708            call near [bx+0x8]
000035EC  5E                pop si
000035ED  5D                pop bp
000035EE  C20400            ret 0x4
000035F1  55                push bp
000035F2  8BEC              mov bp,sp
000035F4  83EC04            sub sp,byte +0x4
000035F7  56                push si
000035F8  57                push di
000035F9  33FF              xor di,di
000035FB  C746FE0A00        mov word [bp-0x2],0xa
00003600  C746FC0000        mov word [bp-0x4],0x0
00003605  8B46FC            mov ax,[bp-0x4]
00003608  3B060A59          cmp ax,[0x590a]
0000360C  7D53              jnl 0x3661
0000360E  8B46FC            mov ax,[bp-0x4]
00003611  D1E0              shl ax,1
00003613  8B1E0C59          mov bx,[0x590c]
00003617  03D8              add bx,ax
00003619  8B37              mov si,[bx]
0000361B  3B7604            cmp si,[bp+0x4]
0000361E  7435              jz 0x3655
00003620  837C3400          cmp word [si+0x34],byte +0x0
00003624  742F              jz 0x3655
00003626  8B5C34            mov bx,[si+0x34]
00003629  837F0600          cmp word [bx+0x6],byte +0x0
0000362D  7526              jnz 0x3655
0000362F  56                push si
00003630  E81B40            call 0x764e
00003633  3D0300            cmp ax,0x3
00003636  751D              jnz 0x3655
00003638  837C3400          cmp word [si+0x34],byte +0x0
0000363C  7410              jz 0x364e
0000363E  B80300            mov ax,0x3
00003641  50                push ax
00003642  FF7434            push word [si+0x34]
00003645  8B5C34            mov bx,[si+0x34]
00003648  8B1F              mov bx,[bx]
0000364A  FF17              call near [bx]
0000364C  EB00              jmp short 0x364e
0000364E  56                push si
0000364F  33C0              xor ax,ax
00003651  50                push ax
00003652  E8042F            call 0x6559
00003655  FF46FC            inc word [bp-0x4]
00003658  8B46FC            mov ax,[bp-0x4]
0000365B  3B060A59          cmp ax,[0x590a]
0000365F  7CAD              jl 0x360e
00003661  FF7604            push word [bp+0x4]
00003664  E82F2E            call 0x6496
00003667  8BF0              mov si,ax
00003669  837C0400          cmp word [si+0x4],byte +0x0
0000366D  750F              jnz 0x367e
0000366F  F6441610          test byte [si+0x16],0x10
00003673  7409              jz 0x367e
00003675  50                push ax
00003676  33C0              xor ax,ax
00003678  50                push ax
00003679  E80533            call 0x6981
0000367C  8BF8              mov di,ax
0000367E  0BFF              or di,di
00003680  7406              jz 0x3688
00003682  8B4506            mov ax,[di+0x6]
00003685  8946FE            mov [bp-0x2],ax
00003688  837EFE00          cmp word [bp-0x2],byte +0x0
0000368C  7420              jz 0x36ae
0000368E  0BFF              or di,di
00003690  740B              jz 0x369d
00003692  B80300            mov ax,0x3
00003695  50                push ax
00003696  57                push di
00003697  8B1D              mov bx,[di]
00003699  FF17              call near [bx]
0000369B  EB00              jmp short 0x369d
0000369D  FF7604            push word [bp+0x4]
000036A0  33C0              xor ax,ax
000036A2  50                push ax
000036A3  E8B32E            call 0x6559
000036A6  8BF8              mov di,ax
000036A8  8B46FE            mov ax,[bp-0x2]
000036AB  894506            mov [di+0x6],ax
000036AE  8BC7              mov ax,di
000036B0  5F                pop di
000036B1  5E                pop si
000036B2  8BE5              mov sp,bp
000036B4  5D                pop bp
000036B5  C20200            ret 0x2
000036B8  55                push bp
000036B9  8BEC              mov bp,sp
000036BB  FF7604            push word [bp+0x4]
000036BE  33C0              xor ax,ax
000036C0  50                push ax
000036C1  E80400            call 0x36c8
000036C4  5D                pop bp
000036C5  C20200            ret 0x2
000036C8  55                push bp
000036C9  8BEC              mov bp,sp
000036CB  83EC10            sub sp,byte +0x10
000036CE  56                push si
000036CF  57                push di
000036D0  8B7E04            mov di,[bp+0x4]
000036D3  0BFF              or di,di
000036D5  7511              jnz 0x36e8
000036D7  B84300            mov ax,0x43
000036DA  50                push ax
000036DB  E84B44            call 0x7b29
000036DE  59                pop cx
000036DF  8BF8              mov di,ax
000036E1  0BC0              or ax,ax
000036E3  7503              jnz 0x36e8
000036E5  E94302            jmp 0x392b
000036E8  FF7606            push word [bp+0x6]
000036EB  57                push di
000036EC  E8D229            call 0x60c1
000036EF  C7055458          mov word [di],0x5854
000036F3  C745040300        mov word [di+0x4],0x3
000036F8  C645165F          mov byte [di+0x16],0x5f
000036FC  C745120100        mov word [di+0x12],0x1
00003701  C745230001        mov word [di+0x23],0x100
00003706  C745250001        mov word [di+0x25],0x100
0000370B  C7450A0000        mov word [di+0xa],0x0
00003710  C745080010        mov word [di+0x8],0x1000
00003715  C745290001        mov word [di+0x29],0x100
0000371A  C7450E2000        mov word [di+0xe],0x20
0000371F  C7450C0000        mov word [di+0xc],0x0
00003724  C7452D0002        mov word [di+0x2d],0x200
00003729  C745100000        mov word [di+0x10],0x0
0000372E  C7452B0800        mov word [di+0x2b],0x8
00003733  C74527FF00        mov word [di+0x27],0xff
00003738  C6453304          mov byte [di+0x33],0x4
0000373C  C6453404          mov byte [di+0x34],0x4
00003740  C745390000        mov word [di+0x39],0x0
00003745  B085              mov al,0x85
00003747  50                push ax
00003748  57                push di
00003749  E81E0D            call 0x446a
0000374C  C745370000        mov word [di+0x37],0x0
00003751  C745350100        mov word [di+0x35],0x1
00003756  C746FA0000        mov word [bp-0x6],0x0
0000375B  C746F80000        mov word [bp-0x8],0x0
00003760  8D46F8            lea ax,[bp-0x8]
00003763  50                push ax
00003764  57                push di
00003765  E8590C            call 0x43c1
00003768  C41E4A58          les bx,[0x584a]
0000376C  2680BF001030      cmp byte [es:bx+0x1000],0x30
00003772  740B              jz 0x377f
00003774  2680BF001020      cmp byte [es:bx+0x1000],0x20
0000377A  7403              jz 0x377f
0000377C  E9AC01            jmp 0x392b
0000377F  C41E4A58          les bx,[0x584a]
00003783  2680BF001030      cmp byte [es:bx+0x1000],0x30
00003789  7516              jnz 0x37a1
0000378B  834D3908          or word [di+0x39],byte +0x8
0000378F  268A870610        mov al,[es:bx+0x1006]
00003794  8846F1            mov [bp-0xf],al
00003797  8A46F1            mov al,[bp-0xf]
0000379A  2632870610        xor al,[es:bx+0x1006]
0000379F  EB14              jmp short 0x37b5
000037A1  C41E4A58          les bx,[0x584a]
000037A5  268A870710        mov al,[es:bx+0x1007]
000037AA  8846F1            mov [bp-0xf],al
000037AD  8A46F1            mov al,[bp-0xf]
000037B0  2632870710        xor al,[es:bx+0x1007]
000037B5  8846F0            mov [bp-0x10],al
000037B8  F646F004          test byte [bp-0x10],0x4
000037BC  7503              jnz 0x37c1
000037BE  E96A01            jmp 0x392b
000037C1  C745040800        mov word [di+0x4],0x8
000037C6  F745390800        test word [di+0x39],0x8
000037CB  7407              jz 0x37d4
000037CD  C746F20200        mov word [bp-0xe],0x2
000037D2  EB05              jmp short 0x37d9
000037D4  C746F21000        mov word [bp-0xe],0x10
000037D9  C6453400          mov byte [di+0x34],0x0
000037DD  EB37              jmp short 0x3816
000037DF  C45D3B            les bx,[di+0x3b]
000037E2  8A4534            mov al,[di+0x34]
000037E5  2688870310        mov [es:bx+0x1003],al
000037EA  C746F40000        mov word [bp-0xc],0x0
000037EF  8B46F4            mov ax,[bp-0xc]
000037F2  3B46F2            cmp ax,[bp-0xe]
000037F5  7D1C              jnl 0x3813
000037F7  8A46F4            mov al,[bp-0xc]
000037FA  50                push ax
000037FB  57                push di
000037FC  8B1D              mov bx,[di]
000037FE  FF571C            call near [bx+0x1c]
00003801  B0FF              mov al,0xff
00003803  50                push ax
00003804  57                push di
00003805  E8790F            call 0x4781
00003808  FF46F4            inc word [bp-0xc]
0000380B  8B46F4            mov ax,[bp-0xc]
0000380E  3B46F2            cmp ax,[bp-0xe]
00003811  7CE4              jl 0x37f7
00003813  FE4534            inc byte [di+0x34]
00003816  807D3404          cmp byte [di+0x34],0x4
0000381A  72C3              jc 0x37df
0000381C  C45D3B            les bx,[di+0x3b]
0000381F  B000              mov al,0x0
00003821  884534            mov [di+0x34],al
00003824  2688870310        mov [es:bx+0x1003],al
00003829  B018              mov al,0x18
0000382B  50                push ax
0000382C  57                push di
0000382D  8B1D              mov bx,[di]
0000382F  FF571E            call near [bx+0x1e]
00003832  C646F700          mov byte [bp-0x9],0x0
00003836  C646F600          mov byte [bp-0xa],0x0
0000383A  C746F40000        mov word [bp-0xc],0x0
0000383F  8B46F4            mov ax,[bp-0xc]
00003842  3B46F2            cmp ax,[bp-0xe]
00003845  7C03              jl 0x384a
00003847  E97F00            jmp 0x38c9
0000384A  8B46FA            mov ax,[bp-0x6]
0000384D  8B56F8            mov dx,[bp-0x8]
00003850  8946FE            mov [bp-0x2],ax
00003853  8956FC            mov [bp-0x4],dx
00003856  8D46FC            lea ax,[bp-0x4]
00003859  50                push ax
0000385A  57                push di
0000385B  E8630B            call 0x43c1
0000385E  FF76F4            push word [bp-0xc]
00003861  57                push di
00003862  E8D000            call 0x3935
00003865  3D0100            cmp ax,0x1
00003868  7528              jnz 0x3892
0000386A  8A46F6            mov al,[bp-0xa]
0000386D  FEC0              inc al
0000386F  8846F7            mov [bp-0x9],al
00003872  807EF600          cmp byte [bp-0xa],0x0
00003876  750C              jnz 0x3884
00003878  8B450E            mov ax,[di+0xe]
0000387B  8B550C            mov dx,[di+0xc]
0000387E  015535            add [di+0x35],dx
00003881  114537            adc [di+0x37],ax
00003884  8B450E            mov ax,[di+0xe]
00003887  8B550C            mov dx,[di+0xc]
0000388A  0156F8            add [bp-0x8],dx
0000388D  1146FA            adc [bp-0x6],ax
00003890  EB2C              jmp short 0x38be
00003892  807EF600          cmp byte [bp-0xa],0x0
00003896  751C              jnz 0x38b4
00003898  8B46F4            mov ax,[bp-0xc]
0000389B  8946F2            mov [bp-0xe],ax
0000389E  99                cwd
0000389F  50                push ax
000038A0  52                push dx
000038A1  8B550E            mov dx,[di+0xe]
000038A4  8B450C            mov ax,[di+0xc]
000038A7  59                pop cx
000038A8  5B                pop bx
000038A9  E8B542            call 0x7b61
000038AC  895537            mov [di+0x37],dx
000038AF  894535            mov [di+0x35],ax
000038B2  EB0A              jmp short 0x38be
000038B4  8B46F2            mov ax,[bp-0xe]
000038B7  8946F4            mov [bp-0xc],ax
000038BA  C646F604          mov byte [bp-0xa],0x4
000038BE  FF46F4            inc word [bp-0xc]
000038C1  8B46F4            mov ax,[bp-0xc]
000038C4  3B46F2            cmp ax,[bp-0xe]
000038C7  7C81              jl 0x384a
000038C9  FE46F6            inc byte [bp-0xa]
000038CC  807EF604          cmp byte [bp-0xa],0x4
000038D0  7303              jnc 0x38d5
000038D2  E965FF            jmp 0x383a
000038D5  C45D3B            les bx,[di+0x3b]
000038D8  B000              mov al,0x0
000038DA  884534            mov [di+0x34],al
000038DD  2688870310        mov [es:bx+0x1003],al
000038E2  B018              mov al,0x18
000038E4  50                push ax
000038E5  57                push di
000038E6  8B1D              mov bx,[di]
000038E8  FF571E            call near [bx+0x1e]
000038EB  57                push di
000038EC  8B1D              mov bx,[di]
000038EE  FF5720            call near [bx+0x20]
000038F1  837D1000          cmp word [di+0x10],byte +0x0
000038F5  7417              jz 0x390e
000038F7  C745040000        mov word [di+0x4],0x0
000038FC  C746FA0000        mov word [bp-0x6],0x0
00003901  C746F80000        mov word [bp-0x8],0x0
00003906  8D46F8            lea ax,[bp-0x8]
00003909  50                push ax
0000390A  57                push di
0000390B  E8B30A            call 0x43c1
0000390E  8B4510            mov ax,[di+0x10]
00003911  99                cwd
00003912  50                push ax
00003913  52                push dx
00003914  8B550E            mov dx,[di+0xe]
00003917  8B450C            mov ax,[di+0xc]
0000391A  59                pop cx
0000391B  5B                pop bx
0000391C  E84242            call 0x7b61
0000391F  895521            mov [di+0x21],dx
00003922  89451F            mov [di+0x1f],ax
00003925  8A46F7            mov al,[bp-0x9]
00003928  884533            mov [di+0x33],al
0000392B  8BC7              mov ax,di
0000392D  5F                pop di
0000392E  5E                pop si
0000392F  8BE5              mov sp,bp
00003931  5D                pop bp
00003932  C20400            ret 0x4
00003935  55                push bp
00003936  8BEC              mov bp,sp
00003938  83EC02            sub sp,byte +0x2
0000393B  56                push si
0000393C  57                push di
0000393D  8B7E06            mov di,[bp+0x6]
00003940  8B7604            mov si,[bp+0x4]
00003943  B090              mov al,0x90
00003945  50                push ax
00003946  56                push si
00003947  E8370E            call 0x4781
0000394A  B01D              mov al,0x1d
0000394C  50                push ax
0000394D  56                push si
0000394E  8B1C              mov bx,[si]
00003950  FF571E            call near [bx+0x1e]
00003953  F744390400        test word [si+0x39],0x4
00003958  7409              jz 0x3963
0000395A  C45C3B            les bx,[si+0x3b]
0000395D  26C6870D1000      mov byte [es:bx+0x100d],0x0
00003963  C45C3F            les bx,[si+0x3f]
00003966  26C60700          mov byte [es:bx],0x0
0000396A  F744390800        test word [si+0x39],0x8
0000396F  7409              jz 0x397a
00003971  C45C3B            les bx,[si+0x3b]
00003974  26C6871E1000      mov byte [es:bx+0x101e],0x0
0000397A  B019              mov al,0x19
0000397C  50                push ax
0000397D  56                push si
0000397E  8B1C              mov bx,[si]
00003980  FF571E            call near [bx+0x1e]
00003983  B80A00            mov ax,0xa
00003986  50                push ax
00003987  E8FB10            call 0x4a85
0000398A  C45C3B            les bx,[si+0x3b]
0000398D  268A870D10        mov al,[es:bx+0x100d]
00003992  00060059          add [0x5900],al
00003996  33D2              xor dx,dx
00003998  C45C3B            les bx,[si+0x3b]
0000399B  268A872010        mov al,[es:bx+0x1020]
000039A0  00060059          add [0x5900],al
000039A4  42                inc dx
000039A5  83FA02            cmp dx,byte +0x2
000039A8  7CEE              jl 0x3998
000039AA  C45C3F            les bx,[si+0x3f]
000039AD  268A07            mov al,[es:bx]
000039B0  8846FF            mov [bp-0x1],al
000039B3  B80A00            mov ax,0xa
000039B6  50                push ax
000039B7  E8CB10            call 0x4a85
000039BA  C45C3B            les bx,[si+0x3b]
000039BD  268A870D10        mov al,[es:bx+0x100d]
000039C2  00060059          add [0x5900],al
000039C6  33D2              xor dx,dx
000039C8  C45C3B            les bx,[si+0x3b]
000039CB  268A872010        mov al,[es:bx+0x1020]
000039D0  00060059          add [0x5900],al
000039D4  42                inc dx
000039D5  83FA02            cmp dx,byte +0x2
000039D8  7CEE              jl 0x39c8
000039DA  C45C3F            les bx,[si+0x3f]
000039DD  268A07            mov al,[es:bx]
000039E0  8846FE            mov [bp-0x2],al
000039E3  B018              mov al,0x18
000039E5  50                push ax
000039E6  56                push si
000039E7  8B1C              mov bx,[si]
000039E9  FF571E            call near [bx+0x1e]
000039EC  8A46FF            mov al,[bp-0x1]
000039EF  50                push ax
000039F0  8A46FE            mov al,[bp-0x2]
000039F3  50                push ax
000039F4  57                push di
000039F5  56                push si
000039F6  E86F00            call 0x3a68
000039F9  3D0100            cmp ax,0x1
000039FC  7404              jz 0x3a02
000039FE  33C0              xor ax,ax
00003A00  EB5E              jmp short 0x3a60
00003A02  FF4410            inc word [si+0x10]
00003A05  807C3400          cmp byte [si+0x34],0x0
00003A09  7552              jnz 0x3a5d
00003A0B  0BFF              or di,di
00003A0D  754E              jnz 0x3a5d
00003A0F  C744290001        mov word [si+0x29],0x100
00003A14  8B4423            mov ax,[si+0x23]
00003A17  894425            mov [si+0x25],ax
00003A1A  F744390100        test word [si+0x39],0x1
00003A1F  7407              jz 0x3a28
00003A21  C7442B1000        mov word [si+0x2b],0x10
00003A26  EB05              jmp short 0x3a2d
00003A28  C7442B0800        mov word [si+0x2b],0x8
00003A2D  8B4425            mov ax,[si+0x25]
00003A30  48                dec ax
00003A31  894427            mov [si+0x27],ax
00003A34  8B4431            mov ax,[si+0x31]
00003A37  F76C25            imul word [si+0x25]
00003A3A  C7440A0000        mov word [si+0xa],0x0
00003A3F  894408            mov [si+0x8],ax
00003A42  FF740A            push word [si+0xa]
00003A45  FF7408            push word [si+0x8]
00003A48  FF740E            push word [si+0xe]
00003A4B  FF740C            push word [si+0xc]
00003A4E  E8AF3F            call 0x7a00
00003A51  89442D            mov [si+0x2d],ax
00003A54  8B4425            mov ax,[si+0x25]
00003A57  03442B            add ax,[si+0x2b]
00003A5A  89442F            mov [si+0x2f],ax
00003A5D  B80100            mov ax,0x1
00003A60  5F                pop di
00003A61  5E                pop si
00003A62  8BE5              mov sp,bp
00003A64  5D                pop bp
00003A65  C20400            ret 0x4
00003A68  55                push bp
00003A69  8BEC              mov bp,sp
00003A6B  83EC06            sub sp,byte +0x6
00003A6E  56                push si
00003A6F  8B7604            mov si,[bp+0x4]
00003A72  807C3400          cmp byte [si+0x34],0x0
00003A76  7403              jz 0x3a7b
00003A78  E9BA01            jmp 0x3c35
00003A7B  837E0600          cmp word [bp+0x6],byte +0x0
00003A7F  7403              jz 0x3a84
00003A81  E9B101            jmp 0x3c35
00003A84  C744311000        mov word [si+0x31],0x10
00003A89  8A460A            mov al,[bp+0xa]
00003A8C  B400              mov ah,0x0
00003A8E  8946FE            mov [bp-0x2],ax
00003A91  B90400            mov cx,0x4
00003A94  BB9414            mov bx,0x1494
00003A97  2E8B07            mov ax,[cs:bx]
00003A9A  3B46FE            cmp ax,[bp-0x2]
00003A9D  7408              jz 0x3aa7
00003A9F  83C302            add bx,byte +0x2
00003AA2  E2F3              loop 0x3a97
00003AA4  E9A401            jmp 0x3c4b
00003AA7  2EFF6708          jmp near [cs:bx+0x8]
00003AAB  8A4608            mov al,[bp+0x8]
00003AAE  B400              mov ah,0x0
00003AB0  8946FC            mov [bp-0x4],ax
00003AB3  B90800            mov cx,0x8
00003AB6  BB7414            mov bx,0x1474
00003AB9  2E8B07            mov ax,[cs:bx]
00003ABC  3B46FC            cmp ax,[bp-0x4]
00003ABF  7408              jz 0x3ac9
00003AC1  83C302            add bx,byte +0x2
00003AC4  E2F3              loop 0x3ab9
00003AC6  E98201            jmp 0x3c4b
00003AC9  2EFF6710          jmp near [cs:bx+0x10]
00003ACD  C7440664EC        mov word [si+0x6],0xec64
00003AD2  C744230001        mov word [si+0x23],0x100
00003AD7  C7440E2000        mov word [si+0xe],0x20
00003ADC  C7440C0000        mov word [si+0xc],0x0
00003AE1  E93C01            jmp 0x3c20
00003AE4  C74406E5EC        mov word [si+0x6],0xece5
00003AE9  C744230002        mov word [si+0x23],0x200
00003AEE  C7440E4000        mov word [si+0xe],0x40
00003AF3  EB0F              jmp short 0x3b04
00003AF5  C74406E6EC        mov word [si+0x6],0xece6
00003AFA  C744230002        mov word [si+0x23],0x200
00003AFF  C7440E8000        mov word [si+0xe],0x80
00003B04  C7440C0000        mov word [si+0xc],0x0
00003B09  834C3901          or word [si+0x39],byte +0x1
00003B0D  E91001            jmp 0x3c20
00003B10  C7440673EC        mov word [si+0x6],0xec73
00003B15  C744230002        mov word [si+0x23],0x200
00003B1A  C7440E0001        mov word [si+0xe],0x100
00003B1F  C7440C0000        mov word [si+0xc],0x0
00003B24  834C3901          or word [si+0x39],byte +0x1
00003B28  EB29              jmp short 0x3b53
00003B2A  C7440675EC        mov word [si+0x6],0xec75
00003B2F  C744230002        mov word [si+0x23],0x200
00003B34  C7440E0002        mov word [si+0xe],0x200
00003B39  EBE4              jmp short 0x3b1f
00003B3B  C7440676EC        mov word [si+0x6],0xec76
00003B40  C744230002        mov word [si+0x23],0x200
00003B45  C7440E0004        mov word [si+0xe],0x400
00003B4A  C7440C0000        mov word [si+0xc],0x0
00003B4F  834C3911          or word [si+0x39],byte +0x11
00003B53  BA0200            mov dx,0x2
00003B56  8B4431            mov ax,[si+0x31]
00003B59  F7EA              imul dx
00003B5B  894431            mov [si+0x31],ax
00003B5E  E9BF00            jmp 0x3c20
00003B61  E9E700            jmp 0x3c4b
00003B64  8A4608            mov al,[bp+0x8]
00003B67  B400              mov ah,0x0
00003B69  8946FA            mov [bp-0x6],ax
00003B6C  B90800            mov cx,0x8
00003B6F  BB5414            mov bx,0x1454
00003B72  2E8B07            mov ax,[cs:bx]
00003B75  3B46FA            cmp ax,[bp-0x6]
00003B78  7408              jz 0x3b82
00003B7A  83C302            add bx,byte +0x2
00003B7D  E2F3              loop 0x3b72
00003B7F  E9C900            jmp 0x3c4b
00003B82  2EFF6710          jmp near [cs:bx+0x10]
00003B86  C744066498        mov word [si+0x6],0x9864
00003B8B  C744230001        mov word [si+0x23],0x100
00003B90  C7440E2000        mov word [si+0xe],0x20
00003B95  C7440C0000        mov word [si+0xc],0x0
00003B9A  EB7C              jmp short 0x3c18
00003B9C  C744066B98        mov word [si+0x6],0x986b
00003BA1  834C3901          or word [si+0x39],byte +0x1
00003BA5  C744230002        mov word [si+0x23],0x200
00003BAA  C7440E4000        mov word [si+0xe],0x40
00003BAF  EBE4              jmp short 0x3b95
00003BB1  C74406E698        mov word [si+0x6],0x98e6
00003BB6  834C3901          or word [si+0x39],byte +0x1
00003BBA  C744230002        mov word [si+0x23],0x200
00003BBF  C7440E8000        mov word [si+0xe],0x80
00003BC4  EBCF              jmp short 0x3b95
00003BC6  C744067398        mov word [si+0x6],0x9873
00003BCB  C744230002        mov word [si+0x23],0x200
00003BD0  C7440E0001        mov word [si+0xe],0x100
00003BD5  C7440C0000        mov word [si+0xc],0x0
00003BDA  834C3901          or word [si+0x39],byte +0x1
00003BDE  EB29              jmp short 0x3c09
00003BE0  C744067598        mov word [si+0x6],0x9875
00003BE5  C744230002        mov word [si+0x23],0x200
00003BEA  C7440E0002        mov word [si+0xe],0x200
00003BEF  EBE4              jmp short 0x3bd5
00003BF1  C744067698        mov word [si+0x6],0x9876
00003BF6  C744230002        mov word [si+0x23],0x200
00003BFB  C7440E0004        mov word [si+0xe],0x400
00003C00  C7440C0000        mov word [si+0xc],0x0
00003C05  834C3911          or word [si+0x39],byte +0x11
00003C09  BA0200            mov dx,0x2
00003C0C  8B4431            mov ax,[si+0x31]
00003C0F  F7EA              imul dx
00003C11  894431            mov [si+0x31],ax
00003C14  EB02              jmp short 0x3c18
00003C16  EB33              jmp short 0x3c4b
00003C18  834C3902          or word [si+0x39],byte +0x2
00003C1C  EB02              jmp short 0x3c20
00003C1E  EB2B              jmp short 0x3c4b
00003C20  8A460A            mov al,[bp+0xa]
00003C23  B400              mov ah,0x0
00003C25  89441B            mov [si+0x1b],ax
00003C28  8A4608            mov al,[bp+0x8]
00003C2B  B400              mov ah,0x0
00003C2D  89441D            mov [si+0x1d],ax
00003C30  B80100            mov ax,0x1
00003C33  EB18              jmp short 0x3c4d
00003C35  8A460A            mov al,[bp+0xa]
00003C38  B400              mov ah,0x0
00003C3A  3B441B            cmp ax,[si+0x1b]
00003C3D  750C              jnz 0x3c4b
00003C3F  8A4608            mov al,[bp+0x8]
00003C42  B400              mov ah,0x0
00003C44  3B441D            cmp ax,[si+0x1d]
00003C47  7502              jnz 0x3c4b
00003C49  EBE5              jmp short 0x3c30
00003C4B  33C0              xor ax,ax
00003C4D  5E                pop si
00003C4E  8BE5              mov sp,bp
00003C50  5D                pop bp
00003C51  C20800            ret 0x8
00003C54  64006B00          add [fs:bp+di+0x0],ch
00003C58  7300              jnc 0x3c5a
00003C5A  7500              jnz 0x3c5c
00003C5C  7600              jna 0x3c5e
00003C5E  E500              in ax,0x0
00003C60  E600              out 0x0,al
00003C62  EA0086139C        jmp 0x9c13:0x8600
00003C67  13C6              adc ax,si
00003C69  13E0              adc sp,ax
00003C6B  13F1              adc si,cx
00003C6D  139C13B1          adc bx,[si+0xb113]
00003C71  13861364          adc ax,[bp+0x6413]
00003C75  007300            add [bp+di+0x0],dh
00003C78  7500              jnz 0x3c7a
00003C7A  7600              jna 0x3c7c
00003C7C  E300              jcxz 0x3c7e
00003C7E  E500              in ax,0x0
00003C80  E600              out 0x0,al
00003C82  EA00CD1210        jmp 0x1012:0xcd00
00003C87  132A              adc bp,[bp+si]
00003C89  133B              adc di,[bp+di]
00003C8B  13E4              adc sp,sp
00003C8D  12E4              adc ah,ah
00003C8F  12F5              adc dh,ch
00003C91  12CD              adc cl,ch
00003C93  1201              adc al,[bx+di]
00003C95  0004              add [si],al
00003C97  009800EC          add [bx+si+0xec00],bl
00003C9B  006413            add [si+0x13],ah
00003C9E  64136413          adc sp,[fs:si+0x13]
00003CA2  AB                stosw
00003CA3  12558B            adc dl,[di-0x75]
00003CA6  EC                in al,dx
00003CA7  83EC02            sub sp,byte +0x2
00003CAA  56                push si
00003CAB  57                push di
00003CAC  8B7604            mov si,[bp+0x4]
00003CAF  F746060400        test word [bp+0x6],0x4
00003CB4  7405              jz 0x3cbb
00003CB6  B80800            mov ax,0x8
00003CB9  EB03              jmp short 0x3cbe
00003CBB  B80002            mov ax,0x200
00003CBE  8946FE            mov [bp-0x2],ax
00003CC1  48                dec ax
00003CC2  8B560E            mov dx,[bp+0xe]
00003CC5  23D0              and dx,ax
00003CC7  8B7EFE            mov di,[bp-0x2]
00003CCA  2BFA              sub di,dx
00003CCC  56                push si
00003CCD  E8C607            call 0x4496
00003CD0  EB46              jmp short 0x3d18
00003CD2  3B7E08            cmp di,[bp+0x8]
00003CD5  7E03              jng 0x3cda
00003CD7  8B7E08            mov di,[bp+0x8]
00003CDA  FF7610            push word [bp+0x10]
00003CDD  FF760E            push word [bp+0xe]
00003CE0  FF760C            push word [bp+0xc]
00003CE3  FF760A            push word [bp+0xa]
00003CE6  57                push di
00003CE7  81FF0002          cmp di,0x200
00003CEB  7409              jz 0x3cf6
00003CED  836606FD          and word [bp+0x6],byte -0x3
00003CF1  8B4606            mov ax,[bp+0x6]
00003CF4  EB03              jmp short 0x3cf9
00003CF6  8B4606            mov ax,[bp+0x6]
00003CF9  50                push ax
00003CFA  56                push si
00003CFB  8B1C              mov bx,[si]
00003CFD  FF5710            call near [bx+0x10]
00003D00  8BD0              mov dx,ax
00003D02  0BD2              or dx,dx
00003D04  751A              jnz 0x3d20
00003D06  297E08            sub [bp+0x8],di
00003D09  8BC7              mov ax,di
00003D0B  99                cwd
00003D0C  01460E            add [bp+0xe],ax
00003D0F  115610            adc [bp+0x10],dx
00003D12  017E0A            add [bp+0xa],di
00003D15  8B7EFE            mov di,[bp-0x2]
00003D18  837E0800          cmp word [bp+0x8],byte +0x0
00003D1C  7FB4              jg 0x3cd2
00003D1E  33C0              xor ax,ax
00003D20  5F                pop di
00003D21  5E                pop si
00003D22  8BE5              mov sp,bp
00003D24  5D                pop bp
00003D25  C20E00            ret 0xe
00003D28  55                push bp
00003D29  8BEC              mov bp,sp
00003D2B  83EC10            sub sp,byte +0x10
00003D2E  56                push si
00003D2F  57                push di
00003D30  8B7E06            mov di,[bp+0x6]
00003D33  8B7604            mov si,[bp+0x4]
00003D36  C746FE0000        mov word [bp-0x2],0x0
00003D3B  8B4610            mov ax,[bp+0x10]
00003D3E  8B560E            mov dx,[bp+0xe]
00003D41  8946FA            mov [bp-0x6],ax
00003D44  8956F8            mov [bp-0x8],dx
00003D47  8D46F8            lea ax,[bp-0x8]
00003D4A  50                push ax
00003D4B  56                push si
00003D4C  E87206            call 0x43c1
00003D4F  8D46FC            lea ax,[bp-0x4]
00003D52  50                push ax
00003D53  8D46F8            lea ax,[bp-0x8]
00003D56  50                push ax
00003D57  57                push di
00003D58  56                push si
00003D59  E89B09            call 0x46f7
00003D5C  FF76FC            push word [bp-0x4]
00003D5F  FF76FA            push word [bp-0x6]
00003D62  FF76F8            push word [bp-0x8]
00003D65  56                push si
00003D66  E86E0B            call 0x48d7
00003D69  F7C70200          test di,0x2
00003D6D  7406              jz 0x3d75
00003D6F  56                push si
00003D70  8B1C              mov bx,[si]
00003D72  FF5722            call near [bx+0x22]
00003D75  F744390100        test word [si+0x39],0x1
00003D7A  7403              jz 0x3d7f
00003D7C  E99500            jmp 0x3e14
00003D7F  F7C70400          test di,0x4
00003D83  740B              jz 0x3d90
00003D85  8B46F8            mov ax,[bp-0x8]
00003D88  250700            and ax,0x7
00003D8B  BA0800            mov dx,0x8
00003D8E  EB09              jmp short 0x3d99
00003D90  8B46F8            mov ax,[bp-0x8]
00003D93  25FF00            and ax,0xff
00003D96  BA0001            mov dx,0x100
00003D99  2BD0              sub dx,ax
00003D9B  8956F6            mov [bp-0xa],dx
00003D9E  8B46F6            mov ax,[bp-0xa]
00003DA1  3B4608            cmp ax,[bp+0x8]
00003DA4  7E06              jng 0x3dac
00003DA6  8B4608            mov ax,[bp+0x8]
00003DA9  8946F6            mov [bp-0xa],ax
00003DAC  8B4608            mov ax,[bp+0x8]
00003DAF  2B46F6            sub ax,[bp-0xa]
00003DB2  8946F4            mov [bp-0xc],ax
00003DB5  FF760C            push word [bp+0xc]
00003DB8  FF760A            push word [bp+0xa]
00003DBB  FF76F6            push word [bp-0xa]
00003DBE  56                push si
00003DBF  8B1C              mov bx,[si]
00003DC1  FF5716            call near [bx+0x16]
00003DC4  837EF400          cmp word [bp-0xc],byte +0x0
00003DC8  7E59              jng 0x3e23
00003DCA  F7C70400          test di,0x4
00003DCE  741E              jz 0x3dee
00003DD0  8B46F8            mov ax,[bp-0x8]
00003DD3  250700            and ax,0x7
00003DD6  8B56FA            mov dx,[bp-0x6]
00003DD9  8B5EF8            mov bx,[bp-0x8]
00003DDC  81C300FF          add bx,0xff00
00003DE0  83D2FF            adc dx,byte -0x1
00003DE3  2BD8              sub bx,ax
00003DE5  83DA00            sbb dx,byte +0x0
00003DE8  8956FA            mov [bp-0x6],dx
00003DEB  895EF8            mov [bp-0x8],bx
00003DEE  FF76FC            push word [bp-0x4]
00003DF1  8B46F6            mov ax,[bp-0xa]
00003DF4  99                cwd
00003DF5  8B5EFA            mov bx,[bp-0x6]
00003DF8  8B4EF8            mov cx,[bp-0x8]
00003DFB  03C8              add cx,ax
00003DFD  13DA              adc bx,dx
00003DFF  53                push bx
00003E00  51                push cx
00003E01  56                push si
00003E02  E8D20A            call 0x48d7
00003E05  8B460A            mov ax,[bp+0xa]
00003E08  0346F6            add ax,[bp-0xa]
00003E0B  FF760C            push word [bp+0xc]
00003E0E  50                push ax
00003E0F  FF76F4            push word [bp-0xc]
00003E12  EB09              jmp short 0x3e1d
00003E14  FF760C            push word [bp+0xc]
00003E17  FF760A            push word [bp+0xa]
00003E1A  FF7608            push word [bp+0x8]
00003E1D  56                push si
00003E1E  8B1C              mov bx,[si]
00003E20  FF5716            call near [bx+0x16]
00003E23  F7C70200          test di,0x2
00003E27  7503              jnz 0x3e2c
00003E29  E98200            jmp 0x3eae
00003E2C  1E                push ds
00003E2D  B8FA58            mov ax,0x58fa
00003E30  50                push ax
00003E31  B80600            mov ax,0x6
00003E34  50                push ax
00003E35  56                push si
00003E36  8B1C              mov bx,[si]
00003E38  FF5716            call near [bx+0x16]
00003E3B  56                push si
00003E3C  8B1C              mov bx,[si]
00003E3E  FF5726            call near [bx+0x26]
00003E41  0BC0              or ax,ax
00003E43  7463              jz 0x3ea8
00003E45  F7C70080          test di,0x8000
00003E49  7440              jz 0x3e8b
00003E4B  8D46F2            lea ax,[bp-0xe]
00003E4E  50                push ax
00003E4F  56                push si
00003E50  E8070B            call 0x495a
00003E53  8A56F2            mov dl,[bp-0xe]
00003E56  8A46F6            mov al,[bp-0xa]
00003E59  8846F2            mov [bp-0xe],al
00003E5C  8856F6            mov [bp-0xa],dl
00003E5F  8A56F3            mov dl,[bp-0xd]
00003E62  8A46F7            mov al,[bp-0x9]
00003E65  8846F3            mov [bp-0xd],al
00003E68  8856F7            mov [bp-0x9],dl
00003E6B  FF760C            push word [bp+0xc]
00003E6E  FF760A            push word [bp+0xa]
00003E71  8D46F2            lea ax,[bp-0xe]
00003E74  50                push ax
00003E75  B80100            mov ax,0x1
00003E78  50                push ax
00003E79  8D46F0            lea ax,[bp-0x10]
00003E7C  50                push ax
00003E7D  E85833            call 0x71d8
00003E80  0BC0              or ax,ax
00003E82  7424              jz 0x3ea8
00003E84  C746FE0500        mov word [bp-0x2],0x5
00003E89  EB1D              jmp short 0x3ea8
00003E8B  FF7610            push word [bp+0x10]
00003E8E  FF760E            push word [bp+0xe]
00003E91  FF760C            push word [bp+0xc]
00003E94  FF760A            push word [bp+0xa]
00003E97  FF7608            push word [bp+0x8]
00003E9A  8BC7              mov ax,di
00003E9C  0D0080            or ax,0x8000
00003E9F  50                push ax
00003EA0  56                push si
00003EA1  8B1C              mov bx,[si]
00003EA3  FF5710            call near [bx+0x10]
00003EA6  EB2F              jmp short 0x3ed7
00003EA8  56                push si
00003EA9  8B1C              mov bx,[si]
00003EAB  FF5720            call near [bx+0x20]
00003EAE  B018              mov al,0x18
00003EB0  50                push ax
00003EB1  56                push si
00003EB2  8B1C              mov bx,[si]
00003EB4  FF571E            call near [bx+0x1e]
00003EB7  F7C70400          test di,0x4
00003EBB  7417              jz 0x3ed4
00003EBD  8B442B            mov ax,[si+0x2b]
00003EC0  48                dec ax
00003EC1  8B56F8            mov dx,[bp-0x8]
00003EC4  23D0              and dx,ax
00003EC6  8B4608            mov ax,[bp+0x8]
00003EC9  03C2              add ax,dx
00003ECB  3B442B            cmp ax,[si+0x2b]
00003ECE  7504              jnz 0x3ed4
00003ED0  56                push si
00003ED1  E8A807            call 0x467c
00003ED4  8B46FE            mov ax,[bp-0x2]
00003ED7  5F                pop di
00003ED8  5E                pop si
00003ED9  8BE5              mov sp,bp
00003EDB  5D                pop bp
00003EDC  C20E00            ret 0xe
00003EDF  55                push bp
00003EE0  8BEC              mov bp,sp
00003EE2  83EC02            sub sp,byte +0x2
00003EE5  56                push si
00003EE6  57                push di
00003EE7  8B7604            mov si,[bp+0x4]
00003EEA  F746060400        test word [bp+0x6],0x4
00003EEF  7405              jz 0x3ef6
00003EF1  B80800            mov ax,0x8
00003EF4  EB03              jmp short 0x3ef9
00003EF6  B80002            mov ax,0x200
00003EF9  8946FE            mov [bp-0x2],ax
00003EFC  56                push si
00003EFD  E89605            call 0x4496
00003F00  8B46FE            mov ax,[bp-0x2]
00003F03  48                dec ax
00003F04  8B560E            mov dx,[bp+0xe]
00003F07  23D0              and dx,ax
00003F09  8B7EFE            mov di,[bp-0x2]
00003F0C  2BFA              sub di,dx
00003F0E  EB46              jmp short 0x3f56
00003F10  3B7E08            cmp di,[bp+0x8]
00003F13  7E03              jng 0x3f18
00003F15  8B7E08            mov di,[bp+0x8]
00003F18  FF7610            push word [bp+0x10]
00003F1B  FF760E            push word [bp+0xe]
00003F1E  FF760C            push word [bp+0xc]
00003F21  FF760A            push word [bp+0xa]
00003F24  57                push di
00003F25  81FF0002          cmp di,0x200
00003F29  7409              jz 0x3f34
00003F2B  836606FD          and word [bp+0x6],byte -0x3
00003F2F  8B4606            mov ax,[bp+0x6]
00003F32  EB03              jmp short 0x3f37
00003F34  8B4606            mov ax,[bp+0x6]
00003F37  50                push ax
00003F38  56                push si
00003F39  8B1C              mov bx,[si]
00003F3B  FF570E            call near [bx+0xe]
00003F3E  8BD0              mov dx,ax
00003F40  0BD2              or dx,dx
00003F42  751A              jnz 0x3f5e
00003F44  297E08            sub [bp+0x8],di
00003F47  8BC7              mov ax,di
00003F49  99                cwd
00003F4A  01460E            add [bp+0xe],ax
00003F4D  115610            adc [bp+0x10],dx
00003F50  017E0A            add [bp+0xa],di
00003F53  8B7EFE            mov di,[bp-0x2]
00003F56  837E0800          cmp word [bp+0x8],byte +0x0
00003F5A  7FB4              jg 0x3f10
00003F5C  33C0              xor ax,ax
00003F5E  5F                pop di
00003F5F  5E                pop si
00003F60  8BE5              mov sp,bp
00003F62  5D                pop bp
00003F63  C20E00            ret 0xe
00003F66  55                push bp
00003F67  8BEC              mov bp,sp
00003F69  83EC10            sub sp,byte +0x10
00003F6C  56                push si
00003F6D  57                push di
00003F6E  8B7604            mov si,[bp+0x4]
00003F71  8B460C            mov ax,[bp+0xc]
00003F74  8B560A            mov dx,[bp+0xa]
00003F77  8946FE            mov [bp-0x2],ax
00003F7A  8956FC            mov [bp-0x4],dx
00003F7D  C746FA0000        mov word [bp-0x6],0x0
00003F82  FF7402            push word [si+0x2]
00003F85  E8B436            call 0x763c
00003F88  0BC0              or ax,ax
00003F8A  7406              jz 0x3f92
00003F8C  B80100            mov ax,0x1
00003F8F  E9A801            jmp 0x413a
00003F92  8D460E            lea ax,[bp+0xe]
00003F95  50                push ax
00003F96  56                push si
00003F97  E82704            call 0x43c1
00003F9A  8D46F8            lea ax,[bp-0x8]
00003F9D  50                push ax
00003F9E  8D460E            lea ax,[bp+0xe]
00003FA1  50                push ax
00003FA2  FF7606            push word [bp+0x6]
00003FA5  56                push si
00003FA6  E84E07            call 0x46f7
00003FA9  F744390200        test word [si+0x39],0x2
00003FAE  7437              jz 0x3fe7
00003FB0  837EF801          cmp word [bp-0x8],byte +0x1
00003FB4  7531              jnz 0x3fe7
00003FB6  8B460E            mov ax,[bp+0xe]
00003FB9  234427            and ax,[si+0x27]
00003FBC  050200            add ax,0x2
00003FBF  8BF8              mov di,ax
00003FC1  33C0              xor ax,ax
00003FC3  50                push ax
00003FC4  8B4610            mov ax,[bp+0x10]
00003FC7  8B560E            mov dx,[bp+0xe]
00003FCA  035429            add dx,[si+0x29]
00003FCD  150000            adc ax,0x0
00003FD0  2BD7              sub dx,di
00003FD2  1D0000            sbb ax,0x0
00003FD5  50                push ax
00003FD6  52                push dx
00003FD7  56                push si
00003FD8  E81E09            call 0x48f9
00003FDB  B0FF              mov al,0xff
00003FDD  50                push ax
00003FDE  57                push di
00003FDF  56                push si
00003FE0  8B1C              mov bx,[si]
00003FE2  FF5714            call near [bx+0x14]
00003FE5  EB0D              jmp short 0x3ff4
00003FE7  FF76F8            push word [bp-0x8]
00003FEA  FF7610            push word [bp+0x10]
00003FED  FF760E            push word [bp+0xe]
00003FF0  56                push si
00003FF1  E80509            call 0x48f9
00003FF4  F746060200        test word [bp+0x6],0x2
00003FF9  7406              jz 0x4001
00003FFB  56                push si
00003FFC  8B1C              mov bx,[si]
00003FFE  FF5724            call near [bx+0x24]
00004001  F744390100        test word [si+0x39],0x1
00004006  7403              jz 0x400b
00004008  E99A00            jmp 0x40a5
0000400B  F746060400        test word [bp+0x6],0x4
00004010  740B              jz 0x401d
00004012  8B460E            mov ax,[bp+0xe]
00004015  250700            and ax,0x7
00004018  BF0800            mov di,0x8
0000401B  EB09              jmp short 0x4026
0000401D  8B460E            mov ax,[bp+0xe]
00004020  25FF00            and ax,0xff
00004023  BF0001            mov di,0x100
00004026  2BF8              sub di,ax
00004028  3B7E08            cmp di,[bp+0x8]
0000402B  7E03              jng 0x4030
0000402D  8B7E08            mov di,[bp+0x8]
00004030  8B4608            mov ax,[bp+0x8]
00004033  2BC7              sub ax,di
00004035  8946F0            mov [bp-0x10],ax
00004038  FF76FE            push word [bp-0x2]
0000403B  FF76FC            push word [bp-0x4]
0000403E  57                push di
0000403F  56                push si
00004040  8B1C              mov bx,[si]
00004042  FF5712            call near [bx+0x12]
00004045  837EF000          cmp word [bp-0x10],byte +0x0
00004049  7E69              jng 0x40b4
0000404B  0BFF              or di,di
0000404D  7E0D              jng 0x405c
0000404F  56                push si
00004050  E8E108            call 0x4934
00004053  8BD0              mov dx,ax
00004055  0BD2              or dx,dx
00004057  7403              jz 0x405c
00004059  E9CE00            jmp 0x412a
0000405C  F746060400        test word [bp+0x6],0x4
00004061  741E              jz 0x4081
00004063  8B460E            mov ax,[bp+0xe]
00004066  250700            and ax,0x7
00004069  8B5610            mov dx,[bp+0x10]
0000406C  8B5E0E            mov bx,[bp+0xe]
0000406F  81C300FF          add bx,0xff00
00004073  83D2FF            adc dx,byte -0x1
00004076  2BD8              sub bx,ax
00004078  83DA00            sbb dx,byte +0x0
0000407B  895610            mov [bp+0x10],dx
0000407E  895E0E            mov [bp+0xe],bx
00004081  FF76F8            push word [bp-0x8]
00004084  8BC7              mov ax,di
00004086  99                cwd
00004087  8B5E10            mov bx,[bp+0x10]
0000408A  8B4E0E            mov cx,[bp+0xe]
0000408D  03C8              add cx,ax
0000408F  13DA              adc bx,dx
00004091  53                push bx
00004092  51                push cx
00004093  56                push si
00004094  E86208            call 0x48f9
00004097  8B46FC            mov ax,[bp-0x4]
0000409A  03C7              add ax,di
0000409C  FF76FE            push word [bp-0x2]
0000409F  50                push ax
000040A0  FF76F0            push word [bp-0x10]
000040A3  EB09              jmp short 0x40ae
000040A5  FF76FE            push word [bp-0x2]
000040A8  FF76FC            push word [bp-0x4]
000040AB  FF7608            push word [bp+0x8]
000040AE  56                push si
000040AF  8B1C              mov bx,[si]
000040B1  FF5712            call near [bx+0x12]
000040B4  F746060200        test word [bp+0x6],0x2
000040B9  7465              jz 0x4120
000040BB  B021              mov al,0x21
000040BD  50                push ax
000040BE  56                push si
000040BF  8B1C              mov bx,[si]
000040C1  FF571E            call near [bx+0x1e]
000040C4  F744390800        test word [si+0x39],0x8
000040C9  7413              jz 0x40de
000040CB  33C0              xor ax,ax
000040CD  C45C3B            les bx,[si+0x3b]
000040D0  26C687201000      mov byte [es:bx+0x1020],0x0
000040D6  40                inc ax
000040D7  3D0300            cmp ax,0x3
000040DA  7CF1              jl 0x40cd
000040DC  EB0D              jmp short 0x40eb
000040DE  B000              mov al,0x0
000040E0  50                push ax
000040E1  B80300            mov ax,0x3
000040E4  50                push ax
000040E5  56                push si
000040E6  8B1C              mov bx,[si]
000040E8  FF5714            call near [bx+0x14]
000040EB  B031              mov al,0x31
000040ED  50                push ax
000040EE  56                push si
000040EF  8B1C              mov bx,[si]
000040F1  FF571E            call near [bx+0x1e]
000040F4  8D46F2            lea ax,[bp-0xe]
000040F7  50                push ax
000040F8  56                push si
000040F9  E85E08            call 0x495a
000040FC  56                push si
000040FD  8B1C              mov bx,[si]
000040FF  FF5720            call near [bx+0x20]
00004102  16                push ss
00004103  8D46F2            lea ax,[bp-0xe]
00004106  50                push ax
00004107  B80600            mov ax,0x6
0000410A  50                push ax
0000410B  56                push si
0000410C  8B1C              mov bx,[si]
0000410E  FF5712            call near [bx+0x12]
00004111  1E                push ds
00004112  B85258            mov ax,0x5852
00004115  50                push ax
00004116  B80200            mov ax,0x2
00004119  50                push ax
0000411A  56                push si
0000411B  8B1C              mov bx,[si]
0000411D  FF5712            call near [bx+0x12]
00004120  56                push si
00004121  E81008            call 0x4934
00004124  8BD0              mov dx,ax
00004126  0BD2              or dx,dx
00004128  7404              jz 0x412e
0000412A  8BC2              mov ax,dx
0000412C  EB0C              jmp short 0x413a
0000412E  B018              mov al,0x18
00004130  50                push ax
00004131  56                push si
00004132  8B1C              mov bx,[si]
00004134  FF571E            call near [bx+0x1e]
00004137  8B46FA            mov ax,[bp-0x6]
0000413A  5F                pop di
0000413B  5E                pop si
0000413C  8BE5              mov sp,bp
0000413E  5D                pop bp
0000413F  C20E00            ret 0xe
00004142  55                push bp
00004143  8BEC              mov bp,sp
00004145  8B4604            mov ax,[bp+0x4]
00004148  33C0              xor ax,ax
0000414A  5D                pop bp
0000414B  C20600            ret 0x6
0000414E  55                push bp
0000414F  8BEC              mov bp,sp
00004151  83EC14            sub sp,byte +0x14
00004154  56                push si
00004155  57                push di
00004156  8B7E08            mov di,[bp+0x8]
00004159  8B7604            mov si,[bp+0x4]
0000415C  8B460C            mov ax,[bp+0xc]
0000415F  99                cwd
00004160  50                push ax
00004161  52                push dx
00004162  8B540A            mov dx,[si+0xa]
00004165  8B4408            mov ax,[si+0x8]
00004168  59                pop cx
00004169  5B                pop bx
0000416A  E8F439            call 0x7b61
0000416D  8956FE            mov [bp-0x2],dx
00004170  8946FC            mov [bp-0x4],ax
00004173  8B46FE            mov ax,[bp-0x2]
00004176  8B56FC            mov dx,[bp-0x4]
00004179  8946FA            mov [bp-0x6],ax
0000417C  8956F8            mov [bp-0x8],dx
0000417F  C746F60100        mov word [bp-0xa],0x1
00004184  C746F40000        mov word [bp-0xc],0x0
00004189  FF7437            push word [si+0x37]
0000418C  FF7435            push word [si+0x35]
0000418F  50                push ax
00004190  52                push dx
00004191  E86C38            call 0x7a00
00004194  8846F3            mov [bp-0xd],al
00004197  FF740A            push word [si+0xa]
0000419A  FF7408            push word [si+0x8]
0000419D  B400              mov ah,0x0
0000419F  40                inc ax
000041A0  99                cwd
000041A1  50                push ax
000041A2  52                push dx
000041A3  8B5437            mov dx,[si+0x37]
000041A6  8B4435            mov ax,[si+0x35]
000041A9  59                pop cx
000041AA  5B                pop bx
000041AB  E8B339            call 0x7b61
000041AE  52                push dx
000041AF  50                push ax
000041B0  E84D38            call 0x7a00
000041B3  8946F0            mov [bp-0x10],ax
000041B6  56                push si
000041B7  E8DC02            call 0x4496
000041BA  FF7402            push word [si+0x2]
000041BD  E87C34            call 0x763c
000041C0  0BC0              or ax,ax
000041C2  7406              jz 0x41ca
000041C4  B80100            mov ax,0x1
000041C7  E9C001            jmp 0x438a
000041CA  83FF04            cmp di,byte +0x4
000041CD  7429              jz 0x41f8
000041CF  83FF05            cmp di,byte +0x5
000041D2  7424              jz 0x41f8
000041D4  8B460C            mov ax,[bp+0xc]
000041D7  03460A            add ax,[bp+0xa]
000041DA  99                cwd
000041DB  50                push ax
000041DC  52                push dx
000041DD  FF740A            push word [si+0xa]
000041E0  FF7408            push word [si+0x8]
000041E3  FF7421            push word [si+0x21]
000041E6  FF741F            push word [si+0x1f]
000041E9  E81438            call 0x7a00
000041EC  5B                pop bx
000041ED  3BDA              cmp bx,dx
000041EF  5A                pop dx
000041F0  7C0C              jl 0x41fe
000041F2  7F04              jg 0x41f8
000041F4  3BD0              cmp dx,ax
000041F6  7606              jna 0x41fe
000041F8  B80500            mov ax,0x5
000041FB  E98C01            jmp 0x438a
000041FE  8B460C            mov ax,[bp+0xc]
00004201  03460A            add ax,[bp+0xa]
00004204  3B46F0            cmp ax,[bp-0x10]
00004207  7E2B              jng 0x4234
00004209  FF76F0            push word [bp-0x10]
0000420C  8B46F0            mov ax,[bp-0x10]
0000420F  2B460C            sub ax,[bp+0xc]
00004212  8B560A            mov dx,[bp+0xa]
00004215  2BD0              sub dx,ax
00004217  52                push dx
00004218  57                push di
00004219  FF7606            push word [bp+0x6]
0000421C  56                push si
0000421D  8B1C              mov bx,[si]
0000421F  FF5706            call near [bx+0x6]
00004222  8BD0              mov dx,ax
00004224  0BD2              or dx,dx
00004226  7403              jz 0x422b
00004228  E95F01            jmp 0x438a
0000422B  8B46F0            mov ax,[bp-0x10]
0000422E  2B460C            sub ax,[bp+0xc]
00004231  89460A            mov [bp+0xa],ax
00004234  8D46F8            lea ax,[bp-0x8]
00004237  50                push ax
00004238  56                push si
00004239  E88501            call 0x43c1
0000423C  0BFF              or di,di
0000423E  7408              jz 0x4248
00004240  83FF01            cmp di,byte +0x1
00004243  7403              jz 0x4248
00004245  E90901            jmp 0x4351
00004248  33FF              xor di,di
0000424A  E9FA00            jmp 0x4347
0000424D  8B460C            mov ax,[bp+0xc]
00004250  99                cwd
00004251  50                push ax
00004252  8B4431            mov ax,[si+0x31]
00004255  52                push dx
00004256  33D2              xor dx,dx
00004258  59                pop cx
00004259  5B                pop bx
0000425A  E80439            call 0x7b61
0000425D  8956EE            mov [bp-0x12],dx
00004260  8946EC            mov [bp-0x14],ax
00004263  B0FF              mov al,0xff
00004265  50                push ax
00004266  56                push si
00004267  E81705            call 0x4781
0000426A  56                push si
0000426B  E80E04            call 0x467c
0000426E  B060              mov al,0x60
00004270  50                push ax
00004271  56                push si
00004272  E80C05            call 0x4781
00004275  B015              mov al,0x15
00004277  50                push ax
00004278  56                push si
00004279  8B1C              mov bx,[si]
0000427B  FF571E            call near [bx+0x1e]
0000427E  F744390400        test word [si+0x39],0x4
00004283  744F              jz 0x42d4
00004285  C45C3B            les bx,[si+0x3b]
00004288  8A46EC            mov al,[bp-0x14]
0000428B  2688870D10        mov [es:bx+0x100d],al
00004290  C45C3F            les bx,[si+0x3f]
00004293  268807            mov [es:bx],al
00004296  8B56EE            mov dx,[bp-0x12]
00004299  8B46EC            mov ax,[bp-0x14]
0000429C  B108              mov cl,0x8
0000429E  E84E38            call 0x7aef
000042A1  C45C3B            les bx,[si+0x3b]
000042A4  2688870D10        mov [es:bx+0x100d],al
000042A9  8B56EE            mov dx,[bp-0x12]
000042AC  8B46EC            mov ax,[bp-0x14]
000042AF  B108              mov cl,0x8
000042B1  E83B38            call 0x7aef
000042B4  C45C3F            les bx,[si+0x3f]
000042B7  268807            mov [es:bx],al
000042BA  F744391000        test word [si+0x39],0x10
000042BF  744F              jz 0x4310
000042C1  8B46EE            mov ax,[bp-0x12]
000042C4  C45C3B            les bx,[si+0x3b]
000042C7  2688870D10        mov [es:bx+0x100d],al
000042CC  C45C3F            les bx,[si+0x3f]
000042CF  268807            mov [es:bx],al
000042D2  EB3C              jmp short 0x4310
000042D4  C45C3F            les bx,[si+0x3f]
000042D7  8A46EC            mov al,[bp-0x14]
000042DA  268807            mov [es:bx],al
000042DD  8B56EE            mov dx,[bp-0x12]
000042E0  8B46EC            mov ax,[bp-0x14]
000042E3  B108              mov cl,0x8
000042E5  E80738            call 0x7aef
000042E8  C45C3F            les bx,[si+0x3f]
000042EB  268807            mov [es:bx],al
000042EE  F744391000        test word [si+0x39],0x10
000042F3  740B              jz 0x4300
000042F5  8B46EE            mov ax,[bp-0x12]
000042F8  C45C3B            les bx,[si+0x3b]
000042FB  2688870018        mov [es:bx+0x1800],al
00004300  F744390800        test word [si+0x39],0x8
00004305  7409              jz 0x4310
00004307  C45C3B            les bx,[si+0x3b]
0000430A  26C6871E1000      mov byte [es:bx+0x101e],0x0
00004310  B011              mov al,0x11
00004312  50                push ax
00004313  56                push si
00004314  8B1C              mov bx,[si]
00004316  FF571E            call near [bx+0x1e]
00004319  B0D0              mov al,0xd0
0000431B  50                push ax
0000431C  56                push si
0000431D  E86104            call 0x4781
00004320  56                push si
00004321  E85803            call 0x467c
00004324  C746F60100        mov word [bp-0xa],0x1
00004329  56                push si
0000432A  E85106            call 0x497e
0000432D  A801              test al,0x1
0000432F  7412              jz 0x4343
00004331  C746F40B00        mov word [bp-0xc],0xb
00004336  B0FF              mov al,0xff
00004338  50                push ax
00004339  56                push si
0000433A  E84404            call 0x4781
0000433D  56                push si
0000433E  E83B03            call 0x467c
00004341  EB36              jmp short 0x4379
00004343  47                inc di
00004344  FF460C            inc word [bp+0xc]
00004347  3B7E0A            cmp di,[bp+0xa]
0000434A  7D03              jnl 0x434f
0000434C  E9FEFE            jmp 0x424d
0000434F  EB28              jmp short 0x4379
00004351  83FF02            cmp di,byte +0x2
00004354  7515              jnz 0x436b
00004356  56                push si
00004357  E84803            call 0x46a2
0000435A  0AC0              or al,al
0000435C  7405              jz 0x4363
0000435E  B80200            mov ax,0x2
00004361  EB03              jmp short 0x4366
00004363  B80100            mov ax,0x1
00004366  8946F6            mov [bp-0xa],ax
00004369  EB0E              jmp short 0x4379
0000436B  83FF03            cmp di,byte +0x3
0000436E  7509              jnz 0x4379
00004370  56                push si
00004371  E80803            call 0x467c
00004374  C746F60100        mov word [bp-0xa],0x1
00004379  837E0600          cmp word [bp+0x6],byte +0x0
0000437D  7408              jz 0x4387
0000437F  8B5E06            mov bx,[bp+0x6]
00004382  8B46F6            mov ax,[bp-0xa]
00004385  8907              mov [bx],ax
00004387  8B46F4            mov ax,[bp-0xc]
0000438A  5F                pop di
0000438B  5E                pop si
0000438C  8BE5              mov sp,bp
0000438E  5D                pop bp
0000438F  C20A00            ret 0xa
00004392  55                push bp
00004393  8BEC              mov bp,sp
00004395  8B4604            mov ax,[bp+0x4]
00004398  33C0              xor ax,ax
0000439A  5D                pop bp
0000439B  C20200            ret 0x2
0000439E  55                push bp
0000439F  8BEC              mov bp,sp
000043A1  8B4604            mov ax,[bp+0x4]
000043A4  33C0              xor ax,ax
000043A6  5D                pop bp
000043A7  C20200            ret 0x2
000043AA  55                push bp
000043AB  8BEC              mov bp,sp
000043AD  8B4604            mov ax,[bp+0x4]
000043B0  FF760A            push word [bp+0xa]
000043B3  FF7608            push word [bp+0x8]
000043B6  FF7606            push word [bp+0x6]
000043B9  50                push ax
000043BA  E8F71F            call 0x63b4
000043BD  5D                pop bp
000043BE  C20800            ret 0x8
000043C1  55                push bp
000043C2  8BEC              mov bp,sp
000043C4  56                push si
000043C5  57                push di
000043C6  8B7E06            mov di,[bp+0x6]
000043C9  8B7604            mov si,[bp+0x4]
000043CC  A14C58            mov ax,[0x584c]
000043CF  8B164A58          mov dx,[0x584a]
000043D3  89443D            mov [si+0x3d],ax
000043D6  89543B            mov [si+0x3b],dx
000043D9  F744390800        test word [si+0x39],0x8
000043DE  740C              jz 0x43ec
000043E0  8B443D            mov ax,[si+0x3d]
000043E3  8B543B            mov dx,[si+0x3b]
000043E6  81C20008          add dx,0x800
000043EA  EB0A              jmp short 0x43f6
000043EC  8B443D            mov ax,[si+0x3d]
000043EF  8B543B            mov dx,[si+0x3b]
000043F2  81C20018          add dx,0x1800
000043F6  894441            mov [si+0x41],ax
000043F9  89543F            mov [si+0x3f],dx
000043FC  57                push di
000043FD  56                push si
000043FE  8B1C              mov bx,[si]
00004400  FF571A            call near [bx+0x1a]
00004403  FF740E            push word [si+0xe]
00004406  FF740C            push word [si+0xc]
00004409  FF7502            push word [di+0x2]
0000440C  FF35              push word [di]
0000440E  E8EF35            call 0x7a00
00004411  50                push ax
00004412  56                push si
00004413  8B1C              mov bx,[si]
00004415  FF571C            call near [bx+0x1c]
00004418  5F                pop di
00004419  5E                pop si
0000441A  5D                pop bp
0000441B  C20400            ret 0x4
0000441E  55                push bp
0000441F  8BEC              mov bp,sp
00004421  56                push si
00004422  57                push di
00004423  8B7E04            mov di,[bp+0x4]
00004426  807D3301          cmp byte [di+0x33],0x1
0000442A  7638              jna 0x4464
0000442C  FF7537            push word [di+0x37]
0000442F  FF7535            push word [di+0x35]
00004432  8B5E06            mov bx,[bp+0x6]
00004435  FF7702            push word [bx+0x2]
00004438  FF37              push word [bx]
0000443A  E8C335            call 0x7a00
0000443D  8AD0              mov dl,al
0000443F  C45D3B            les bx,[di+0x3b]
00004442  884534            mov [di+0x34],al
00004445  2688870310        mov [es:bx+0x1003],al
0000444A  8AC2              mov al,dl
0000444C  B400              mov ah,0x0
0000444E  99                cwd
0000444F  50                push ax
00004450  52                push dx
00004451  8B5537            mov dx,[di+0x37]
00004454  8B4535            mov ax,[di+0x35]
00004457  59                pop cx
00004458  5B                pop bx
00004459  E80537            call 0x7b61
0000445C  8B5E06            mov bx,[bp+0x6]
0000445F  2907              sub [bx],ax
00004461  195702            sbb [bx+0x2],dx
00004464  5F                pop di
00004465  5E                pop si
00004466  5D                pop bp
00004467  C20400            ret 0x4
0000446A  55                push bp
0000446B  8BEC              mov bp,sp
0000446D  83EC04            sub sp,byte +0x4
00004470  8A4E06            mov cl,[bp+0x6]
00004473  8B4604            mov ax,[bp+0x4]
00004476  A14C58            mov ax,[0x584c]
00004479  8B164A58          mov dx,[0x584a]
0000447D  8946FE            mov [bp-0x2],ax
00004480  8956FC            mov [bp-0x4],dx
00004483  C45EFC            les bx,[bp-0x4]
00004486  26888F0210        mov [es:bx+0x1002],cl
0000448B  26888F0210        mov [es:bx+0x1002],cl
00004490  8BE5              mov sp,bp
00004492  5D                pop bp
00004493  C20400            ret 0x4
00004496  55                push bp
00004497  8BEC              mov bp,sp
00004499  56                push si
0000449A  8B7604            mov si,[bp+0x4]
0000449D  C45C3B            les bx,[si+0x3b]
000044A0  2680BF011000      cmp byte [es:bx+0x1001],0x0
000044A6  7510              jnz 0x44b8
000044A8  26C687021085      mov byte [es:bx+0x1002],0x85
000044AE  26C687021085      mov byte [es:bx+0x1002],0x85
000044B4  C6443400          mov byte [si+0x34],0x0
000044B8  5E                pop si
000044B9  5D                pop bp
000044BA  C20200            ret 0x2
000044BD  55                push bp
000044BE  8BEC              mov bp,sp
000044C0  56                push si
000044C1  57                push di
000044C2  8B7E04            mov di,[bp+0x4]
000044C5  F745390400        test word [di+0x39],0x4
000044CA  7437              jz 0x4503
000044CC  33F6              xor si,si
000044CE  3B7606            cmp si,[bp+0x6]
000044D1  7C03              jl 0x44d6
000044D3  E9A300            jmp 0x4579
000044D6  C45D3B            les bx,[di+0x3b]
000044D9  268A870D10        mov al,[es:bx+0x100d]
000044DE  C45E08            les bx,[bp+0x8]
000044E1  03DE              add bx,si
000044E3  268807            mov [es:bx],al
000044E6  C45D3F            les bx,[di+0x3f]
000044E9  8BC6              mov ax,si
000044EB  250100            and ax,0x1
000044EE  03D8              add bx,ax
000044F0  268A07            mov al,[es:bx]
000044F3  C45E08            les bx,[bp+0x8]
000044F6  03DE              add bx,si
000044F8  268807            mov [es:bx],al
000044FB  46                inc si
000044FC  3B7606            cmp si,[bp+0x6]
000044FF  7CD5              jl 0x44d6
00004501  EB76              jmp short 0x4579
00004503  F745390800        test word [di+0x39],0x8
00004508  7435              jz 0x453f
0000450A  C45D3B            les bx,[di+0x3b]
0000450D  268A871D10        mov al,[es:bx+0x101d]
00004512  00060059          add [0x5900],al
00004516  FF4E06            dec word [bp+0x6]
00004519  817E060001        cmp word [bp+0x6],0x100
0000451E  7D05              jnl 0x4525
00004520  8B4606            mov ax,[bp+0x6]
00004523  EB03              jmp short 0x4528
00004525  B80001            mov ax,0x100
00004528  8BF0              mov si,ax
0000452A  50                push ax
0000452B  FF7541            push word [di+0x41]
0000452E  FF753F            push word [di+0x3f]
00004531  FF760A            push word [bp+0xa]
00004534  FF7608            push word [bp+0x8]
00004537  E8082F            call 0x7442
0000453A  83C40A            add sp,byte +0xa
0000453D  EB02              jmp short 0x4541
0000453F  33F6              xor si,si
00004541  397606            cmp [bp+0x6],si
00004544  7E1B              jng 0x4561
00004546  8B4606            mov ax,[bp+0x6]
00004549  2BC6              sub ax,si
0000454B  50                push ax
0000454C  FF7541            push word [di+0x41]
0000454F  FF753F            push word [di+0x3f]
00004552  8B4608            mov ax,[bp+0x8]
00004555  03C6              add ax,si
00004557  FF760A            push word [bp+0xa]
0000455A  50                push ax
0000455B  E8E42E            call 0x7442
0000455E  83C40A            add sp,byte +0xa
00004561  F745390800        test word [di+0x39],0x8
00004566  7411              jz 0x4579
00004568  C45D3B            les bx,[di+0x3b]
0000456B  268A871F10        mov al,[es:bx+0x101f]
00004570  C45E08            les bx,[bp+0x8]
00004573  035E06            add bx,[bp+0x6]
00004576  268807            mov [es:bx],al
00004579  5F                pop di
0000457A  5E                pop si
0000457B  5D                pop bp
0000457C  C20800            ret 0x8
0000457F  55                push bp
00004580  8BEC              mov bp,sp
00004582  56                push si
00004583  8B4E06            mov cx,[bp+0x6]
00004586  8B7604            mov si,[bp+0x4]
00004589  F744390400        test word [si+0x39],0x4
0000458E  742A              jz 0x45ba
00004590  33D2              xor dx,dx
00004592  3BD1              cmp dx,cx
00004594  7D47              jnl 0x45dd
00004596  C45E08            les bx,[bp+0x8]
00004599  03DA              add bx,dx
0000459B  268A07            mov al,[es:bx]
0000459E  C45C3B            les bx,[si+0x3b]
000045A1  2688870D10        mov [es:bx+0x100d],al
000045A6  C45E08            les bx,[bp+0x8]
000045A9  03DA              add bx,dx
000045AB  C45C3F            les bx,[si+0x3f]
000045AE  03DA              add bx,dx
000045B0  268807            mov [es:bx],al
000045B3  42                inc dx
000045B4  3BD1              cmp dx,cx
000045B6  7CDE              jl 0x4596
000045B8  EB23              jmp short 0x45dd
000045BA  51                push cx
000045BB  FF760A            push word [bp+0xa]
000045BE  FF7608            push word [bp+0x8]
000045C1  FF7441            push word [si+0x41]
000045C4  FF743F            push word [si+0x3f]
000045C7  E8782E            call 0x7442
000045CA  83C40A            add sp,byte +0xa
000045CD  F744390800        test word [si+0x39],0x8
000045D2  7409              jz 0x45dd
000045D4  C45C3B            les bx,[si+0x3b]
000045D7  26C6871E1000      mov byte [es:bx+0x101e],0x0
000045DD  5E                pop si
000045DE  5D                pop bp
000045DF  C20800            ret 0x8
000045E2  55                push bp
000045E3  8BEC              mov bp,sp
000045E5  56                push si
000045E6  57                push di
000045E7  8A4E08            mov cl,[bp+0x8]
000045EA  8B7E06            mov di,[bp+0x6]
000045ED  8B7604            mov si,[bp+0x4]
000045F0  F744390400        test word [si+0x39],0x4
000045F5  741D              jz 0x4614
000045F7  33D2              xor dx,dx
000045F9  3BD7              cmp dx,di
000045FB  7D35              jnl 0x4632
000045FD  C45C3B            les bx,[si+0x3b]
00004600  26888F0D10        mov [es:bx+0x100d],cl
00004605  C45C3F            les bx,[si+0x3f]
00004608  03DA              add bx,dx
0000460A  26880F            mov [es:bx],cl
0000460D  42                inc dx
0000460E  3BD7              cmp dx,di
00004610  7CEB              jl 0x45fd
00004612  EB1E              jmp short 0x4632
00004614  57                push di
00004615  51                push cx
00004616  FF7441            push word [si+0x41]
00004619  FF743F            push word [si+0x3f]
0000461C  E8602E            call 0x747f
0000461F  83C408            add sp,byte +0x8
00004622  F744390800        test word [si+0x39],0x8
00004627  7409              jz 0x4632
00004629  C45C3B            les bx,[si+0x3b]
0000462C  26C6871E1000      mov byte [es:bx+0x101e],0x0
00004632  5F                pop di
00004633  5E                pop si
00004634  5D                pop bp
00004635  C20600            ret 0x6
00004638  55                push bp
00004639  8BEC              mov bp,sp
0000463B  8B4604            mov ax,[bp+0x4]
0000463E  8BD8              mov bx,ax
00004640  C45F3B            les bx,[bx+0x3b]
00004643  8A4606            mov al,[bp+0x6]
00004646  2688870510        mov [es:bx+0x1005],al
0000464B  5D                pop bp
0000464C  C20400            ret 0x4
0000464F  55                push bp
00004650  8BEC              mov bp,sp
00004652  8B4E04            mov cx,[bp+0x4]
00004655  8BD9              mov bx,cx
00004657  C45F3B            les bx,[bx+0x3b]
0000465A  8A4606            mov al,[bp+0x6]
0000465D  2688870410        mov [es:bx+0x1004],al
00004662  33D2              xor dx,dx
00004664  8BD9              mov bx,cx
00004666  C45F3B            les bx,[bx+0x3b]
00004669  268A872010        mov al,[es:bx+0x1020]
0000466E  00060059          add [0x5900],al
00004672  42                inc dx
00004673  83FA02            cmp dx,byte +0x2
00004676  7CEC              jl 0x4664
00004678  5D                pop bp
00004679  C20400            ret 0x4
0000467C  55                push bp
0000467D  8BEC              mov bp,sp
0000467F  56                push si
00004680  57                push di
00004681  8B7E04            mov di,[bp+0x4]
00004684  33F6              xor si,si
00004686  57                push di
00004687  E81800            call 0x46a2
0000468A  0AC0              or al,al
0000468C  7505              jnz 0x4693
0000468E  B80100            mov ax,0x1
00004691  EB09              jmp short 0x469c
00004693  46                inc si
00004694  81FE3075          cmp si,0x7530
00004698  7CEC              jl 0x4686
0000469A  33C0              xor ax,ax
0000469C  5F                pop di
0000469D  5E                pop si
0000469E  5D                pop bp
0000469F  C20200            ret 0x2
000046A2  55                push bp
000046A3  8BEC              mov bp,sp
000046A5  83EC02            sub sp,byte +0x2
000046A8  8B4E04            mov cx,[bp+0x4]
000046AB  33D2              xor dx,dx
000046AD  8BD9              mov bx,cx
000046AF  C45F3B            les bx,[bx+0x3b]
000046B2  268A872010        mov al,[es:bx+0x1020]
000046B7  00060059          add [0x5900],al
000046BB  42                inc dx
000046BC  83FA04            cmp dx,byte +0x4
000046BF  7CEC              jl 0x46ad
000046C1  8BD9              mov bx,cx
000046C3  C45F3B            les bx,[bx+0x3b]
000046C6  268A870410        mov al,[es:bx+0x1004]
000046CB  8846FF            mov [bp-0x1],al
000046CE  33D2              xor dx,dx
000046D0  8BD9              mov bx,cx
000046D2  C45F3B            les bx,[bx+0x3b]
000046D5  268A872010        mov al,[es:bx+0x1020]
000046DA  00060059          add [0x5900],al
000046DE  42                inc dx
000046DF  83FA02            cmp dx,byte +0x2
000046E2  7CEC              jl 0x46d0
000046E4  8A46FF            mov al,[bp-0x1]
000046E7  B400              mov ah,0x0
000046E9  258000            and ax,0x80
000046EC  F7D8              neg ax
000046EE  1BC0              sbb ax,ax
000046F0  40                inc ax
000046F1  8BE5              mov sp,bp
000046F3  5D                pop bp
000046F4  C20200            ret 0x2
000046F7  55                push bp
000046F8  8BEC              mov bp,sp
000046FA  56                push si
000046FB  57                push di
000046FC  8B7E0A            mov di,[bp+0xa]
000046FF  8B4E08            mov cx,[bp+0x8]
00004702  8B7604            mov si,[bp+0x4]
00004705  F744390100        test word [si+0x39],0x1
0000470A  752F              jnz 0x473b
0000470C  F746060400        test word [bp+0x6],0x4
00004711  7422              jz 0x4735
00004713  8BD9              mov bx,cx
00004715  8B17              mov dx,[bx]
00004717  81E2FF01          and dx,0x1ff
0000471B  C7055000          mov word [di],0x50
0000471F  83FA08            cmp dx,byte +0x8
00004722  7306              jnc 0x472a
00004724  81070001          add word [bx],0x100
00004728  EB4D              jmp short 0x4777
0000472A  8BD9              mov bx,cx
0000472C  832F08            sub word [bx],byte +0x8
0000472F  835F0200          sbb word [bx+0x2],byte +0x0
00004733  EB46              jmp short 0x477b
00004735  C7050000          mov word [di],0x0
00004739  EB40              jmp short 0x477b
0000473B  8BD9              mov bx,cx
0000473D  8B17              mov dx,[bx]
0000473F  235427            and dx,[si+0x27]
00004742  2917              sub [bx],dx
00004744  835F0200          sbb word [bx+0x2],byte +0x0
00004748  F746060400        test word [bp+0x6],0x4
0000474D  7404              jz 0x4753
0000474F  81C20002          add dx,0x200
00004753  395429            cmp [si+0x29],dx
00004756  7606              jna 0x475e
00004758  C7050000          mov word [di],0x0
0000475C  EB0F              jmp short 0x476d
0000475E  395425            cmp [si+0x25],dx
00004761  7606              jna 0x4769
00004763  C7050100          mov word [di],0x1
00004767  EB04              jmp short 0x476d
00004769  C7055000          mov word [di],0x50
0000476D  8B4429            mov ax,[si+0x29]
00004770  48                dec ax
00004771  23D0              and dx,ax
00004773  8BD9              mov bx,cx
00004775  0117              add [bx],dx
00004777  83570200          adc word [bx+0x2],byte +0x0
0000477B  5F                pop di
0000477C  5E                pop si
0000477D  5D                pop bp
0000477E  C20800            ret 0x8
00004781  55                push bp
00004782  8BEC              mov bp,sp
00004784  56                push si
00004785  8B7604            mov si,[bp+0x4]
00004788  B013              mov al,0x13
0000478A  50                push ax
0000478B  56                push si
0000478C  8B1C              mov bx,[si]
0000478E  FF571E            call near [bx+0x1e]
00004791  F744390400        test word [si+0x39],0x4
00004796  740B              jz 0x47a3
00004798  C45C3B            les bx,[si+0x3b]
0000479B  8A4606            mov al,[bp+0x6]
0000479E  2688870D10        mov [es:bx+0x100d],al
000047A3  C45C3F            les bx,[si+0x3f]
000047A6  8A4606            mov al,[bp+0x6]
000047A9  268807            mov [es:bx],al
000047AC  F744390800        test word [si+0x39],0x8
000047B1  7408              jz 0x47bb
000047B3  C45C3B            les bx,[si+0x3b]
000047B6  2688871E10        mov [es:bx+0x101e],al
000047BB  B011              mov al,0x11
000047BD  50                push ax
000047BE  56                push si
000047BF  8B1C              mov bx,[si]
000047C1  FF571E            call near [bx+0x1e]
000047C4  5E                pop si
000047C5  5D                pop bp
000047C6  C20400            ret 0x4
000047C9  55                push bp
000047CA  8BEC              mov bp,sp
000047CC  56                push si
000047CD  8B7604            mov si,[bp+0x4]
000047D0  8B440E            mov ax,[si+0xe]
000047D3  8B540C            mov dx,[si+0xc]
000047D6  83C2FF            add dx,byte -0x1
000047D9  15FFFF            adc ax,0xffff
000047DC  215606            and [bp+0x6],dx
000047DF  214608            and [bp+0x8],ax
000047E2  F744390100        test word [si+0x39],0x1
000047E7  7420              jz 0x4809
000047E9  8B5608            mov dx,[bp+0x8]
000047EC  8B4606            mov ax,[bp+0x6]
000047EF  B109              mov cl,0x9
000047F1  E8DB32            call 0x7acf
000047F4  B108              mov cl,0x8
000047F6  E8B532            call 0x7aae
000047F9  8A5E06            mov bl,[bp+0x6]
000047FC  B700              mov bh,0x0
000047FE  0BC3              or ax,bx
00004800  83CA00            or dx,byte +0x0
00004803  895608            mov [bp+0x8],dx
00004806  894606            mov [bp+0x6],ax
00004809  B015              mov al,0x15
0000480B  50                push ax
0000480C  56                push si
0000480D  8B1C              mov bx,[si]
0000480F  FF571E            call near [bx+0x1e]
00004812  F744390400        test word [si+0x39],0x4
00004817  7467              jz 0x4880
00004819  C45C3B            les bx,[si+0x3b]
0000481C  8A4606            mov al,[bp+0x6]
0000481F  2688870D10        mov [es:bx+0x100d],al
00004824  C45C3F            les bx,[si+0x3f]
00004827  268807            mov [es:bx],al
0000482A  8B5608            mov dx,[bp+0x8]
0000482D  8B4606            mov ax,[bp+0x6]
00004830  B108              mov cl,0x8
00004832  E89A32            call 0x7acf
00004835  C45C3B            les bx,[si+0x3b]
00004838  2688870D10        mov [es:bx+0x100d],al
0000483D  8B5608            mov dx,[bp+0x8]
00004840  8B4606            mov ax,[bp+0x6]
00004843  B108              mov cl,0x8
00004845  E88732            call 0x7acf
00004848  C45C3F            les bx,[si+0x3f]
0000484B  268807            mov [es:bx],al
0000484E  8B4608            mov ax,[bp+0x8]
00004851  99                cwd
00004852  C45C3B            les bx,[si+0x3b]
00004855  2688870D10        mov [es:bx+0x100d],al
0000485A  8B4608            mov ax,[bp+0x8]
0000485D  99                cwd
0000485E  C45C3F            les bx,[si+0x3f]
00004861  268807            mov [es:bx],al
00004864  F744391000        test word [si+0x39],0x10
00004869  744E              jz 0x48b9
0000486B  8B5608            mov dx,[bp+0x8]
0000486E  8B4606            mov ax,[bp+0x6]
00004871  B118              mov cl,0x18
00004873  E85932            call 0x7acf
00004876  C45C3B            les bx,[si+0x3b]
00004879  2688870D10        mov [es:bx+0x100d],al
0000487E  EB28              jmp short 0x48a8
00004880  C45C3F            les bx,[si+0x3f]
00004883  8A4606            mov al,[bp+0x6]
00004886  268807            mov [es:bx],al
00004889  8B5608            mov dx,[bp+0x8]
0000488C  8B4606            mov ax,[bp+0x6]
0000488F  B108              mov cl,0x8
00004891  E83B32            call 0x7acf
00004894  C45C3F            les bx,[si+0x3f]
00004897  268807            mov [es:bx],al
0000489A  8B4608            mov ax,[bp+0x8]
0000489D  99                cwd
0000489E  268807            mov [es:bx],al
000048A1  F744391000        test word [si+0x39],0x10
000048A6  7411              jz 0x48b9
000048A8  8B5608            mov dx,[bp+0x8]
000048AB  8B4606            mov ax,[bp+0x6]
000048AE  B118              mov cl,0x18
000048B0  E81C32            call 0x7acf
000048B3  C45C3F            les bx,[si+0x3f]
000048B6  268807            mov [es:bx],al
000048B9  F744390800        test word [si+0x39],0x8
000048BE  7409              jz 0x48c9
000048C0  C45C3B            les bx,[si+0x3b]
000048C3  26C6871E1000      mov byte [es:bx+0x101e],0x0
000048C9  B031              mov al,0x31
000048CB  50                push ax
000048CC  56                push si
000048CD  8B1C              mov bx,[si]
000048CF  FF571E            call near [bx+0x1e]
000048D2  5E                pop si
000048D3  5D                pop bp
000048D4  C20600            ret 0x6
000048D7  55                push bp
000048D8  8BEC              mov bp,sp
000048DA  56                push si
000048DB  8B7604            mov si,[bp+0x4]
000048DE  8A460A            mov al,[bp+0xa]
000048E1  50                push ax
000048E2  56                push si
000048E3  E89BFE            call 0x4781
000048E6  FF7608            push word [bp+0x8]
000048E9  FF7606            push word [bp+0x6]
000048EC  56                push si
000048ED  E8D9FE            call 0x47c9
000048F0  56                push si
000048F1  E888FD            call 0x467c
000048F4  5E                pop si
000048F5  5D                pop bp
000048F6  C20800            ret 0x8
000048F9  55                push bp
000048FA  8BEC              mov bp,sp
000048FC  56                push si
000048FD  8B7604            mov si,[bp+0x4]
00004900  F744390200        test word [si+0x39],0x2
00004905  740B              jz 0x4912
00004907  B0FF              mov al,0xff
00004909  50                push ax
0000490A  56                push si
0000490B  E873FE            call 0x4781
0000490E  56                push si
0000490F  E86AFD            call 0x467c
00004912  8A460A            mov al,[bp+0xa]
00004915  50                push ax
00004916  56                push si
00004917  E867FE            call 0x4781
0000491A  B080              mov al,0x80
0000491C  50                push ax
0000491D  56                push si
0000491E  E860FE            call 0x4781
00004921  FF7608            push word [bp+0x8]
00004924  FF7606            push word [bp+0x6]
00004927  56                push si
00004928  E89EFE            call 0x47c9
0000492B  56                push si
0000492C  E84DFD            call 0x467c
0000492F  5E                pop si
00004930  5D                pop bp
00004931  C20800            ret 0x8
00004934  55                push bp
00004935  8BEC              mov bp,sp
00004937  56                push si
00004938  8B7604            mov si,[bp+0x4]
0000493B  B010              mov al,0x10
0000493D  50                push ax
0000493E  56                push si
0000493F  E83FFE            call 0x4781
00004942  56                push si
00004943  E836FD            call 0x467c
00004946  56                push si
00004947  E83400            call 0x497e
0000494A  A801              test al,0x1
0000494C  7405              jz 0x4953
0000494E  B80B00            mov ax,0xb
00004951  EB02              jmp short 0x4955
00004953  33C0              xor ax,ax
00004955  5E                pop si
00004956  5D                pop bp
00004957  C20200            ret 0x2
0000495A  55                push bp
0000495B  8BEC              mov bp,sp
0000495D  8B5604            mov dx,[bp+0x4]
00004960  B80600            mov ax,0x6
00004963  50                push ax
00004964  8BDA              mov bx,dx
00004966  8B473B            mov ax,[bx+0x3b]
00004969  051010            add ax,0x1010
0000496C  FF773D            push word [bx+0x3d]
0000496F  50                push ax
00004970  1E                push ds
00004971  FF7606            push word [bp+0x6]
00004974  E8CB2A            call 0x7442
00004977  83C40A            add sp,byte +0xa
0000497A  5D                pop bp
0000497B  C20400            ret 0x4
0000497E  55                push bp
0000497F  8BEC              mov bp,sp
00004981  83EC02            sub sp,byte +0x2
00004984  56                push si
00004985  8B7604            mov si,[bp+0x4]
00004988  B070              mov al,0x70
0000498A  50                push ax
0000498B  56                push si
0000498C  E8F2FD            call 0x4781
0000498F  C45C3B            les bx,[si+0x3b]
00004992  268A870D10        mov al,[es:bx+0x100d]
00004997  00060059          add [0x5900],al
0000499B  C45C3F            les bx,[si+0x3f]
0000499E  268A07            mov al,[es:bx]
000049A1  8846FF            mov [bp-0x1],al
000049A4  B018              mov al,0x18
000049A6  50                push ax
000049A7  56                push si
000049A8  8B1C              mov bx,[si]
000049AA  FF571E            call near [bx+0x1e]
000049AD  8A46FF            mov al,[bp-0x1]
000049B0  5E                pop si
000049B1  8BE5              mov sp,bp
000049B3  5D                pop bp
000049B4  C20200            ret 0x2
000049B7  55                push bp
000049B8  8BEC              mov bp,sp
000049BA  8B4604            mov ax,[bp+0x4]
000049BD  8BD8              mov bx,ax
000049BF  C45F3B            les bx,[bx+0x3b]
000049C2  26C687061000      mov byte [es:bx+0x1006],0x0
000049C8  8BD8              mov bx,ax
000049CA  8B5F3B            mov bx,[bx+0x3b]
000049CD  26C68706100A      mov byte [es:bx+0x1006],0xa
000049D3  5D                pop bp
000049D4  C20200            ret 0x2
000049D7  55                push bp
000049D8  8BEC              mov bp,sp
000049DA  8B4604            mov ax,[bp+0x4]
000049DD  8BD8              mov bx,ax
000049DF  C45F3B            les bx,[bx+0x3b]
000049E2  26C687061000      mov byte [es:bx+0x1006],0x0
000049E8  8BD8              mov bx,ax
000049EA  8B5F3B            mov bx,[bx+0x3b]
000049ED  26C68706102A      mov byte [es:bx+0x1006],0x2a
000049F3  5D                pop bp
000049F4  C20200            ret 0x2
000049F7  55                push bp
000049F8  8BEC              mov bp,sp
000049FA  8B4604            mov ax,[bp+0x4]
000049FD  8BD8              mov bx,ax
000049FF  C45F3B            les bx,[bx+0x3b]
00004A02  26C687061002      mov byte [es:bx+0x1006],0x2
00004A08  5D                pop bp
00004A09  C20200            ret 0x2
00004A0C  55                push bp
00004A0D  8BEC              mov bp,sp
00004A0F  56                push si
00004A10  8B7604            mov si,[bp+0x4]
00004A13  F744390800        test word [si+0x39],0x8
00004A18  741E              jz 0x4a38
00004A1A  33D2              xor dx,dx
00004A1C  C45C3B            les bx,[si+0x3b]
00004A1F  268A870610        mov al,[es:bx+0x1006]
00004A24  00060059          add [0x5900],al
00004A28  42                inc dx
00004A29  83FA02            cmp dx,byte +0x2
00004A2C  7CEE              jl 0x4a1c
00004A2E  C45C3B            les bx,[si+0x3b]
00004A31  268A870610        mov al,[es:bx+0x1006]
00004A36  EB1C              jmp short 0x4a54
00004A38  33D2              xor dx,dx
00004A3A  C45C3B            les bx,[si+0x3b]
00004A3D  268A870710        mov al,[es:bx+0x1007]
00004A42  00060059          add [0x5900],al
00004A46  42                inc dx
00004A47  83FA02            cmp dx,byte +0x2
00004A4A  7CEE              jl 0x4a3a
00004A4C  C45C3B            les bx,[si+0x3b]
00004A4F  268A870710        mov al,[es:bx+0x1007]
00004A54  B400              mov ah,0x0
00004A56  258000            and ax,0x80
00004A59  5E                pop si
00004A5A  5D                pop bp
00004A5B  C20200            ret 0x2
00004A5E  55                push bp
00004A5F  8BEC              mov bp,sp
00004A61  8B4604            mov ax,[bp+0x4]
00004A64  8BD8              mov bx,ax
00004A66  C45F3B            les bx,[bx+0x3b]
00004A69  26C6873F1036      mov byte [es:bx+0x103f],0x36
00004A6F  8BD8              mov bx,ax
00004A71  8B5F3B            mov bx,[bx+0x3b]
00004A74  26C6873F1063      mov byte [es:bx+0x103f],0x63
00004A7A  B8E803            mov ax,0x3e8
00004A7D  50                push ax
00004A7E  E80400            call 0x4a85
00004A81  5D                pop bp
00004A82  C20200            ret 0x2
00004A85  55                push bp
00004A86  8BEC              mov bp,sp
00004A88  83EC08            sub sp,byte +0x8
00004A8B  833E025900        cmp word [0x5902],byte +0x0
00004A90  7506              jnz 0x4a98
00004A92  C70602590100      mov word [0x5902],0x1
00004A98  8B5E04            mov bx,[bp+0x4]
00004A9B  33C9              xor cx,cx
00004A9D  B85209            mov ax,0x952
00004AA0  33D2              xor dx,dx
00004AA2  F7360259          div word [0x5902]
00004AA6  33D2              xor dx,dx
00004AA8  E8B630            call 0x7b61
00004AAB  8956FE            mov [bp-0x2],dx
00004AAE  8946FC            mov [bp-0x4],ax
00004AB1  C746FA0000        mov word [bp-0x6],0x0
00004AB6  C746F80000        mov word [bp-0x8],0x0
00004ABB  EB08              jmp short 0x4ac5
00004ABD  8346F801          add word [bp-0x8],byte +0x1
00004AC1  8356FA00          adc word [bp-0x6],byte +0x0
00004AC5  8B46FA            mov ax,[bp-0x6]
00004AC8  8B56F8            mov dx,[bp-0x8]
00004ACB  3B46FE            cmp ax,[bp-0x2]
00004ACE  7CED              jl 0x4abd
00004AD0  7505              jnz 0x4ad7
00004AD2  3B56FC            cmp dx,[bp-0x4]
00004AD5  72E6              jc 0x4abd
00004AD7  8BE5              mov sp,bp
00004AD9  5D                pop bp
00004ADA  C20200            ret 0x2
00004ADD  B8B80E            mov ax,0xeb8
00004AE0  50                push ax
00004AE1  B84E58            mov ax,0x584e
00004AE4  50                push ax
00004AE5  E83A19            call 0x6422
00004AE8  C3                ret
00004AE9  55                push bp
00004AEA  8BEC              mov bp,sp
00004AEC  8B4604            mov ax,[bp+0x4]
00004AEF  5D                pop bp
00004AF0  C20400            ret 0x4
00004AF3  55                push bp
00004AF4  8BEC              mov bp,sp
00004AF6  83EC04            sub sp,byte +0x4
00004AF9  56                push si
00004AFA  57                push di
00004AFB  8B7E08            mov di,[bp+0x8]
00004AFE  8B7604            mov si,[bp+0x4]
00004B01  0BF6              or si,si
00004B03  7511              jnz 0x4b16
00004B05  B84600            mov ax,0x46
00004B08  50                push ax
00004B09  E81D30            call 0x7b29
00004B0C  59                pop cx
00004B0D  8BF0              mov si,ax
00004B0F  0BC0              or ax,ax
00004B11  7503              jnz 0x4b16
00004B13  E9CF00            jmp 0x4be5
00004B16  FF7502            push word [di+0x2]
00004B19  56                push si
00004B1A  E83C1A            call 0x6559
00004B1D  C7048858          mov word [si],0x5888
00004B21  897C04            mov [si+0x4],di
00004B24  C7442E0000        mov word [si+0x2e],0x0
00004B29  C744300000        mov word [si+0x30],0x0
00004B2E  8B5C04            mov bx,[si+0x4]
00004B31  837F0400          cmp word [bx+0x4],byte +0x0
00004B35  7406              jz 0x4b3d
00004B37  8B4704            mov ax,[bx+0x4]
00004B3A  E9A500            jmp 0x4be2
00004B3D  C746FE0000        mov word [bp-0x2],0x0
00004B42  C746FC0100        mov word [bp-0x4],0x1
00004B47  C744200000        mov word [si+0x20],0x0
00004B4C  EB13              jmp short 0x4b61
00004B4E  FF4420            inc word [si+0x20]
00004B51  8B46FE            mov ax,[bp-0x2]
00004B54  8B56FC            mov dx,[bp-0x4]
00004B57  D1E2              shl dx,1
00004B59  D1D0              rcl ax,1
00004B5B  8946FE            mov [bp-0x2],ax
00004B5E  8956FC            mov [bp-0x4],dx
00004B61  8B5C04            mov bx,[si+0x4]
00004B64  8B470A            mov ax,[bx+0xa]
00004B67  8B5708            mov dx,[bx+0x8]
00004B6A  3B46FE            cmp ax,[bp-0x2]
00004B6D  7FDF              jg 0x4b4e
00004B6F  7505              jnz 0x4b76
00004B71  3B56FC            cmp dx,[bp-0x4]
00004B74  77D8              ja 0x4b4e
00004B76  8B4420            mov ax,[si+0x20]
00004B79  894410            mov [si+0x10],ax
00004B7C  8B5C04            mov bx,[si+0x4]
00004B7F  8B4710            mov ax,[bx+0x10]
00004B82  99                cwd
00004B83  50                push ax
00004B84  52                push dx
00004B85  8B570E            mov dx,[bx+0xe]
00004B88  8B470C            mov ax,[bx+0xc]
00004B8B  59                pop cx
00004B8C  5B                pop bx
00004B8D  E8D12F            call 0x7b61
00004B90  8A4C10            mov cl,[si+0x10]
00004B93  E8392F            call 0x7acf
00004B96  89440C            mov [si+0xc],ax
00004B99  EB06              jmp short 0x4ba1
00004B9B  FF4410            inc word [si+0x10]
00004B9E  D16C0C            shr word [si+0xc],1
00004BA1  8B440C            mov ax,[si+0xc]
00004BA4  050002            add ax,0x200
00004BA7  33D2              xor dx,dx
00004BA9  8A4C10            mov cl,[si+0x10]
00004BAC  50                push ax
00004BAD  52                push dx
00004BAE  B80100            mov ax,0x1
00004BB1  E8FA2E            call 0x7aae
00004BB4  5B                pop bx
00004BB5  3BDA              cmp bx,dx
00004BB7  5A                pop dx
00004BB8  7FE1              jg 0x4b9b
00004BBA  7504              jnz 0x4bc0
00004BBC  3BD0              cmp dx,ax
00004BBE  77DB              ja 0x4b9b
00004BC0  817C0C0030        cmp word [si+0xc],0x3000
00004BC5  720C              jc 0x4bd3
00004BC7  837C100F          cmp word [si+0x10],byte +0xf
00004BCB  7306              jnc 0x4bd3
00004BCD  FF4410            inc word [si+0x10]
00004BD0  D16C0C            shr word [si+0xc],1
00004BD3  C744160100        mov word [si+0x16],0x1
00004BD8  837E0600          cmp word [bp+0x6],byte +0x0
00004BDC  7407              jz 0x4be5
00004BDE  56                push si
00004BDF  E80105            call 0x50e3
00004BE2  894406            mov [si+0x6],ax
00004BE5  8BC6              mov ax,si
00004BE7  5F                pop di
00004BE8  5E                pop si
00004BE9  8BE5              mov sp,bp
00004BEB  5D                pop bp
00004BEC  C20600            ret 0x6
00004BEF  55                push bp
00004BF0  8BEC              mov bp,sp
00004BF2  56                push si
00004BF3  57                push di
00004BF4  8B7E06            mov di,[bp+0x6]
00004BF7  8B7604            mov si,[bp+0x4]
00004BFA  0BF6              or si,si
00004BFC  7424              jz 0x4c22
00004BFE  C7048858          mov word [si],0x5888
00004C02  FF742E            push word [si+0x2e]
00004C05  E8EC2D            call 0x79f4
00004C08  59                pop cx
00004C09  FF7430            push word [si+0x30]
00004C0C  E8E52D            call 0x79f4
00004C0F  59                pop cx
00004C10  33C0              xor ax,ax
00004C12  50                push ax
00004C13  56                push si
00004C14  E89819            call 0x65af
00004C17  F7C70100          test di,0x1
00004C1B  7405              jz 0x4c22
00004C1D  56                push si
00004C1E  E8D32D            call 0x79f4
00004C21  59                pop cx
00004C22  5F                pop di
00004C23  5E                pop si
00004C24  5D                pop bp
00004C25  C20400            ret 0x4
00004C28  55                push bp
00004C29  8BEC              mov bp,sp
00004C2B  56                push si
00004C2C  8B7604            mov si,[bp+0x4]
00004C2F  8B4606            mov ax,[bp+0x6]
00004C32  33D2              xor dx,dx
00004C34  8A4C10            mov cl,[si+0x10]
00004C37  E8742E            call 0x7aae
00004C3A  5E                pop si
00004C3B  5D                pop bp
00004C3C  C20400            ret 0x4
00004C3F  55                push bp
00004C40  8BEC              mov bp,sp
00004C42  83EC04            sub sp,byte +0x4
00004C45  56                push si
00004C46  8B7604            mov si,[bp+0x4]
00004C49  8B4608            mov ax,[bp+0x8]
00004C4C  8B5606            mov dx,[bp+0x6]
00004C4F  83C206            add dx,byte +0x6
00004C52  150000            adc ax,0x0
00004C55  50                push ax
00004C56  52                push dx
00004C57  16                push ss
00004C58  8D46FE            lea ax,[bp-0x2]
00004C5B  50                push ax
00004C5C  B80200            mov ax,0x2
00004C5F  50                push ax
00004C60  B80400            mov ax,0x4
00004C63  50                push ax
00004C64  FF7404            push word [si+0x4]
00004C67  8B5C04            mov bx,[si+0x4]
00004C6A  8B1F              mov bx,[bx]
00004C6C  FF5702            call near [bx+0x2]
00004C6F  8A56FE            mov dl,[bp-0x2]
00004C72  0A56FF            or dl,[bp-0x1]
00004C75  8AC2              mov al,dl
00004C77  B400              mov ah,0x0
00004C79  8946FC            mov [bp-0x4],ax
00004C7C  B90400            mov cx,0x4
00004C7F  BBA224            mov bx,0x24a2
00004C82  2E8B07            mov ax,[cs:bx]
00004C85  3B46FC            cmp ax,[bp-0x4]
00004C88  7407              jz 0x4c91
00004C8A  83C302            add bx,byte +0x2
00004C8D  E2F3              loop 0x4c82
00004C8F  EB06              jmp short 0x4c97
00004C91  2EFF6708          jmp near [cs:bx+0x8]
00004C95  EB02              jmp short 0x4c99
00004C97  B211              mov dl,0x11
00004C99  8AC2              mov al,dl
00004C9B  5E                pop si
00004C9C  8BE5              mov sp,bp
00004C9E  5D                pop bp
00004C9F  C20600            ret 0x6
00004CA2  0000              add [bx+si],al
00004CA4  1100              adc [bx+si],ax
00004CA6  55                push bp
00004CA7  00FF              add bh,bh
00004CA9  00992499          add [bx+di+0x9924],bl
00004CAD  2499              and al,0x99
00004CAF  2499              and al,0x99
00004CB1  2455              and al,0x55
00004CB3  8BEC              mov bp,sp
00004CB5  83EC04            sub sp,byte +0x4
00004CB8  56                push si
00004CB9  8B7604            mov si,[bp+0x4]
00004CBC  FF7606            push word [bp+0x6]
00004CBF  56                push si
00004CC0  E865FF            call 0x4c28
00004CC3  050804            add ax,0x408
00004CC6  83D200            adc dx,byte +0x0
00004CC9  52                push dx
00004CCA  50                push ax
00004CCB  16                push ss
00004CCC  8D46FC            lea ax,[bp-0x4]
00004CCF  50                push ax
00004CD0  B80400            mov ax,0x4
00004CD3  50                push ax
00004CD4  50                push ax
00004CD5  FF7404            push word [si+0x4]
00004CD8  8B5C04            mov bx,[si+0x4]
00004CDB  8B1F              mov bx,[bx]
00004CDD  FF5702            call near [bx+0x2]
00004CE0  8B46FC            mov ax,[bp-0x4]
00004CE3  0B46FE            or ax,[bp-0x2]
00004CE6  5E                pop si
00004CE7  8BE5              mov sp,bp
00004CE9  5D                pop bp
00004CEA  C20400            ret 0x4
00004CED  55                push bp
00004CEE  8BEC              mov bp,sp
00004CF0  56                push si
00004CF1  57                push di
00004CF2  8B7E06            mov di,[bp+0x6]
00004CF5  8B7604            mov si,[bp+0x4]
00004CF8  FF7608            push word [bp+0x8]
00004CFB  56                push si
00004CFC  E829FF            call 0x4c28
00004CFF  050800            add ax,0x8
00004D02  83D200            adc dx,byte +0x0
00004D05  52                push dx
00004D06  50                push ax
00004D07  1E                push ds
00004D08  57                push di
00004D09  B80800            mov ax,0x8
00004D0C  50                push ax
00004D0D  B80400            mov ax,0x4
00004D10  50                push ax
00004D11  FF7404            push word [si+0x4]
00004D14  8B5C04            mov bx,[si+0x4]
00004D17  8B1F              mov bx,[bx]
00004D19  FF5702            call near [bx+0x2]
00004D1C  8B4504            mov ax,[di+0x4]
00004D1F  0905              or [di],ax
00004D21  8B4506            mov ax,[di+0x6]
00004D24  094502            or [di+0x2],ax
00004D27  FF7502            push word [di+0x2]
00004D2A  56                push si
00004D2B  E8CD12            call 0x5ffb
00004D2E  0BC0              or ax,ax
00004D30  750C              jnz 0x4d3e
00004D32  FF7608            push word [bp+0x8]
00004D35  56                push si
00004D36  E8E212            call 0x601b
00004D39  C74502FFFF        mov word [di+0x2],0xffff
00004D3E  5F                pop di
00004D3F  5E                pop si
00004D40  5D                pop bp
00004D41  C20600            ret 0x6
00004D44  55                push bp
00004D45  8BEC              mov bp,sp
00004D47  56                push si
00004D48  57                push di
00004D49  8B7E06            mov di,[bp+0x6]
00004D4C  8B7604            mov si,[bp+0x4]
00004D4F  FF7608            push word [bp+0x8]
00004D52  56                push si
00004D53  E8D2FE            call 0x4c28
00004D56  050802            add ax,0x208
00004D59  83D200            adc dx,byte +0x0
00004D5C  52                push dx
00004D5D  50                push ax
00004D5E  1E                push ds
00004D5F  57                push di
00004D60  B80800            mov ax,0x8
00004D63  50                push ax
00004D64  B80400            mov ax,0x4
00004D67  50                push ax
00004D68  FF7404            push word [si+0x4]
00004D6B  8B5C04            mov bx,[si+0x4]
00004D6E  8B1F              mov bx,[bx]
00004D70  FF5702            call near [bx+0x2]
00004D73  8B4506            mov ax,[di+0x6]
00004D76  094504            or [di+0x4],ax
00004D79  5F                pop di
00004D7A  5E                pop si
00004D7B  5D                pop bp
00004D7C  C20600            ret 0x6
00004D7F  55                push bp
00004D80  8BEC              mov bp,sp
00004D82  83EC0A            sub sp,byte +0xa
00004D85  56                push si
00004D86  57                push di
00004D87  8B7E06            mov di,[bp+0x6]
00004D8A  8B7604            mov si,[bp+0x4]
00004D8D  8B05              mov ax,[di]
00004D8F  894504            mov [di+0x4],ax
00004D92  8B4502            mov ax,[di+0x2]
00004D95  894506            mov [di+0x6],ax
00004D98  3B4608            cmp ax,[bp+0x8]
00004D9B  7505              jnz 0x4da2
00004D9D  B80D00            mov ax,0xd
00004DA0  EB4F              jmp short 0x4df1
00004DA2  FF7608            push word [bp+0x8]
00004DA5  56                push si
00004DA6  E87FFE            call 0x4c28
00004DA9  050800            add ax,0x8
00004DAC  83D200            adc dx,byte +0x0
00004DAF  52                push dx
00004DB0  50                push ax
00004DB1  1E                push ds
00004DB2  57                push di
00004DB3  B80800            mov ax,0x8
00004DB6  50                push ax
00004DB7  B80400            mov ax,0x4
00004DBA  50                push ax
00004DBB  FF7404            push word [si+0x4]
00004DBE  8B5C04            mov bx,[si+0x4]
00004DC1  8B1F              mov bx,[bx]
00004DC3  FF5704            call near [bx+0x4]
00004DC6  8946FE            mov [bp-0x2],ax
00004DC9  837EFE00          cmp word [bp-0x2],byte +0x0
00004DCD  751F              jnz 0x4dee
00004DCF  FF7608            push word [bp+0x8]
00004DD2  8D46F6            lea ax,[bp-0xa]
00004DD5  50                push ax
00004DD6  56                push si
00004DD7  E813FF            call 0x4ced
00004DDA  8B05              mov ax,[di]
00004DDC  3B46F6            cmp ax,[bp-0xa]
00004DDF  7508              jnz 0x4de9
00004DE1  8B4502            mov ax,[di+0x2]
00004DE4  3B46F8            cmp ax,[bp-0x8]
00004DE7  7405              jz 0x4dee
00004DE9  B80B00            mov ax,0xb
00004DEC  EB03              jmp short 0x4df1
00004DEE  8B46FE            mov ax,[bp-0x2]
00004DF1  5F                pop di
00004DF2  5E                pop si
00004DF3  8BE5              mov sp,bp
00004DF5  5D                pop bp
00004DF6  C20600            ret 0x6
00004DF9  55                push bp
00004DFA  8BEC              mov bp,sp
00004DFC  83EC08            sub sp,byte +0x8
00004DFF  56                push si
00004E00  57                push di
00004E01  8B5608            mov dx,[bp+0x8]
00004E04  8B7E06            mov di,[bp+0x6]
00004E07  8B7604            mov si,[bp+0x4]
00004E0A  8B5C2E            mov bx,[si+0x2e]
00004E0D  03DA              add bx,dx
00004E0F  8A07              mov al,[bx]
00004E11  B400              mov ah,0x0
00004E13  A98000            test ax,0x80
00004E16  7505              jnz 0x4e1d
00004E18  B8FFFF            mov ax,0xffff
00004E1B  EB28              jmp short 0x4e45
00004E1D  52                push dx
00004E1E  8D46F8            lea ax,[bp-0x8]
00004E21  50                push ax
00004E22  56                push si
00004E23  E8C7FE            call 0x4ced
00004E26  8B46F8            mov ax,[bp-0x8]
00004E29  25FF7F            and ax,0x7fff
00004E2C  3BC7              cmp ax,di
00004E2E  7412              jz 0x4e42
00004E30  8BC7              mov ax,di
00004E32  D1E0              shl ax,1
00004E34  8B5C30            mov bx,[si+0x30]
00004E37  03D8              add bx,ax
00004E39  8B17              mov dx,[bx]
00004E3B  52                push dx
00004E3C  56                push si
00004E3D  E8DB11            call 0x601b
00004E40  EBD6              jmp short 0x4e18
00004E42  8B46FA            mov ax,[bp-0x6]
00004E45  5F                pop di
00004E46  5E                pop si
00004E47  8BE5              mov sp,bp
00004E49  5D                pop bp
00004E4A  C20600            ret 0x6
00004E4D  55                push bp
00004E4E  8BEC              mov bp,sp
00004E50  83EC0E            sub sp,byte +0xe
00004E53  56                push si
00004E54  57                push di
00004E55  8B7604            mov si,[bp+0x4]
00004E58  33C0              xor ax,ax
00004E5A  50                push ax
00004E5B  FF742A            push word [si+0x2a]
00004E5E  FF7608            push word [bp+0x8]
00004E61  FF7606            push word [bp+0x6]
00004E64  E8A82B            call 0x7a0f
00004E67  B109              mov cl,0x9
00004E69  D3E0              shl ax,cl
00004E6B  8946FE            mov [bp-0x2],ax
00004E6E  C746FCFFFF        mov word [bp-0x4],0xffff
00004E73  C746FAFFFF        mov word [bp-0x6],0xffff
00004E78  C746F60000        mov word [bp-0xa],0x0
00004E7D  33C0              xor ax,ax
00004E7F  50                push ax
00004E80  FF742A            push word [si+0x2a]
00004E83  FF7608            push word [bp+0x8]
00004E86  FF7606            push word [bp+0x6]
00004E89  E8742B            call 0x7a00
00004E8C  8946F8            mov [bp-0x8],ax
00004E8F  D1E0              shl ax,1
00004E91  8B5C30            mov bx,[si+0x30]
00004E94  03D8              add bx,ax
00004E96  8B3F              mov di,[bx]
00004E98  EB48              jmp short 0x4ee2
00004E9A  57                push di
00004E9B  56                push si
00004E9C  E889FD            call 0x4c28
00004E9F  0346FE            add ax,[bp-0x2]
00004EA2  83D200            adc dx,byte +0x0
00004EA5  8956F4            mov [bp-0xc],dx
00004EA8  8946F2            mov [bp-0xe],ax
00004EAB  52                push dx
00004EAC  50                push ax
00004EAD  56                push si
00004EAE  E88EFD            call 0x4c3f
00004EB1  8AD0              mov dl,al
00004EB3  80FAFF            cmp dl,0xff
00004EB6  7435              jz 0x4eed
00004EB8  80FA11            cmp dl,0x11
00004EBB  7418              jz 0x4ed5
00004EBD  0AD2              or dl,dl
00004EBF  7408              jz 0x4ec9
00004EC1  8B56F4            mov dx,[bp-0xc]
00004EC4  8B46F2            mov ax,[bp-0xe]
00004EC7  EB06              jmp short 0x4ecf
00004EC9  BAFFFF            mov dx,0xffff
00004ECC  B8FFFF            mov ax,0xffff
00004ECF  8956FC            mov [bp-0x4],dx
00004ED2  8946FA            mov [bp-0x6],ax
00004ED5  FF46F6            inc word [bp-0xa]
00004ED8  57                push di
00004ED9  FF76F8            push word [bp-0x8]
00004EDC  56                push si
00004EDD  E819FF            call 0x4df9
00004EE0  8BF8              mov di,ax
00004EE2  83FFFF            cmp di,byte -0x1
00004EE5  7406              jz 0x4eed
00004EE7  837EF628          cmp word [bp-0xa],byte +0x28
00004EEB  72AD              jc 0x4e9a
00004EED  8B56FC            mov dx,[bp-0x4]
00004EF0  8B46FA            mov ax,[bp-0x6]
00004EF3  5F                pop di
00004EF4  5E                pop si
00004EF5  8BE5              mov sp,bp
00004EF7  5D                pop bp
00004EF8  C20600            ret 0x6
00004EFB  55                push bp
00004EFC  8BEC              mov bp,sp
00004EFE  83EC16            sub sp,byte +0x16
00004F01  56                push si
00004F02  57                push di
00004F03  8B7E06            mov di,[bp+0x6]
00004F06  8B7604            mov si,[bp+0x4]
00004F09  57                push di
00004F0A  8D46F8            lea ax,[bp-0x8]
00004F0D  50                push ax
00004F0E  56                push si
00004F0F  E8DBFD            call 0x4ced
00004F12  57                push di
00004F13  8D46F0            lea ax,[bp-0x10]
00004F16  50                push ax
00004F17  56                push si
00004F18  E829FE            call 0x4d44
00004F1B  8B442E            mov ax,[si+0x2e]
00004F1E  03C7              add ax,di
00004F20  8946EE            mov [bp-0x12],ax
00004F23  837EF8FF          cmp word [bp-0x8],byte -0x1
00004F27  7407              jz 0x4f30
00004F29  817EF4693C        cmp word [bp-0xc],0x3c69
00004F2E  7409              jz 0x4f39
00004F30  8B5EEE            mov bx,[bp-0x12]
00004F33  C607FF            mov byte [bx],0xff
00004F36  E9AC00            jmp 0x4fe5
00004F39  8B5EEE            mov bx,[bp-0x12]
00004F3C  802710            and byte [bx],0x10
00004F3F  8B440C            mov ax,[si+0xc]
00004F42  3B46FA            cmp ax,[bp-0x6]
00004F45  7622              jna 0x4f69
00004F47  800F80            or byte [bx],0x80
00004F4A  FF76FA            push word [bp-0x6]
00004F4D  56                push si
00004F4E  E8E910            call 0x603a
00004F51  0BC0              or ax,ax
00004F53  750B              jnz 0x4f60
00004F55  FF76FA            push word [bp-0x6]
00004F58  56                push si
00004F59  E81211            call 0x606e
00004F5C  0BC0              or ax,ax
00004F5E  7409              jz 0x4f69
00004F60  8B5C2E            mov bx,[si+0x2e]
00004F63  035EFA            add bx,[bp-0x6]
00004F66  8027EF            and byte [bx],0xef
00004F69  F746F80080        test word [bp-0x8],0x8000
00004F6E  7575              jnz 0x4fe5
00004F70  8B4422            mov ax,[si+0x22]
00004F73  3B46F8            cmp ax,[bp-0x8]
00004F76  7705              ja 0x4f7d
00004F78  B80500            mov ax,0x5
00004F7B  EB6A              jmp short 0x4fe7
00004F7D  57                push di
00004F7E  56                push si
00004F7F  E830FD            call 0x4cb2
00004F82  8946EC            mov [bp-0x14],ax
00004F85  8B46F8            mov ax,[bp-0x8]
00004F88  D1E0              shl ax,1
00004F8A  8B5C30            mov bx,[si+0x30]
00004F8D  03D8              add bx,ax
00004F8F  8B07              mov ax,[bx]
00004F91  8946EA            mov [bp-0x16],ax
00004F94  817EEC1111        cmp word [bp-0x14],0x1111
00004F99  7441              jz 0x4fdc
00004F9B  837EEAFF          cmp word [bp-0x16],byte -0x1
00004F9F  740B              jz 0x4fac
00004FA1  FF76EA            push word [bp-0x16]
00004FA4  56                push si
00004FA5  E89210            call 0x603a
00004FA8  0BC0              or ax,ax
00004FAA  7529              jnz 0x4fd5
00004FAC  8B46F8            mov ax,[bp-0x8]
00004FAF  D1E0              shl ax,1
00004FB1  8B5C30            mov bx,[si+0x30]
00004FB4  03D8              add bx,ax
00004FB6  893F              mov [bx],di
00004FB8  8B5EEE            mov bx,[bp-0x12]
00004FBB  8027EF            and byte [bx],0xef
00004FBE  817EEC5555        cmp word [bp-0x14],0x5555
00004FC3  7505              jnz 0x4fca
00004FC5  57                push di
00004FC6  56                push si
00004FC7  E85110            call 0x601b
00004FCA  837EEAFF          cmp word [bp-0x16],byte -0x1
00004FCE  7415              jz 0x4fe5
00004FD0  FF76EA            push word [bp-0x16]
00004FD3  EB08              jmp short 0x4fdd
00004FD5  817EEC5555        cmp word [bp-0x14],0x5555
00004FDA  759C              jnz 0x4f78
00004FDC  57                push di
00004FDD  56                push si
00004FDE  E8FF04            call 0x54e0
00004FE1  EB02              jmp short 0x4fe5
00004FE3  EB93              jmp short 0x4f78
00004FE5  33C0              xor ax,ax
00004FE7  5F                pop di
00004FE8  5E                pop si
00004FE9  8BE5              mov sp,bp
00004FEB  5D                pop bp
00004FEC  C20400            ret 0x4
00004FEF  55                push bp
00004FF0  8BEC              mov bp,sp
00004FF2  83EC0A            sub sp,byte +0xa
00004FF5  56                push si
00004FF6  57                push di
00004FF7  8B7E04            mov di,[bp+0x4]
00004FFA  8B4606            mov ax,[bp+0x6]
00004FFD  D1E0              shl ax,1
00004FFF  8B5D30            mov bx,[di+0x30]
00005002  03D8              add bx,ax
00005004  8B07              mov ax,[bx]
00005006  8946FE            mov [bp-0x2],ax
00005009  837EFEFF          cmp word [bp-0x2],byte -0x1
0000500D  7478              jz 0x5087
0000500F  FF76FE            push word [bp-0x2]
00005012  57                push di
00005013  E82410            call 0x603a
00005016  0BC0              or ax,ax
00005018  746D              jz 0x5087
0000501A  FF76FE            push word [bp-0x2]
0000501D  33C0              xor ax,ax
0000501F  50                push ax
00005020  57                push di
00005021  E86310            call 0x6087
00005024  8B5E06            mov bx,[bp+0x6]
00005027  33C9              xor cx,cx
00005029  8B452A            mov ax,[di+0x2a]
0000502C  33D2              xor dx,dx
0000502E  E8302B            call 0x7b61
00005031  8956FC            mov [bp-0x4],dx
00005034  8946FA            mov [bp-0x6],ax
00005037  33F6              xor si,si
00005039  EB47              jmp short 0x5082
0000503B  FF76FC            push word [bp-0x4]
0000503E  FF76FA            push word [bp-0x6]
00005041  57                push di
00005042  E808FE            call 0x4e4d
00005045  8956F8            mov [bp-0x8],dx
00005048  8946F6            mov [bp-0xa],ax
0000504B  837EF8FF          cmp word [bp-0x8],byte -0x1
0000504F  7506              jnz 0x5057
00005051  837EF6FF          cmp word [bp-0xa],byte -0x1
00005055  7422              jz 0x5079
00005057  8A4D10            mov cl,[di+0x10]
0000505A  8B56F8            mov dx,[bp-0x8]
0000505D  8B46F6            mov ax,[bp-0xa]
00005060  E86C2A            call 0x7acf
00005063  8BD0              mov dx,ax
00005065  8B5D2E            mov bx,[di+0x2e]
00005068  03DA              add bx,dx
0000506A  F60780            test byte [bx],0x80
0000506D  7403              jz 0x5072
0000506F  8B56FE            mov dx,[bp-0x2]
00005072  8B5D2E            mov bx,[di+0x2e]
00005075  03DA              add bx,dx
00005077  FE07              inc byte [bx]
00005079  46                inc si
0000507A  8346FA01          add word [bp-0x6],byte +0x1
0000507E  8356FC00          adc word [bp-0x4],byte +0x0
00005082  39752A            cmp [di+0x2a],si
00005085  77B4              ja 0x503b
00005087  5F                pop di
00005088  5E                pop si
00005089  8BE5              mov sp,bp
0000508B  5D                pop bp
0000508C  C20400            ret 0x4
0000508F  55                push bp
00005090  8BEC              mov bp,sp
00005092  83EC08            sub sp,byte +0x8
00005095  56                push si
00005096  57                push di
00005097  8B7E06            mov di,[bp+0x6]
0000509A  8B7604            mov si,[bp+0x4]
0000509D  8B5C2E            mov bx,[si+0x2e]
000050A0  03DF              add bx,di
000050A2  C6076B            mov byte [bx],0x6b
000050A5  57                push di
000050A6  8D46F8            lea ax,[bp-0x8]
000050A9  50                push ax
000050AA  56                push si
000050AB  E896FC            call 0x4d44
000050AE  33C0              xor ax,ax
000050B0  8946FE            mov [bp-0x2],ax
000050B3  8946FC            mov [bp-0x4],ax
000050B6  57                push di
000050B7  56                push si
000050B8  E86DFB            call 0x4c28
000050BB  050802            add ax,0x208
000050BE  83D200            adc dx,byte +0x0
000050C1  52                push dx
000050C2  50                push ax
000050C3  16                push ss
000050C4  8D46F8            lea ax,[bp-0x8]
000050C7  50                push ax
000050C8  B80800            mov ax,0x8
000050CB  50                push ax
000050CC  B80400            mov ax,0x4
000050CF  50                push ax
000050D0  FF7404            push word [si+0x4]
000050D3  8B5C04            mov bx,[si+0x4]
000050D6  8B1F              mov bx,[bx]
000050D8  FF5704            call near [bx+0x4]
000050DB  5F                pop di
000050DC  5E                pop si
000050DD  8BE5              mov sp,bp
000050DF  5D                pop bp
000050E0  C20400            ret 0x4
000050E3  55                push bp
000050E4  8BEC              mov bp,sp
000050E6  83EC1E            sub sp,byte +0x1e
000050E9  56                push si
000050EA  57                push di
000050EB  8B7E04            mov di,[bp+0x4]
000050EE  C7451A0000        mov word [di+0x1a],0x0
000050F3  EB3B              jmp short 0x5130
000050F5  FF751A            push word [di+0x1a]
000050F8  57                push di
000050F9  E82CFB            call 0x4c28
000050FC  52                push dx
000050FD  50                push ax
000050FE  16                push ss
000050FF  8D46F0            lea ax,[bp-0x10]
00005102  50                push ax
00005103  B80E00            mov ax,0xe
00005106  50                push ax
00005107  33C0              xor ax,ax
00005109  50                push ax
0000510A  FF7504            push word [di+0x4]
0000510D  8B5D04            mov bx,[di+0x4]
00005110  8B1F              mov bx,[bx]
00005112  FF5702            call near [bx+0x2]
00005115  B80600            mov ax,0x6
00005118  50                push ax
00005119  1E                push ds
0000511A  B87C58            mov ax,0x587c
0000511D  50                push ax
0000511E  16                push ss
0000511F  8D46F0            lea ax,[bp-0x10]
00005122  50                push ax
00005123  E83723            call 0x745d
00005126  83C40A            add sp,byte +0xa
00005129  0BC0              or ax,ax
0000512B  740B              jz 0x5138
0000512D  FF451A            inc word [di+0x1a]
00005130  8B451A            mov ax,[di+0x1a]
00005133  3B450C            cmp ax,[di+0xc]
00005136  72BD              jc 0x50f5
00005138  8B451A            mov ax,[di+0x1a]
0000513B  3B450C            cmp ax,[di+0xc]
0000513E  7206              jc 0x5146
00005140  B80800            mov ax,0x8
00005143  E9A102            jmp 0x53e7
00005146  8B451A            mov ax,[di+0x1a]
00005149  40                inc ax
0000514A  89451C            mov [di+0x1c],ax
0000514D  EB3B              jmp short 0x518a
0000514F  FF751C            push word [di+0x1c]
00005152  57                push di
00005153  E8D2FA            call 0x4c28
00005156  52                push dx
00005157  50                push ax
00005158  16                push ss
00005159  8D46E2            lea ax,[bp-0x1e]
0000515C  50                push ax
0000515D  B80E00            mov ax,0xe
00005160  50                push ax
00005161  33C0              xor ax,ax
00005163  50                push ax
00005164  FF7504            push word [di+0x4]
00005167  8B5D04            mov bx,[di+0x4]
0000516A  8B1F              mov bx,[bx]
0000516C  FF5702            call near [bx+0x2]
0000516F  B80600            mov ax,0x6
00005172  50                push ax
00005173  1E                push ds
00005174  B88258            mov ax,0x5882
00005177  50                push ax
00005178  16                push ss
00005179  8D46E2            lea ax,[bp-0x1e]
0000517C  50                push ax
0000517D  E8DD22            call 0x745d
00005180  83C40A            add sp,byte +0xa
00005183  0BC0              or ax,ax
00005185  740B              jz 0x5192
00005187  FF451C            inc word [di+0x1c]
0000518A  8B451C            mov ax,[di+0x1c]
0000518D  3B450C            cmp ax,[di+0xc]
00005190  72BD              jc 0x514f
00005192  8B451C            mov ax,[di+0x1c]
00005195  3B450C            cmp ax,[di+0xc]
00005198  7205              jc 0x519f
0000519A  C7451CFFFF        mov word [di+0x1c],0xffff
0000519F  8B46F6            mov ax,[bp-0xa]
000051A2  89450C            mov [di+0xc],ax
000051A5  8B46F8            mov ax,[bp-0x8]
000051A8  89450E            mov [di+0xe],ax
000051AB  8B56FC            mov dx,[bp-0x4]
000051AE  8B46FA            mov ax,[bp-0x6]
000051B1  B109              mov cl,0x9
000051B3  E83929            call 0x7aef
000051B6  895514            mov [di+0x14],dx
000051B9  894512            mov [di+0x12],ax
000051BC  8B450E            mov ax,[di+0xe]
000051BF  01450C            add [di+0xc],ax
000051C2  8A4D10            mov cl,[di+0x10]
000051C5  33D2              xor dx,dx
000051C7  B80100            mov ax,0x1
000051CA  E8E128            call 0x7aae
000051CD  05FFFF            add ax,0xffff
000051D0  83D2FF            adc dx,byte -0x1
000051D3  895528            mov [di+0x28],dx
000051D6  894526            mov [di+0x26],ax
000051D9  8A4D10            mov cl,[di+0x10]
000051DC  80E909            sub cl,0x9
000051DF  B80100            mov ax,0x1
000051E2  D3E0              shl ax,cl
000051E4  89452A            mov [di+0x2a],ax
000051E7  33C0              xor ax,ax
000051E9  50                push ax
000051EA  FF752A            push word [di+0x2a]
000051ED  8B4514            mov ax,[di+0x14]
000051F0  8B5512            mov dx,[di+0x12]
000051F3  03552A            add dx,[di+0x2a]
000051F6  150000            adc ax,0x0
000051F9  83C2FF            add dx,byte -0x1
000051FC  15FFFF            adc ax,0xffff
000051FF  50                push ax
00005200  52                push dx
00005201  E8FC27            call 0x7a00
00005204  894522            mov [di+0x22],ax
00005207  8B5514            mov dx,[di+0x14]
0000520A  8B4512            mov ax,[di+0x12]
0000520D  8A4D10            mov cl,[di+0x10]
00005210  80E909            sub cl,0x9
00005213  E8B928            call 0x7acf
00005216  8B5D0C            mov bx,[di+0xc]
00005219  2B5D0E            sub bx,[di+0xe]
0000521C  0BD2              or dx,dx
0000521E  7C0C              jl 0x522c
00005220  7F04              jg 0x5226
00005222  3BC3              cmp ax,bx
00005224  7606              jna 0x522c
00005226  B80500            mov ax,0x5
00005229  E9BB01            jmp 0x53e7
0000522C  33C0              xor ax,ax
0000522E  50                push ax
0000522F  E8C129            call 0x7bf3
00005232  59                pop cx
00005233  8946FE            mov [bp-0x2],ax
00005236  FF750C            push word [di+0xc]
00005239  E8ED28            call 0x7b29
0000523C  59                pop cx
0000523D  89452E            mov [di+0x2e],ax
00005240  8B4522            mov ax,[di+0x22]
00005243  D1E0              shl ax,1
00005245  50                push ax
00005246  E8E028            call 0x7b29
00005249  59                pop cx
0000524A  894530            mov [di+0x30],ax
0000524D  837D2E00          cmp word [di+0x2e],byte +0x0
00005251  7420              jz 0x5273
00005253  837D3000          cmp word [di+0x30],byte +0x0
00005257  741A              jz 0x5273
00005259  833E365700        cmp word [0x5736],byte +0x0
0000525E  7620              jna 0x5280
00005260  33C0              xor ax,ax
00005262  50                push ax
00005263  E88D29            call 0x7bf3
00005266  59                pop cx
00005267  8B160157          mov dx,[0x5701]
0000526B  03163657          add dx,[0x5736]
0000526F  3BC2              cmp ax,dx
00005271  760D              jna 0x5280
00005273  FF76FE            push word [bp-0x2]
00005276  E86E29            call 0x7be7
00005279  59                pop cx
0000527A  B80A00            mov ax,0xa
0000527D  E96701            jmp 0x53e7
00005280  C745160000        mov word [di+0x16],0x0
00005285  FF751A            push word [di+0x1a]
00005288  57                push di
00005289  E89CF9            call 0x4c28
0000528C  050002            add ax,0x200
0000528F  83D200            adc dx,byte +0x0
00005292  52                push dx
00005293  50                push ax
00005294  1E                push ds
00005295  FF752E            push word [di+0x2e]
00005298  FF750C            push word [di+0xc]
0000529B  B80200            mov ax,0x2
0000529E  50                push ax
0000529F  FF7504            push word [di+0x4]
000052A2  8B5D04            mov bx,[di+0x4]
000052A5  8B1F              mov bx,[bx]
000052A7  FF5702            call near [bx+0x2]
000052AA  8BD0              mov dx,ax
000052AC  0BD2              or dx,dx
000052AE  742D              jz 0x52dd
000052B0  837D1CFF          cmp word [di+0x1c],byte -0x1
000052B4  7427              jz 0x52dd
000052B6  FF751C            push word [di+0x1c]
000052B9  57                push di
000052BA  E86BF9            call 0x4c28
000052BD  050002            add ax,0x200
000052C0  83D200            adc dx,byte +0x0
000052C3  52                push dx
000052C4  50                push ax
000052C5  1E                push ds
000052C6  FF752E            push word [di+0x2e]
000052C9  FF750C            push word [di+0xc]
000052CC  B80200            mov ax,0x2
000052CF  50                push ax
000052D0  FF7504            push word [di+0x4]
000052D3  8B5D04            mov bx,[di+0x4]
000052D6  8B1F              mov bx,[bx]
000052D8  FF5702            call near [bx+0x2]
000052DB  8BD0              mov dx,ax
000052DD  0BD2              or dx,dx
000052DF  7579              jnz 0x535a
000052E1  33F6              xor si,si
000052E3  EB0E              jmp short 0x52f3
000052E5  8BC6              mov ax,si
000052E7  D1E0              shl ax,1
000052E9  8B5D30            mov bx,[di+0x30]
000052EC  03D8              add bx,ax
000052EE  C707FFFF          mov word [bx],0xffff
000052F2  46                inc si
000052F3  397522            cmp [di+0x22],si
000052F6  77ED              ja 0x52e5
000052F8  33F6              xor si,si
000052FA  EB36              jmp short 0x5332
000052FC  39750E            cmp [di+0xe],si
000052FF  7714              ja 0x5315
00005301  39751A            cmp [di+0x1a],si
00005304  740F              jz 0x5315
00005306  39751C            cmp [di+0x1c],si
00005309  740A              jz 0x5315
0000530B  8B5D2E            mov bx,[di+0x2e]
0000530E  03DE              add bx,si
00005310  803FFF            cmp byte [bx],0xff
00005313  741C              jz 0x5331
00005315  8B5D2E            mov bx,[di+0x2e]
00005318  03DE              add bx,si
0000531A  803FFF            cmp byte [bx],0xff
0000531D  740A              jz 0x5329
0000531F  8B5D2E            mov bx,[di+0x2e]
00005322  03DE              add bx,si
00005324  C6076B            mov byte [bx],0x6b
00005327  EB08              jmp short 0x5331
00005329  8B5D2E            mov bx,[di+0x2e]
0000532C  03DE              add bx,si
0000532E  C6076A            mov byte [bx],0x6a
00005331  46                inc si
00005332  39750C            cmp [di+0xc],si
00005335  77C5              ja 0x52fc
00005337  33F6              xor si,si
00005339  EB25              jmp short 0x5360
0000533B  8B5D2E            mov bx,[di+0x2e]
0000533E  03DE              add bx,si
00005340  803F6A            cmp byte [bx],0x6a
00005343  741A              jz 0x535f
00005345  8B5D2E            mov bx,[di+0x2e]
00005348  03DE              add bx,si
0000534A  803F6B            cmp byte [bx],0x6b
0000534D  7410              jz 0x535f
0000534F  56                push si
00005350  57                push di
00005351  E8A7FB            call 0x4efb
00005354  8BD0              mov dx,ax
00005356  0BD2              or dx,dx
00005358  7405              jz 0x535f
0000535A  8BC2              mov ax,dx
0000535C  E98800            jmp 0x53e7
0000535F  46                inc si
00005360  39750C            cmp [di+0xc],si
00005363  77D6              ja 0x533b
00005365  C7451E0000        mov word [di+0x1e],0x0
0000536A  8B750E            mov si,[di+0xe]
0000536D  EB23              jmp short 0x5392
0000536F  8B552E            mov dx,[di+0x2e]
00005372  03D6              add dx,si
00005374  8BDA              mov bx,dx
00005376  803F10            cmp byte [bx],0x10
00005379  7405              jz 0x5380
0000537B  803F90            cmp byte [bx],0x90
0000537E  7507              jnz 0x5387
00005380  56                push si
00005381  57                push di
00005382  E85B01            call 0x54e0
00005385  EB0A              jmp short 0x5391
00005387  8BDA              mov bx,dx
00005389  803FEF            cmp byte [bx],0xef
0000538C  7503              jnz 0x5391
0000538E  C607FF            mov byte [bx],0xff
00005391  46                inc si
00005392  39750C            cmp [di+0xc],si
00005395  77D8              ja 0x536f
00005397  C7451E0000        mov word [di+0x1e],0x0
0000539C  8B750E            mov si,[di+0xe]
0000539F  EB0E              jmp short 0x53af
000053A1  8B5D2E            mov bx,[di+0x2e]
000053A4  03DE              add bx,si
000053A6  803FFF            cmp byte [bx],0xff
000053A9  7503              jnz 0x53ae
000053AB  FF451E            inc word [di+0x1e]
000053AE  46                inc si
000053AF  39750C            cmp [di+0xc],si
000053B2  77ED              ja 0x53a1
000053B4  C745180000        mov word [di+0x18],0x0
000053B9  8B450E            mov ax,[di+0xe]
000053BC  89452C            mov [di+0x2c],ax
000053BF  33C0              xor ax,ax
000053C1  33D2              xor dx,dx
000053C3  89453C            mov [di+0x3c],ax
000053C6  89553A            mov [di+0x3a],dx
000053C9  894538            mov [di+0x38],ax
000053CC  895536            mov [di+0x36],dx
000053CF  894534            mov [di+0x34],ax
000053D2  895532            mov [di+0x32],dx
000053D5  33C0              xor ax,ax
000053D7  33D2              xor dx,dx
000053D9  894544            mov [di+0x44],ax
000053DC  895542            mov [di+0x42],dx
000053DF  894540            mov [di+0x40],ax
000053E2  89553E            mov [di+0x3e],dx
000053E5  33C0              xor ax,ax
000053E7  5F                pop di
000053E8  5E                pop si
000053E9  8BE5              mov sp,bp
000053EB  5D                pop bp
000053EC  C20200            ret 0x2
000053EF  55                push bp
000053F0  8BEC              mov bp,sp
000053F2  81EC0802          sub sp,0x208
000053F6  56                push si
000053F7  57                push di
000053F8  8B7604            mov si,[bp+0x4]
000053FB  BF0200            mov di,0x2
000053FE  FF760C            push word [bp+0xc]
00005401  FF760A            push word [bp+0xa]
00005404  16                push ss
00005405  8D86F8FD          lea ax,[bp+0xfdf8]
00005409  50                push ax
0000540A  B80002            mov ax,0x200
0000540D  50                push ax
0000540E  B80200            mov ax,0x2
00005411  50                push ax
00005412  FF7404            push word [si+0x4]
00005415  8B5C04            mov bx,[si+0x4]
00005418  8B1F              mov bx,[bx]
0000541A  FF5702            call near [bx+0x2]
0000541D  3D0500            cmp ax,0x5
00005420  7545              jnz 0x5467
00005422  FF760C            push word [bp+0xc]
00005425  FF760A            push word [bp+0xa]
00005428  16                push ss
00005429  8D46F8            lea ax,[bp-0x8]
0000542C  50                push ax
0000542D  B80800            mov ax,0x8
00005430  50                push ax
00005431  B80400            mov ax,0x4
00005434  50                push ax
00005435  FF7404            push word [si+0x4]
00005438  8B5C04            mov bx,[si+0x4]
0000543B  8B1F              mov bx,[bx]
0000543D  FF5702            call near [bx+0x2]
00005440  FF760C            push word [bp+0xc]
00005443  FF760A            push word [bp+0xa]
00005446  16                push ss
00005447  8D46F8            lea ax,[bp-0x8]
0000544A  50                push ax
0000544B  B80800            mov ax,0x8
0000544E  50                push ax
0000544F  B80400            mov ax,0x4
00005452  50                push ax
00005453  FF7404            push word [si+0x4]
00005456  8B5C04            mov bx,[si+0x4]
00005459  8B1F              mov bx,[bx]
0000545B  FF5704            call near [bx+0x4]
0000545E  8BD0              mov dx,ax
00005460  0BD2              or dx,dx
00005462  7514              jnz 0x5478
00005464  83E7FD            and di,byte -0x3
00005467  FF7608            push word [bp+0x8]
0000546A  FF7606            push word [bp+0x6]
0000546D  16                push ss
0000546E  8D86F8FD          lea ax,[bp+0xfdf8]
00005472  50                push ax
00005473  57                push di
00005474  56                push si
00005475  E8C406            call 0x5b3c
00005478  5F                pop di
00005479  5E                pop si
0000547A  8BE5              mov sp,bp
0000547C  5D                pop bp
0000547D  C20A00            ret 0xa
00005480  55                push bp
00005481  8BEC              mov bp,sp
00005483  83EC14            sub sp,byte +0x14
00005486  56                push si
00005487  57                push di
00005488  8B7E06            mov di,[bp+0x6]
0000548B  8B7604            mov si,[bp+0x4]
0000548E  C746EE0000        mov word [bp-0x12],0x0
00005493  57                push di
00005494  8D46F8            lea ax,[bp-0x8]
00005497  50                push ax
00005498  56                push si
00005499  E851F8            call 0x4ced
0000549C  897EEC            mov [bp-0x14],di
0000549F  8B7EFA            mov di,[bp-0x6]
000054A2  EB26              jmp short 0x54ca
000054A4  57                push di
000054A5  56                push si
000054A6  E8910B            call 0x603a
000054A9  0BC0              or ax,ax
000054AB  7428              jz 0x54d5
000054AD  57                push di
000054AE  8D46F0            lea ax,[bp-0x10]
000054B1  50                push ax
000054B2  56                push si
000054B3  E837F8            call 0x4ced
000054B6  8B46F8            mov ax,[bp-0x8]
000054B9  0D0080            or ax,0x8000
000054BC  3B46F0            cmp ax,[bp-0x10]
000054BF  7514              jnz 0x54d5
000054C1  897EEC            mov [bp-0x14],di
000054C4  8B7EF2            mov di,[bp-0xe]
000054C7  FF46EE            inc word [bp-0x12]
000054CA  397C0C            cmp [si+0xc],di
000054CD  7606              jna 0x54d5
000054CF  837EEE28          cmp word [bp-0x12],byte +0x28
000054D3  72CF              jc 0x54a4
000054D5  8B46EC            mov ax,[bp-0x14]
000054D8  5F                pop di
000054D9  5E                pop si
000054DA  8BE5              mov sp,bp
000054DC  5D                pop bp
000054DD  C20400            ret 0x4
000054E0  55                push bp
000054E1  8BEC              mov bp,sp
000054E3  83EC04            sub sp,byte +0x4
000054E6  56                push si
000054E7  57                push di
000054E8  8B7E06            mov di,[bp+0x6]
000054EB  8B7604            mov si,[bp+0x4]
000054EE  57                push di
000054EF  33C0              xor ax,ax
000054F1  50                push ax
000054F2  56                push si
000054F3  E8910B            call 0x6087
000054F6  C746FE0000        mov word [bp-0x2],0x0
000054FB  57                push di
000054FC  56                push si
000054FD  E880FF            call 0x5480
00005500  8946FC            mov [bp-0x4],ax
00005503  50                push ax
00005504  56                push si
00005505  E8F901            call 0x5701
00005508  0BC0              or ax,ax
0000550A  750E              jnz 0x551a
0000550C  397EFC            cmp [bp-0x4],di
0000550F  7409              jz 0x551a
00005511  FF46FE            inc word [bp-0x2]
00005514  837EFE28          cmp word [bp-0x2],byte +0x28
00005518  72E1              jc 0x54fb
0000551A  33C0              xor ax,ax
0000551C  5F                pop di
0000551D  5E                pop si
0000551E  8BE5              mov sp,bp
00005520  5D                pop bp
00005521  C20400            ret 0x4
00005524  55                push bp
00005525  8BEC              mov bp,sp
00005527  83EC1A            sub sp,byte +0x1a
0000552A  56                push si
0000552B  57                push di
0000552C  8B7E04            mov di,[bp+0x4]
0000552F  8B4606            mov ax,[bp+0x6]
00005532  D1E0              shl ax,1
00005534  8B5D30            mov bx,[di+0x30]
00005537  03D8              add bx,ax
00005539  8B07              mov ax,[bx]
0000553B  8946FE            mov [bp-0x2],ax
0000553E  83454201          add word [di+0x42],byte +0x1
00005542  83554400          adc word [di+0x44],byte +0x0
00005546  50                push ax
00005547  57                push di
00005548  E8EF0A            call 0x603a
0000554B  0BC0              or ax,ax
0000554D  752B              jnz 0x557a
0000554F  837D1E00          cmp word [di+0x1e],byte +0x0
00005553  7625              jna 0x557a
00005555  8D46FC            lea ax,[bp-0x4]
00005558  50                push ax
00005559  57                push di
0000555A  E88903            call 0x58e6
0000555D  8BD0              mov dx,ax
0000555F  0BD2              or dx,dx
00005561  7405              jz 0x5568
00005563  8BC2              mov ax,dx
00005565  E99101            jmp 0x56f9
00005568  FF76FC            push word [bp-0x4]
0000556B  FF7606            push word [bp+0x6]
0000556E  57                push di
0000556F  E8ED03            call 0x595f
00005572  8BD0              mov dx,ax
00005574  0BD2              or dx,dx
00005576  7424              jz 0x559c
00005578  EBE9              jmp short 0x5563
0000557A  8B46FE            mov ax,[bp-0x2]
0000557D  8946FC            mov [bp-0x4],ax
00005580  33F6              xor si,si
00005582  FF76FC            push word [bp-0x4]
00005585  FF7606            push word [bp+0x6]
00005588  57                push di
00005589  E86DF8            call 0x4df9
0000558C  8BD0              mov dx,ax
0000558E  83FAFF            cmp dx,byte -0x1
00005591  7409              jz 0x559c
00005593  8956FC            mov [bp-0x4],dx
00005596  46                inc si
00005597  83FE28            cmp si,byte +0x28
0000559A  72E6              jc 0x5582
0000559C  C746FA5555        mov word [bp-0x6],0x5555
000055A1  C746F85555        mov word [bp-0x8],0x5555
000055A6  FF76FE            push word [bp-0x2]
000055A9  57                push di
000055AA  E805F7            call 0x4cb2
000055AD  3D5555            cmp ax,0x5555
000055B0  7424              jz 0x55d6
000055B2  FF76FE            push word [bp-0x2]
000055B5  57                push di
000055B6  E86FF6            call 0x4c28
000055B9  050804            add ax,0x408
000055BC  83D200            adc dx,byte +0x0
000055BF  52                push dx
000055C0  50                push ax
000055C1  16                push ss
000055C2  8D46F8            lea ax,[bp-0x8]
000055C5  50                push ax
000055C6  B80400            mov ax,0x4
000055C9  50                push ax
000055CA  50                push ax
000055CB  FF7504            push word [di+0x4]
000055CE  8B5D04            mov bx,[di+0x4]
000055D1  8B1F              mov bx,[bx]
000055D3  FF5704            call near [bx+0x4]
000055D6  FF76FE            push word [bp-0x2]
000055D9  57                push di
000055DA  E83E0A            call 0x601b
000055DD  8B5E06            mov bx,[bp+0x6]
000055E0  33C9              xor cx,cx
000055E2  8B452A            mov ax,[di+0x2a]
000055E5  33D2              xor dx,dx
000055E7  E87725            call 0x7b61
000055EA  8956F6            mov [bp-0xa],dx
000055ED  8946F4            mov [bp-0xc],ax
000055F0  FF76FC            push word [bp-0x4]
000055F3  57                push di
000055F4  E831F6            call 0x4c28
000055F7  8956F2            mov [bp-0xe],dx
000055FA  8946F0            mov [bp-0x10],ax
000055FD  33F6              xor si,si
000055FF  C746EE0000        mov word [bp-0x12],0x0
00005604  EB62              jmp short 0x5668
00005606  FF76F6            push word [bp-0xa]
00005609  FF76F4            push word [bp-0xc]
0000560C  57                push di
0000560D  E83DF8            call 0x4e4d
00005610  8956EC            mov [bp-0x14],dx
00005613  8946EA            mov [bp-0x16],ax
00005616  837EECFF          cmp word [bp-0x14],byte -0x1
0000561A  7506              jnz 0x5622
0000561C  837EEAFF          cmp word [bp-0x16],byte -0x1
00005620  7432              jz 0x5654
00005622  46                inc si
00005623  8B46EC            mov ax,[bp-0x14]
00005626  8B56EA            mov dx,[bp-0x16]
00005629  3B46F2            cmp ax,[bp-0xe]
0000562C  7505              jnz 0x5633
0000562E  3B56F0            cmp dx,[bp-0x10]
00005631  7421              jz 0x5654
00005633  FF76EC            push word [bp-0x14]
00005636  FF76EA            push word [bp-0x16]
00005639  FF76F2            push word [bp-0xe]
0000563C  FF76F0            push word [bp-0x10]
0000563F  57                push di
00005640  E8ACFD            call 0x53ef
00005643  8BD0              mov dx,ax
00005645  0BD2              or dx,dx
00005647  7403              jz 0x564c
00005649  E917FF            jmp 0x5563
0000564C  83453E01          add word [di+0x3e],byte +0x1
00005650  83554000          adc word [di+0x40],byte +0x0
00005654  FF46EE            inc word [bp-0x12]
00005657  8346F401          add word [bp-0xc],byte +0x1
0000565B  8356F600          adc word [bp-0xa],byte +0x0
0000565F  8146F00002        add word [bp-0x10],0x200
00005664  8356F200          adc word [bp-0xe],byte +0x0
00005668  8B452A            mov ax,[di+0x2a]
0000566B  3B46EE            cmp ax,[bp-0x12]
0000566E  7796              ja 0x5606
00005670  0BF6              or si,si
00005672  763C              jna 0x56b0
00005674  8B4606            mov ax,[bp+0x6]
00005677  8946E6            mov [bp-0x1a],ax
0000567A  C746E8FFFF        mov word [bp-0x18],0xffff
0000567F  FF76FC            push word [bp-0x4]
00005682  8D46E6            lea ax,[bp-0x1a]
00005685  50                push ax
00005686  57                push di
00005687  E8F5F6            call 0x4d7f
0000568A  0BC0              or ax,ax
0000568C  7409              jz 0x5697
0000568E  FF76FC            push word [bp-0x4]
00005691  57                push di
00005692  E88609            call 0x601b
00005695  EB08              jmp short 0x569f
00005697  FF76FC            push word [bp-0x4]
0000569A  56                push si
0000569B  57                push di
0000569C  E8E809            call 0x6087
0000569F  8B4606            mov ax,[bp+0x6]
000056A2  D1E0              shl ax,1
000056A4  8B5D30            mov bx,[di+0x30]
000056A7  03D8              add bx,ax
000056A9  8B46FC            mov ax,[bp-0x4]
000056AC  8907              mov [bx],ax
000056AE  EB42              jmp short 0x56f2
000056B0  8B46FE            mov ax,[bp-0x2]
000056B3  3B46FC            cmp ax,[bp-0x4]
000056B6  742C              jz 0x56e4
000056B8  C746EC1111        mov word [bp-0x14],0x1111
000056BD  C746EA1111        mov word [bp-0x16],0x1111
000056C2  50                push ax
000056C3  57                push di
000056C4  E861F5            call 0x4c28
000056C7  050804            add ax,0x408
000056CA  83D200            adc dx,byte +0x0
000056CD  52                push dx
000056CE  50                push ax
000056CF  16                push ss
000056D0  8D46EA            lea ax,[bp-0x16]
000056D3  50                push ax
000056D4  B80400            mov ax,0x4
000056D7  50                push ax
000056D8  50                push ax
000056D9  FF7504            push word [di+0x4]
000056DC  8B5D04            mov bx,[di+0x4]
000056DF  8B1F              mov bx,[bx]
000056E1  FF5704            call near [bx+0x4]
000056E4  8B4606            mov ax,[bp+0x6]
000056E7  D1E0              shl ax,1
000056E9  8B5D30            mov bx,[di+0x30]
000056EC  03D8              add bx,ax
000056EE  C707FFFF          mov word [bx],0xffff
000056F2  FF76FE            push word [bp-0x2]
000056F5  57                push di
000056F6  E8E7FD            call 0x54e0
000056F9  5F                pop di
000056FA  5E                pop si
000056FB  8BE5              mov sp,bp
000056FD  5D                pop bp
000056FE  C20400            ret 0x4
00005701  55                push bp
00005702  8BEC              mov bp,sp
00005704  83EC0A            sub sp,byte +0xa
00005707  56                push si
00005708  57                push di
00005709  8B7E06            mov di,[bp+0x6]
0000570C  8B7604            mov si,[bp+0x4]
0000570F  57                push di
00005710  56                push si
00005711  E82609            call 0x603a
00005714  0BC0              or ax,ax
00005716  7506              jnz 0x571e
00005718  B80B00            mov ax,0xb
0000571B  E9AD00            jmp 0x57cb
0000571E  8B5C2E            mov bx,[si+0x2e]
00005721  03DF              add bx,di
00005723  803FFF            cmp byte [bx],0xff
00005726  7503              jnz 0x572b
00005728  FF4C1E            dec word [si+0x1e]
0000572B  57                push di
0000572C  56                push si
0000572D  E8EB08            call 0x601b
00005730  57                push di
00005731  8D46F8            lea ax,[bp-0x8]
00005734  50                push ax
00005735  56                push si
00005736  E80BF6            call 0x4d44
00005739  8A4C10            mov cl,[si+0x10]
0000573C  2A4C20            sub cl,[si+0x20]
0000573F  8BC7              mov ax,di
00005741  D3E0              shl ax,cl
00005743  50                push ax
00005744  8A4C10            mov cl,[si+0x10]
00005747  2A4C20            sub cl,[si+0x20]
0000574A  B80100            mov ax,0x1
0000574D  D3E0              shl ax,cl
0000574F  50                push ax
00005750  33C0              xor ax,ax
00005752  50                push ax
00005753  50                push ax
00005754  FF7404            push word [si+0x4]
00005757  8B5C04            mov bx,[si+0x4]
0000575A  8B1F              mov bx,[bx]
0000575C  FF5706            call near [bx+0x6]
0000575F  8946F6            mov [bp-0xa],ax
00005762  837EF600          cmp word [bp-0xa],byte +0x0
00005766  740A              jz 0x5772
00005768  57                push di
00005769  56                push si
0000576A  E822F9            call 0x508f
0000576D  8B46F6            mov ax,[bp-0xa]
00005770  EB59              jmp short 0x57cb
00005772  8346F801          add word [bp-0x8],byte +0x1
00005776  8356FA00          adc word [bp-0x6],byte +0x0
0000577A  8B46F8            mov ax,[bp-0x8]
0000577D  0B46FA            or ax,[bp-0x6]
00005780  7508              jnz 0x578a
00005782  8346F801          add word [bp-0x8],byte +0x1
00005786  8356FA00          adc word [bp-0x6],byte +0x0
0000578A  B8693C            mov ax,0x3c69
0000578D  8946FE            mov [bp-0x2],ax
00005790  8946FC            mov [bp-0x4],ax
00005793  57                push di
00005794  56                push si
00005795  E890F4            call 0x4c28
00005798  050802            add ax,0x208
0000579B  83D200            adc dx,byte +0x0
0000579E  52                push dx
0000579F  50                push ax
000057A0  16                push ss
000057A1  8D46F8            lea ax,[bp-0x8]
000057A4  50                push ax
000057A5  B80800            mov ax,0x8
000057A8  50                push ax
000057A9  B80400            mov ax,0x4
000057AC  50                push ax
000057AD  FF7404            push word [si+0x4]
000057B0  8B5C04            mov bx,[si+0x4]
000057B3  8B1F              mov bx,[bx]
000057B5  FF5704            call near [bx+0x4]
000057B8  8BD0              mov dx,ax
000057BA  0BD2              or dx,dx
000057BC  750D              jnz 0x57cb
000057BE  8B5C2E            mov bx,[si+0x2e]
000057C1  03DF              add bx,di
000057C3  C607FF            mov byte [bx],0xff
000057C6  FF441E            inc word [si+0x1e]
000057C9  33C0              xor ax,ax
000057CB  5F                pop di
000057CC  5E                pop si
000057CD  8BE5              mov sp,bp
000057CF  5D                pop bp
000057D0  C20400            ret 0x4
000057D3  55                push bp
000057D4  8BEC              mov bp,sp
000057D6  83EC0E            sub sp,byte +0xe
000057D9  56                push si
000057DA  57                push di
000057DB  8B7604            mov si,[bp+0x4]
000057DE  8B442A            mov ax,[si+0x2a]
000057E1  40                inc ax
000057E2  8946FE            mov [bp-0x2],ax
000057E5  C746FA0000        mov word [bp-0x6],0x0
000057EA  C746F6FFFF        mov word [bp-0xa],0xffff
000057EF  33FF              xor di,di
000057F1  E9B700            jmp 0x58ab
000057F4  8BC7              mov ax,di
000057F6  D1E0              shl ax,1
000057F8  8B5C30            mov bx,[si+0x30]
000057FB  03D8              add bx,ax
000057FD  8B07              mov ax,[bx]
000057FF  8946F8            mov [bp-0x8],ax
00005802  837EF8FF          cmp word [bp-0x8],byte -0x1
00005806  7503              jnz 0x580b
00005808  E99F00            jmp 0x58aa
0000580B  397C18            cmp [si+0x18],di
0000580E  770B              ja 0x581b
00005810  57                push di
00005811  56                push si
00005812  E8DAF7            call 0x4fef
00005815  8BC7              mov ax,di
00005817  40                inc ax
00005818  894418            mov [si+0x18],ax
0000581B  8B5C2E            mov bx,[si+0x2e]
0000581E  035EF8            add bx,[bp-0x8]
00005821  8A07              mov al,[bx]
00005823  8846F5            mov [bp-0xb],al
00005826  FF76F8            push word [bp-0x8]
00005829  56                push si
0000582A  E80D08            call 0x603a
0000582D  0BC0              or ax,ax
0000582F  7409              jz 0x583a
00005831  FF76F8            push word [bp-0x8]
00005834  56                push si
00005835  E87008            call 0x60a8
00005838  EB03              jmp short 0x583d
0000583A  8B442A            mov ax,[si+0x2a]
0000583D  8946FC            mov [bp-0x4],ax
00005840  8B46FE            mov ax,[bp-0x2]
00005843  3B46FC            cmp ax,[bp-0x4]
00005846  7262              jc 0x58aa
00005848  F646F580          test byte [bp-0xb],0x80
0000584C  7506              jnz 0x5854
0000584E  837EFC00          cmp word [bp-0x4],byte +0x0
00005852  7556              jnz 0x58aa
00005854  837EFC00          cmp word [bp-0x4],byte +0x0
00005858  7641              jna 0x589b
0000585A  C746F20000        mov word [bp-0xe],0x0
0000585F  FF76F8            push word [bp-0x8]
00005862  EB04              jmp short 0x5868
00005864  FF46F2            inc word [bp-0xe]
00005867  52                push dx
00005868  57                push di
00005869  56                push si
0000586A  E88CF5            call 0x4df9
0000586D  8BD0              mov dx,ax
0000586F  83FAFF            cmp dx,byte -0x1
00005872  7406              jz 0x587a
00005874  837EF228          cmp word [bp-0xe],byte +0x28
00005878  72EA              jc 0x5864
0000587A  837EF228          cmp word [bp-0xe],byte +0x28
0000587E  7505              jnz 0x5885
00005880  C746F20000        mov word [bp-0xe],0x0
00005885  8B46FE            mov ax,[bp-0x2]
00005888  3B46FC            cmp ax,[bp-0x4]
0000588B  7508              jnz 0x5895
0000588D  8B46FA            mov ax,[bp-0x6]
00005890  3B46F2            cmp ax,[bp-0xe]
00005893  7315              jnc 0x58aa
00005895  8B46F2            mov ax,[bp-0xe]
00005898  8946FA            mov [bp-0x6],ax
0000589B  8B46FC            mov ax,[bp-0x4]
0000589E  8946FE            mov [bp-0x2],ax
000058A1  897EF6            mov [bp-0xa],di
000058A4  837EFE00          cmp word [bp-0x2],byte +0x0
000058A8  7409              jz 0x58b3
000058AA  47                inc di
000058AB  397C22            cmp [si+0x22],di
000058AE  7603              jna 0x58b3
000058B0  E941FF            jmp 0x57f4
000058B3  8B442A            mov ax,[si+0x2a]
000058B6  3B46FE            cmp ax,[bp-0x2]
000058B9  7206              jc 0x58c1
000058BB  837EF6FF          cmp word [bp-0xa],byte -0x1
000058BF  7505              jnz 0x58c6
000058C1  B80A00            mov ax,0xa
000058C4  EB18              jmp short 0x58de
000058C6  8B46F6            mov ax,[bp-0xa]
000058C9  D1E0              shl ax,1
000058CB  8B5C30            mov bx,[si+0x30]
000058CE  03D8              add bx,ax
000058D0  8B07              mov ax,[bx]
000058D2  8B5E06            mov bx,[bp+0x6]
000058D5  8907              mov [bx],ax
000058D7  FF76F6            push word [bp-0xa]
000058DA  56                push si
000058DB  E846FC            call 0x5524
000058DE  5F                pop di
000058DF  5E                pop si
000058E0  8BE5              mov sp,bp
000058E2  5D                pop bp
000058E3  C20400            ret 0x4
000058E6  55                push bp
000058E7  8BEC              mov bp,sp
000058E9  83EC0C            sub sp,byte +0xc
000058EC  56                push si
000058ED  57                push di
000058EE  8B7E06            mov di,[bp+0x6]
000058F1  8B7604            mov si,[bp+0x4]
000058F4  8B442C            mov ax,[si+0x2c]
000058F7  8946FE            mov [bp-0x2],ax
000058FA  837C1E00          cmp word [si+0x1e],byte +0x0
000058FE  7452              jz 0x5952
00005900  FF442C            inc word [si+0x2c]
00005903  8B442C            mov ax,[si+0x2c]
00005906  3B440C            cmp ax,[si+0xc]
00005909  7206              jc 0x5911
0000590B  8B440E            mov ax,[si+0xe]
0000590E  89442C            mov [si+0x2c],ax
00005911  8B442E            mov ax,[si+0x2e]
00005914  03442C            add ax,[si+0x2c]
00005917  8BD8              mov bx,ax
00005919  8A07              mov al,[bx]
0000591B  8846FD            mov [bp-0x3],al
0000591E  807EFDFF          cmp byte [bp-0x3],0xff
00005922  7526              jnz 0x594a
00005924  FF742C            push word [si+0x2c]
00005927  8D46F4            lea ax,[bp-0xc]
0000592A  50                push ax
0000592B  56                push si
0000592C  E815F4            call 0x4d44
0000592F  817EF8693C        cmp word [bp-0x8],0x3c69
00005934  740B              jz 0x5941
00005936  FF742C            push word [si+0x2c]
00005939  56                push si
0000593A  E8C4FD            call 0x5701
0000593D  0BC0              or ax,ax
0000593F  7509              jnz 0x594a
00005941  8B442C            mov ax,[si+0x2c]
00005944  8905              mov [di],ax
00005946  33C0              xor ax,ax
00005948  EB0D              jmp short 0x5957
0000594A  8B442C            mov ax,[si+0x2c]
0000594D  3B46FE            cmp ax,[bp-0x2]
00005950  75AE              jnz 0x5900
00005952  57                push di
00005953  56                push si
00005954  E87CFE            call 0x57d3
00005957  5F                pop di
00005958  5E                pop si
00005959  8BE5              mov sp,bp
0000595B  5D                pop bp
0000595C  C20400            ret 0x4
0000595F  55                push bp
00005960  8BEC              mov bp,sp
00005962  83EC14            sub sp,byte +0x14
00005965  56                push si
00005966  57                push di
00005967  8B7604            mov si,[bp+0x4]
0000596A  8B4606            mov ax,[bp+0x6]
0000596D  D1E0              shl ax,1
0000596F  8B5C30            mov bx,[si+0x30]
00005972  03D8              add bx,ax
00005974  8B3F              mov di,[bx]
00005976  8B4606            mov ax,[bp+0x6]
00005979  8946F8            mov [bp-0x8],ax
0000597C  83FFFF            cmp di,byte -0x1
0000597F  7405              jz 0x5986
00005981  814EF80080        or word [bp-0x8],0x8000
00005986  C746FAFFFF        mov word [bp-0x6],0xffff
0000598B  8B5C2E            mov bx,[si+0x2e]
0000598E  035E08            add bx,[bp+0x8]
00005991  C60700            mov byte [bx],0x0
00005994  FF4C1E            dec word [si+0x1e]
00005997  FF7608            push word [bp+0x8]
0000599A  8D46F8            lea ax,[bp-0x8]
0000599D  50                push ax
0000599E  56                push si
0000599F  E8DDF3            call 0x4d7f
000059A2  8946EE            mov [bp-0x12],ax
000059A5  837EEE00          cmp word [bp-0x12],byte +0x0
000059A9  740D              jz 0x59b8
000059AB  FF7608            push word [bp+0x8]
000059AE  56                push si
000059AF  E8DDF6            call 0x508f
000059B2  8B46EE            mov ax,[bp-0x12]
000059B5  E9B400            jmp 0x5a6c
000059B8  83FFFF            cmp di,byte -0x1
000059BB  7503              jnz 0x59c0
000059BD  E99B00            jmp 0x5a5b
000059C0  57                push di
000059C1  56                push si
000059C2  E87506            call 0x603a
000059C5  0BC0              or ax,ax
000059C7  7503              jnz 0x59cc
000059C9  E99E00            jmp 0x5a6a
000059CC  57                push di
000059CD  56                push si
000059CE  E8AFFA            call 0x5480
000059D1  8946EC            mov [bp-0x14],ax
000059D4  50                push ax
000059D5  8D46F0            lea ax,[bp-0x10]
000059D8  50                push ax
000059D9  56                push si
000059DA  E810F3            call 0x4ced
000059DD  837EF2FF          cmp word [bp-0xe],byte -0x1
000059E1  7407              jz 0x59ea
000059E3  C746EE0B00        mov word [bp-0x12],0xb
000059E8  EB1D              jmp short 0x5a07
000059EA  8B4608            mov ax,[bp+0x8]
000059ED  8946F2            mov [bp-0xe],ax
000059F0  8B5C2E            mov bx,[si+0x2e]
000059F3  035EEC            add bx,[bp-0x14]
000059F6  800F80            or byte [bx],0x80
000059F9  FF76EC            push word [bp-0x14]
000059FC  8D46F0            lea ax,[bp-0x10]
000059FF  50                push ax
00005A00  56                push si
00005A01  E87BF3            call 0x4d7f
00005A04  8946EE            mov [bp-0x12],ax
00005A07  837EEE00          cmp word [bp-0x12],byte +0x0
00005A0B  740E              jz 0x5a1b
00005A0D  FF7608            push word [bp+0x8]
00005A10  56                push si
00005A11  E8EDFC            call 0x5701
00005A14  57                push di
00005A15  56                push si
00005A16  E80206            call 0x601b
00005A19  EB97              jmp short 0x59b2
00005A1B  8B4418            mov ax,[si+0x18]
00005A1E  3B4606            cmp ax,[bp+0x6]
00005A21  7647              jna 0x5a6a
00005A23  3B7EEC            cmp di,[bp-0x14]
00005A26  7442              jz 0x5a6a
00005A28  57                push di
00005A29  56                push si
00005A2A  E87B06            call 0x60a8
00005A2D  50                push ax
00005A2E  FF76EC            push word [bp-0x14]
00005A31  56                push si
00005A32  E87306            call 0x60a8
00005A35  5A                pop dx
00005A36  03D0              add dx,ax
00005A38  83FA40            cmp dx,byte +0x40
00005A3B  7719              ja 0x5a56
00005A3D  FF76EC            push word [bp-0x14]
00005A40  56                push si
00005A41  E86406            call 0x60a8
00005A44  8B5C2E            mov bx,[si+0x2e]
00005A47  03DF              add bx,di
00005A49  8A17              mov dl,[bx]
00005A4B  02D0              add dl,al
00005A4D  8B5C2E            mov bx,[si+0x2e]
00005A50  03DF              add bx,di
00005A52  8817              mov [bx],dl
00005A54  EB14              jmp short 0x5a6a
00005A56  B80D00            mov ax,0xd
00005A59  EB11              jmp short 0x5a6c
00005A5B  8B4606            mov ax,[bp+0x6]
00005A5E  D1E0              shl ax,1
00005A60  8B5C30            mov bx,[si+0x30]
00005A63  03D8              add bx,ax
00005A65  8B4608            mov ax,[bp+0x8]
00005A68  8907              mov [bx],ax
00005A6A  33C0              xor ax,ax
00005A6C  5F                pop di
00005A6D  5E                pop si
00005A6E  8BE5              mov sp,bp
00005A70  5D                pop bp
00005A71  C20600            ret 0x6
00005A74  55                push bp
00005A75  8BEC              mov bp,sp
00005A77  83EC04            sub sp,byte +0x4
00005A7A  56                push si
00005A7B  57                push di
00005A7C  8B7E04            mov di,[bp+0x4]
00005A7F  8B4606            mov ax,[bp+0x6]
00005A82  99                cwd
00005A83  8B5E0E            mov bx,[bp+0xe]
00005A86  8B4E0C            mov cx,[bp+0xc]
00005A89  03C8              add cx,ax
00005A8B  13DA              adc bx,dx
00005A8D  3B5D14            cmp bx,[di+0x14]
00005A90  7C28              jl 0x5aba
00005A92  7F05              jg 0x5a99
00005A94  3B4D12            cmp cx,[di+0x12]
00005A97  7621              jna 0x5aba
00005A99  8B4514            mov ax,[di+0x14]
00005A9C  8B5512            mov dx,[di+0x12]
00005A9F  3B460E            cmp ax,[bp+0xe]
00005AA2  7F0D              jg 0x5ab1
00005AA4  7C05              jl 0x5aab
00005AA6  3B560C            cmp dx,[bp+0xc]
00005AA9  7306              jnc 0x5ab1
00005AAB  B80900            mov ax,0x9
00005AAE  E98300            jmp 0x5b34
00005AB1  8B4512            mov ax,[di+0x12]
00005AB4  2B460C            sub ax,[bp+0xc]
00005AB7  894606            mov [bp+0x6],ax
00005ABA  33F6              xor si,si
00005ABC  3B7606            cmp si,[bp+0x6]
00005ABF  7D71              jnl 0x5b32
00005AC1  FF760E            push word [bp+0xe]
00005AC4  FF760C            push word [bp+0xc]
00005AC7  57                push di
00005AC8  E882F3            call 0x4e4d
00005ACB  8956FE            mov [bp-0x2],dx
00005ACE  8946FC            mov [bp-0x4],ax
00005AD1  837EFEFF          cmp word [bp-0x2],byte -0x1
00005AD5  751B              jnz 0x5af2
00005AD7  837EFCFF          cmp word [bp-0x4],byte -0x1
00005ADB  7515              jnz 0x5af2
00005ADD  B80002            mov ax,0x200
00005AE0  50                push ax
00005AE1  B000              mov al,0x0
00005AE3  50                push ax
00005AE4  FF760A            push word [bp+0xa]
00005AE7  FF7608            push word [bp+0x8]
00005AEA  E89219            call 0x747f
00005AED  83C408            add sp,byte +0x8
00005AF0  EB25              jmp short 0x5b17
00005AF2  FF76FE            push word [bp-0x2]
00005AF5  FF76FC            push word [bp-0x4]
00005AF8  FF760A            push word [bp+0xa]
00005AFB  FF7608            push word [bp+0x8]
00005AFE  B80002            mov ax,0x200
00005B01  50                push ax
00005B02  B80200            mov ax,0x2
00005B05  50                push ax
00005B06  FF7504            push word [di+0x4]
00005B09  8B5D04            mov bx,[di+0x4]
00005B0C  8B1F              mov bx,[bx]
00005B0E  FF5702            call near [bx+0x2]
00005B11  8BD0              mov dx,ax
00005B13  0BD2              or dx,dx
00005B15  751D              jnz 0x5b34
00005B17  46                inc si
00005B18  83460C01          add word [bp+0xc],byte +0x1
00005B1C  83560E00          adc word [bp+0xe],byte +0x0
00005B20  83453201          add word [di+0x32],byte +0x1
00005B24  83553400          adc word [di+0x34],byte +0x0
00005B28  8146080002        add word [bp+0x8],0x200
00005B2D  3B7606            cmp si,[bp+0x6]
00005B30  7C8F              jl 0x5ac1
00005B32  33C0              xor ax,ax
00005B34  5F                pop di
00005B35  5E                pop si
00005B36  8BE5              mov sp,bp
00005B38  5D                pop bp
00005B39  C20C00            ret 0xc
00005B3C  55                push bp
00005B3D  8BEC              mov bp,sp
00005B3F  83EC02            sub sp,byte +0x2
00005B42  56                push si
00005B43  57                push di
00005B44  8B7604            mov si,[bp+0x4]
00005B47  FF760E            push word [bp+0xe]
00005B4A  FF760C            push word [bp+0xc]
00005B4D  FF760A            push word [bp+0xa]
00005B50  FF7608            push word [bp+0x8]
00005B53  B80002            mov ax,0x200
00005B56  50                push ax
00005B57  FF7606            push word [bp+0x6]
00005B5A  FF7404            push word [si+0x4]
00005B5D  8B5C04            mov bx,[si+0x4]
00005B60  8B1F              mov bx,[bx]
00005B62  FF5704            call near [bx+0x4]
00005B65  8BF8              mov di,ax
00005B67  83FF0B            cmp di,byte +0xb
00005B6A  752E              jnz 0x5b9a
00005B6C  B011              mov al,0x11
00005B6E  8846FF            mov [bp-0x1],al
00005B71  8846FE            mov [bp-0x2],al
00005B74  8B460E            mov ax,[bp+0xe]
00005B77  8B560C            mov dx,[bp+0xc]
00005B7A  83C206            add dx,byte +0x6
00005B7D  150000            adc ax,0x0
00005B80  50                push ax
00005B81  52                push dx
00005B82  16                push ss
00005B83  8D46FE            lea ax,[bp-0x2]
00005B86  50                push ax
00005B87  B80200            mov ax,0x2
00005B8A  50                push ax
00005B8B  B80400            mov ax,0x4
00005B8E  50                push ax
00005B8F  FF7404            push word [si+0x4]
00005B92  8B5C04            mov bx,[si+0x4]
00005B95  8B1F              mov bx,[bx]
00005B97  FF5704            call near [bx+0x4]
00005B9A  8BC7              mov ax,di
00005B9C  5F                pop di
00005B9D  5E                pop si
00005B9E  8BE5              mov sp,bp
00005BA0  5D                pop bp
00005BA1  C20C00            ret 0xc
00005BA4  55                push bp
00005BA5  8BEC              mov bp,sp
00005BA7  83EC0A            sub sp,byte +0xa
00005BAA  56                push si
00005BAB  57                push di
00005BAC  8B7604            mov si,[bp+0x4]
00005BAF  33C0              xor ax,ax
00005BB1  50                push ax
00005BB2  FF742A            push word [si+0x2a]
00005BB5  FF760C            push word [bp+0xc]
00005BB8  FF760A            push word [bp+0xa]
00005BBB  E8421E            call 0x7a00
00005BBE  8946FE            mov [bp-0x2],ax
00005BC1  D1E0              shl ax,1
00005BC3  8B5C30            mov bx,[si+0x30]
00005BC6  03D8              add bx,ax
00005BC8  8B3F              mov di,[bx]
00005BCA  33C0              xor ax,ax
00005BCC  50                push ax
00005BCD  FF742A            push word [si+0x2a]
00005BD0  FF760C            push word [bp+0xc]
00005BD3  FF760A            push word [bp+0xa]
00005BD6  E8361E            call 0x7a0f
00005BD9  B109              mov cl,0x9
00005BDB  D3E0              shl ax,cl
00005BDD  8946FC            mov [bp-0x4],ax
00005BE0  C746FA0000        mov word [bp-0x6],0x0
00005BE5  83FFFF            cmp di,byte -0x1
00005BE8  7427              jz 0x5c11
00005BEA  57                push di
00005BEB  56                push si
00005BEC  E84B04            call 0x603a
00005BEF  0BC0              or ax,ax
00005BF1  751E              jnz 0x5c11
00005BF3  FF76FE            push word [bp-0x2]
00005BF6  56                push si
00005BF7  E82AF9            call 0x5524
00005BFA  8BD0              mov dx,ax
00005BFC  0BD2              or dx,dx
00005BFE  7405              jz 0x5c05
00005C00  8BC2              mov ax,dx
00005C02  E95E01            jmp 0x5d63
00005C05  8B46FE            mov ax,[bp-0x2]
00005C08  D1E0              shl ax,1
00005C0A  8B5C30            mov bx,[si+0x30]
00005C0D  03D8              add bx,ax
00005C0F  8B3F              mov di,[bx]
00005C11  C746F80000        mov word [bp-0x8],0x0
00005C16  897EF6            mov [bp-0xa],di
00005C19  EB3E              jmp short 0x5c59
00005C1B  FF76F6            push word [bp-0xa]
00005C1E  56                push si
00005C1F  E806F0            call 0x4c28
00005C22  0346FC            add ax,[bp-0x4]
00005C25  83D200            adc dx,byte +0x0
00005C28  52                push dx
00005C29  50                push ax
00005C2A  56                push si
00005C2B  E811F0            call 0x4c3f
00005C2E  8AD0              mov dl,al
00005C30  80FAFF            cmp dl,0xff
00005C33  7430              jz 0x5c65
00005C35  80FA11            cmp dl,0x11
00005C38  740F              jz 0x5c49
00005C3A  80FA55            cmp dl,0x55
00005C3D  7505              jnz 0x5c44
00005C3F  B80100            mov ax,0x1
00005C42  EB02              jmp short 0x5c46
00005C44  33C0              xor ax,ax
00005C46  8946F8            mov [bp-0x8],ax
00005C49  FF76F6            push word [bp-0xa]
00005C4C  FF76FE            push word [bp-0x2]
00005C4F  56                push si
00005C50  E8A6F1            call 0x4df9
00005C53  8946F6            mov [bp-0xa],ax
00005C56  FF46FA            inc word [bp-0x6]
00005C59  837EF6FF          cmp word [bp-0xa],byte -0x1
00005C5D  7406              jz 0x5c65
00005C5F  837EFA28          cmp word [bp-0x6],byte +0x28
00005C63  72B6              jc 0x5c1b
00005C65  837EFA28          cmp word [bp-0x6],byte +0x28
00005C69  750A              jnz 0x5c75
00005C6B  C746F6FFFF        mov word [bp-0xa],0xffff
00005C70  57                push di
00005C71  56                push si
00005C72  E8A603            call 0x601b
00005C75  837EF6FF          cmp word [bp-0xa],byte -0x1
00005C79  7546              jnz 0x5cc1
00005C7B  837EFA14          cmp word [bp-0x6],byte +0x14
00005C7F  7210              jc 0x5c91
00005C81  FF76FE            push word [bp-0x2]
00005C84  56                push si
00005C85  E89CF8            call 0x5524
00005C88  8BD0              mov dx,ax
00005C8A  0BD2              or dx,dx
00005C8C  7403              jz 0x5c91
00005C8E  E96FFF            jmp 0x5c00
00005C91  8D46F6            lea ax,[bp-0xa]
00005C94  50                push ax
00005C95  56                push si
00005C96  E84DFC            call 0x58e6
00005C99  8BD0              mov dx,ax
00005C9B  0BD2              or dx,dx
00005C9D  7403              jz 0x5ca2
00005C9F  E95EFF            jmp 0x5c00
00005CA2  FF76F6            push word [bp-0xa]
00005CA5  FF76FE            push word [bp-0x2]
00005CA8  56                push si
00005CA9  E8B3FC            call 0x595f
00005CAC  8BD0              mov dx,ax
00005CAE  0BD2              or dx,dx
00005CB0  7403              jz 0x5cb5
00005CB2  E94BFF            jmp 0x5c00
00005CB5  8B46FE            mov ax,[bp-0x2]
00005CB8  D1E0              shl ax,1
00005CBA  8B5C30            mov bx,[si+0x30]
00005CBD  03D8              add bx,ax
00005CBF  8B3F              mov di,[bx]
00005CC1  FF76F6            push word [bp-0xa]
00005CC4  56                push si
00005CC5  E87203            call 0x603a
00005CC8  0BC0              or ax,ax
00005CCA  7503              jnz 0x5ccf
00005CCC  E98D00            jmp 0x5d5c
00005CCF  FF76F6            push word [bp-0xa]
00005CD2  56                push si
00005CD3  E852EF            call 0x4c28
00005CD6  0346FC            add ax,[bp-0x4]
00005CD9  83D200            adc dx,byte +0x0
00005CDC  52                push dx
00005CDD  50                push ax
00005CDE  FF7608            push word [bp+0x8]
00005CE1  FF7606            push word [bp+0x6]
00005CE4  B80200            mov ax,0x2
00005CE7  50                push ax
00005CE8  56                push si
00005CE9  E850FE            call 0x5b3c
00005CEC  8BD0              mov dx,ax
00005CEE  0BD2              or dx,dx
00005CF0  7403              jz 0x5cf5
00005CF2  E90BFF            jmp 0x5c00
00005CF5  8B4418            mov ax,[si+0x18]
00005CF8  3B46FE            cmp ax,[bp-0x2]
00005CFB  7664              jna 0x5d61
00005CFD  397EF6            cmp [bp-0xa],di
00005D00  7441              jz 0x5d43
00005D02  8B5C2E            mov bx,[si+0x2e]
00005D05  035EF6            add bx,[bp-0xa]
00005D08  8A07              mov al,[bx]
00005D0A  B400              mov ah,0x0
00005D0C  A98000            test ax,0x80
00005D0F  7532              jnz 0x5d43
00005D11  FF76F6            push word [bp-0xa]
00005D14  56                push si
00005D15  E89003            call 0x60a8
00005D18  3D4000            cmp ax,0x40
00005D1B  733F              jnc 0x5d5c
00005D1D  8B5C2E            mov bx,[si+0x2e]
00005D20  035EF6            add bx,[bp-0xa]
00005D23  FE07              inc byte [bx]
00005D25  EB02              jmp short 0x5d29
00005D27  EB33              jmp short 0x5d5c
00005D29  837EF800          cmp word [bp-0x8],byte +0x0
00005D2D  7432              jz 0x5d61
00005D2F  57                push di
00005D30  56                push si
00005D31  E87403            call 0x60a8
00005D34  0BC0              or ax,ax
00005D36  7624              jna 0x5d5c
00005D38  8B5C2E            mov bx,[si+0x2e]
00005D3B  03DF              add bx,di
00005D3D  FE0F              dec byte [bx]
00005D3F  EB20              jmp short 0x5d61
00005D41  EB19              jmp short 0x5d5c
00005D43  837EF800          cmp word [bp-0x8],byte +0x0
00005D47  7518              jnz 0x5d61
00005D49  57                push di
00005D4A  56                push si
00005D4B  E85A03            call 0x60a8
00005D4E  3D4000            cmp ax,0x40
00005D51  7309              jnc 0x5d5c
00005D53  8B5C2E            mov bx,[si+0x2e]
00005D56  03DF              add bx,di
00005D58  FE07              inc byte [bx]
00005D5A  EB05              jmp short 0x5d61
00005D5C  B80D00            mov ax,0xd
00005D5F  EB02              jmp short 0x5d63
00005D61  33C0              xor ax,ax
00005D63  5F                pop di
00005D64  5E                pop si
00005D65  8BE5              mov sp,bp
00005D67  5D                pop bp
00005D68  C20A00            ret 0xa
00005D6B  55                push bp
00005D6C  8BEC              mov bp,sp
00005D6E  83EC02            sub sp,byte +0x2
00005D71  56                push si
00005D72  57                push di
00005D73  8B7E04            mov di,[bp+0x4]
00005D76  837D1600          cmp word [di+0x16],byte +0x0
00005D7A  7405              jz 0x5d81
00005D7C  B80500            mov ax,0x5
00005D7F  EB70              jmp short 0x5df1
00005D81  8B4606            mov ax,[bp+0x6]
00005D84  99                cwd
00005D85  8B5E0E            mov bx,[bp+0xe]
00005D88  8B4E0C            mov cx,[bp+0xc]
00005D8B  03C8              add cx,ax
00005D8D  13DA              adc bx,dx
00005D8F  3B5D14            cmp bx,[di+0x14]
00005D92  7C0C              jl 0x5da0
00005D94  7F05              jg 0x5d9b
00005D96  3B4D12            cmp cx,[di+0x12]
00005D99  7605              jna 0x5da0
00005D9B  B80900            mov ax,0x9
00005D9E  EB51              jmp short 0x5df1
00005DA0  33D2              xor dx,dx
00005DA2  33F6              xor si,si
00005DA4  EB40              jmp short 0x5de6
00005DA6  BA0B00            mov dx,0xb
00005DA9  C746FE0000        mov word [bp-0x2],0x0
00005DAE  EB15              jmp short 0x5dc5
00005DB0  FF760E            push word [bp+0xe]
00005DB3  FF760C            push word [bp+0xc]
00005DB6  FF760A            push word [bp+0xa]
00005DB9  FF7608            push word [bp+0x8]
00005DBC  57                push di
00005DBD  E8E4FD            call 0x5ba4
00005DC0  8BD0              mov dx,ax
00005DC2  FF46FE            inc word [bp-0x2]
00005DC5  837EFE04          cmp word [bp-0x2],byte +0x4
00005DC9  7D05              jnl 0x5dd0
00005DCB  83FA0B            cmp dx,byte +0xb
00005DCE  74E0              jz 0x5db0
00005DD0  46                inc si
00005DD1  83460C01          add word [bp+0xc],byte +0x1
00005DD5  83560E00          adc word [bp+0xe],byte +0x0
00005DD9  83453601          add word [di+0x36],byte +0x1
00005DDD  83553800          adc word [di+0x38],byte +0x0
00005DE1  8146080002        add word [bp+0x8],0x200
00005DE6  3B7606            cmp si,[bp+0x6]
00005DE9  7D04              jnl 0x5def
00005DEB  0BD2              or dx,dx
00005DED  74B7              jz 0x5da6
00005DEF  8BC2              mov ax,dx
00005DF1  5F                pop di
00005DF2  5E                pop si
00005DF3  8BE5              mov sp,bp
00005DF5  5D                pop bp
00005DF6  C20C00            ret 0xc
00005DF9  55                push bp
00005DFA  8BEC              mov bp,sp
00005DFC  83EC0C            sub sp,byte +0xc
00005DFF  56                push si
00005E00  57                push di
00005E01  8B7E04            mov di,[bp+0x4]
00005E04  837D1600          cmp word [di+0x16],byte +0x0
00005E08  7406              jz 0x5e10
00005E0A  B80500            mov ax,0x5
00005E0D  E93001            jmp 0x5f40
00005E10  8B4606            mov ax,[bp+0x6]
00005E13  99                cwd
00005E14  8B5E0A            mov bx,[bp+0xa]
00005E17  8B4E08            mov cx,[bp+0x8]
00005E1A  03C8              add cx,ax
00005E1C  13DA              adc bx,dx
00005E1E  3B5D14            cmp bx,[di+0x14]
00005E21  7C0D              jl 0x5e30
00005E23  7F05              jg 0x5e2a
00005E25  3B4D12            cmp cx,[di+0x12]
00005E28  7606              jna 0x5e30
00005E2A  B80900            mov ax,0x9
00005E2D  E91001            jmp 0x5f40
00005E30  C746FE0000        mov word [bp-0x2],0x0
00005E35  8B46FE            mov ax,[bp-0x2]
00005E38  3B4606            cmp ax,[bp+0x6]
00005E3B  7C03              jl 0x5e40
00005E3D  E9FE00            jmp 0x5f3e
00005E40  FF760A            push word [bp+0xa]
00005E43  FF7608            push word [bp+0x8]
00005E46  57                push di
00005E47  E803F0            call 0x4e4d
00005E4A  8956FC            mov [bp-0x4],dx
00005E4D  8946FA            mov [bp-0x6],ax
00005E50  837EFCFF          cmp word [bp-0x4],byte -0x1
00005E54  7509              jnz 0x5e5f
00005E56  837EFAFF          cmp word [bp-0x6],byte -0x1
00005E5A  7503              jnz 0x5e5f
00005E5C  E9C100            jmp 0x5f20
00005E5F  33C0              xor ax,ax
00005E61  50                push ax
00005E62  FF752A            push word [di+0x2a]
00005E65  FF760A            push word [bp+0xa]
00005E68  FF7608            push word [bp+0x8]
00005E6B  E8921B            call 0x7a00
00005E6E  8946F8            mov [bp-0x8],ax
00005E71  D1E0              shl ax,1
00005E73  8B5D30            mov bx,[di+0x30]
00005E76  03D8              add bx,ax
00005E78  8B07              mov ax,[bx]
00005E7A  8946F6            mov [bp-0xa],ax
00005E7D  50                push ax
00005E7E  57                push di
00005E7F  E8B801            call 0x603a
00005E82  0BC0              or ax,ax
00005E84  7520              jnz 0x5ea6
00005E86  FF76F8            push word [bp-0x8]
00005E89  57                push di
00005E8A  E897F6            call 0x5524
00005E8D  8BD0              mov dx,ax
00005E8F  0BD2              or dx,dx
00005E91  7403              jz 0x5e96
00005E93  E9AA00            jmp 0x5f40
00005E96  FF760A            push word [bp+0xa]
00005E99  FF7608            push word [bp+0x8]
00005E9C  57                push di
00005E9D  E8ADEF            call 0x4e4d
00005EA0  8956FC            mov [bp-0x4],dx
00005EA3  8946FA            mov [bp-0x6],ax
00005EA6  B000              mov al,0x0
00005EA8  8846F5            mov [bp-0xb],al
00005EAB  8846F4            mov [bp-0xc],al
00005EAE  8B46FC            mov ax,[bp-0x4]
00005EB1  8B56FA            mov dx,[bp-0x6]
00005EB4  83C206            add dx,byte +0x6
00005EB7  150000            adc ax,0x0
00005EBA  50                push ax
00005EBB  52                push dx
00005EBC  16                push ss
00005EBD  8D46F4            lea ax,[bp-0xc]
00005EC0  50                push ax
00005EC1  B80200            mov ax,0x2
00005EC4  50                push ax
00005EC5  B80400            mov ax,0x4
00005EC8  50                push ax
00005EC9  FF7504            push word [di+0x4]
00005ECC  8B5D04            mov bx,[di+0x4]
00005ECF  8B1F              mov bx,[bx]
00005ED1  FF5704            call near [bx+0x4]
00005ED4  8A4D10            mov cl,[di+0x10]
00005ED7  8B56FC            mov dx,[bp-0x4]
00005EDA  8B46FA            mov ax,[bp-0x6]
00005EDD  E8EF1B            call 0x7acf
00005EE0  8BF0              mov si,ax
00005EE2  8B5D2E            mov bx,[di+0x2e]
00005EE5  03DE              add bx,si
00005EE7  F60780            test byte [bx],0x80
00005EEA  740C              jz 0x5ef8
00005EEC  8B46F8            mov ax,[bp-0x8]
00005EEF  D1E0              shl ax,1
00005EF1  8B5D30            mov bx,[di+0x30]
00005EF4  03D8              add bx,ax
00005EF6  8B37              mov si,[bx]
00005EF8  56                push si
00005EF9  57                push di
00005EFA  E83D01            call 0x603a
00005EFD  0BC0              or ax,ax
00005EFF  741F              jz 0x5f20
00005F01  8B4518            mov ax,[di+0x18]
00005F04  3B46F8            cmp ax,[bp-0x8]
00005F07  7617              jna 0x5f20
00005F09  56                push si
00005F0A  57                push di
00005F0B  E89A01            call 0x60a8
00005F0E  0BC0              or ax,ax
00005F10  7609              jna 0x5f1b
00005F12  8B5D2E            mov bx,[di+0x2e]
00005F15  03DE              add bx,si
00005F17  FE0F              dec byte [bx]
00005F19  EB05              jmp short 0x5f20
00005F1B  B80D00            mov ax,0xd
00005F1E  EB20              jmp short 0x5f40
00005F20  FF46FE            inc word [bp-0x2]
00005F23  83460801          add word [bp+0x8],byte +0x1
00005F27  83560A00          adc word [bp+0xa],byte +0x0
00005F2B  83453A01          add word [di+0x3a],byte +0x1
00005F2F  83553C00          adc word [di+0x3c],byte +0x0
00005F33  8B46FE            mov ax,[bp-0x2]
00005F36  3B4606            cmp ax,[bp+0x6]
00005F39  7D03              jnl 0x5f3e
00005F3B  E902FF            jmp 0x5e40
00005F3E  33C0              xor ax,ax
00005F40  5F                pop di
00005F41  5E                pop si
00005F42  8BE5              mov sp,bp
00005F44  5D                pop bp
00005F45  C20800            ret 0x8
00005F48  55                push bp
00005F49  8BEC              mov bp,sp
00005F4B  83EC08            sub sp,byte +0x8
00005F4E  56                push si
00005F4F  57                push di
00005F50  8B7E04            mov di,[bp+0x4]
00005F53  C746FCFFFF        mov word [bp-0x4],0xffff
00005F58  C746FA0100        mov word [bp-0x6],0x1
00005F5D  C746F80000        mov word [bp-0x8],0x0
00005F62  837E08FF          cmp word [bp+0x8],byte -0x1
00005F66  756F              jnz 0x5fd7
00005F68  837E06FF          cmp word [bp+0x6],byte -0x1
00005F6C  7569              jnz 0x5fd7
00005F6E  837D1600          cmp word [di+0x16],byte +0x0
00005F72  7405              jz 0x5f79
00005F74  B80300            mov ax,0x3
00005F77  EB7A              jmp short 0x5ff3
00005F79  8D46FE            lea ax,[bp-0x2]
00005F7C  50                push ax
00005F7D  57                push di
00005F7E  E852F8            call 0x57d3
00005F81  8946F8            mov [bp-0x8],ax
00005F84  837EF800          cmp word [bp-0x8],byte +0x0
00005F88  7406              jz 0x5f90
00005F8A  837D1E00          cmp word [di+0x1e],byte +0x0
00005F8E  7460              jz 0x5ff0
00005F90  33C0              xor ax,ax
00005F92  EB5F              jmp short 0x5ff3
00005F94  837D1600          cmp word [di+0x16],byte +0x0
00005F98  75DA              jnz 0x5f74
00005F9A  8D46FE            lea ax,[bp-0x2]
00005F9D  50                push ax
00005F9E  57                push di
00005F9F  E844F9            call 0x58e6
00005FA2  8946F8            mov [bp-0x8],ax
00005FA5  837EF800          cmp word [bp-0x8],byte +0x0
00005FA9  7545              jnz 0x5ff0
00005FAB  837EFA00          cmp word [bp-0x6],byte +0x0
00005FAF  740D              jz 0x5fbe
00005FB1  8B46FE            mov ax,[bp-0x2]
00005FB4  8946FC            mov [bp-0x4],ax
00005FB7  C746FA0000        mov word [bp-0x6],0x0
00005FBC  EB19              jmp short 0x5fd7
00005FBE  8B46FC            mov ax,[bp-0x4]
00005FC1  3B46FE            cmp ax,[bp-0x2]
00005FC4  7511              jnz 0x5fd7
00005FC6  8D46FE            lea ax,[bp-0x2]
00005FC9  50                push ax
00005FCA  57                push di
00005FCB  E805F8            call 0x57d3
00005FCE  8946F8            mov [bp-0x8],ax
00005FD1  837EF800          cmp word [bp-0x8],byte +0x0
00005FD5  7519              jnz 0x5ff0
00005FD7  8B5D1E            mov bx,[di+0x1e]
00005FDA  33C9              xor cx,cx
00005FDC  8B452A            mov ax,[di+0x2a]
00005FDF  33D2              xor dx,dx
00005FE1  E87D1B            call 0x7b61
00005FE4  3B5608            cmp dx,[bp+0x8]
00005FE7  7CAB              jl 0x5f94
00005FE9  7505              jnz 0x5ff0
00005FEB  3B4606            cmp ax,[bp+0x6]
00005FEE  72A4              jc 0x5f94
00005FF0  8B46F8            mov ax,[bp-0x8]
00005FF3  5F                pop di
00005FF4  5E                pop si
00005FF5  8BE5              mov sp,bp
00005FF7  5D                pop bp
00005FF8  C20600            ret 0x6
00005FFB  55                push bp
00005FFC  8BEC              mov bp,sp
00005FFE  56                push si
00005FFF  8B5606            mov dx,[bp+0x6]
00006002  8B7604            mov si,[bp+0x4]
00006005  39540C            cmp [si+0xc],dx
00006008  7705              ja 0x600f
0000600A  83FAFF            cmp dx,byte -0x1
0000600D  7505              jnz 0x6014
0000600F  B80100            mov ax,0x1
00006012  EB02              jmp short 0x6016
00006014  33C0              xor ax,ax
00006016  5E                pop si
00006017  5D                pop bp
00006018  C20400            ret 0x4
0000601B  55                push bp
0000601C  8BEC              mov bp,sp
0000601E  56                push si
0000601F  8B4606            mov ax,[bp+0x6]
00006022  8B7604            mov si,[bp+0x4]
00006025  8B5C2E            mov bx,[si+0x2e]
00006028  03D8              add bx,ax
0000602A  802780            and byte [bx],0x80
0000602D  8B5C2E            mov bx,[si+0x2e]
00006030  03D8              add bx,ax
00006032  800F6A            or byte [bx],0x6a
00006035  5E                pop si
00006036  5D                pop bp
00006037  C20400            ret 0x4
0000603A  55                push bp
0000603B  8BEC              mov bp,sp
0000603D  56                push si
0000603E  8B4606            mov ax,[bp+0x6]
00006041  8B7604            mov si,[bp+0x4]
00006044  8B5C2E            mov bx,[si+0x2e]
00006047  03D8              add bx,ax
00006049  803FFF            cmp byte [bx],0xff
0000604C  7414              jz 0x6062
0000604E  8B5C2E            mov bx,[si+0x2e]
00006051  03D8              add bx,ax
00006053  803FEF            cmp byte [bx],0xef
00006056  740A              jz 0x6062
00006058  50                push ax
00006059  56                push si
0000605A  E84B00            call 0x60a8
0000605D  3D4000            cmp ax,0x40
00006060  7705              ja 0x6067
00006062  B80100            mov ax,0x1
00006065  EB02              jmp short 0x6069
00006067  33C0              xor ax,ax
00006069  5E                pop si
0000606A  5D                pop bp
0000606B  C20400            ret 0x4
0000606E  55                push bp
0000606F  8BEC              mov bp,sp
00006071  56                push si
00006072  8B7604            mov si,[bp+0x4]
00006075  8B5C2E            mov bx,[si+0x2e]
00006078  035E06            add bx,[bp+0x6]
0000607B  8A07              mov al,[bx]
0000607D  B400              mov ah,0x0
0000607F  258000            and ax,0x80
00006082  5E                pop si
00006083  5D                pop bp
00006084  C20400            ret 0x4
00006087  55                push bp
00006088  8BEC              mov bp,sp
0000608A  56                push si
0000608B  8B4608            mov ax,[bp+0x8]
0000608E  8B7604            mov si,[bp+0x4]
00006091  8B5C2E            mov bx,[si+0x2e]
00006094  03D8              add bx,ax
00006096  802780            and byte [bx],0x80
00006099  8B5C2E            mov bx,[si+0x2e]
0000609C  03D8              add bx,ax
0000609E  8A4606            mov al,[bp+0x6]
000060A1  0807              or [bx],al
000060A3  5E                pop si
000060A4  5D                pop bp
000060A5  C20600            ret 0x6
000060A8  55                push bp
000060A9  8BEC              mov bp,sp
000060AB  56                push si
000060AC  8B7604            mov si,[bp+0x4]
000060AF  8B5C2E            mov bx,[si+0x2e]
000060B2  035E06            add bx,[bp+0x6]
000060B5  8A07              mov al,[bx]
000060B7  B400              mov ah,0x0
000060B9  257F00            and ax,0x7f
000060BC  5E                pop si
000060BD  5D                pop bp
000060BE  C20400            ret 0x4
000060C1  55                push bp
000060C2  8BEC              mov bp,sp
000060C4  56                push si
000060C5  8B7604            mov si,[bp+0x4]
000060C8  0BF6              or si,si
000060CA  750E              jnz 0x60da
000060CC  B81B00            mov ax,0x1b
000060CF  50                push ax
000060D0  E8561A            call 0x7b29
000060D3  59                pop cx
000060D4  8BF0              mov si,ax
000060D6  0BC0              or ax,ax
000060D8  741D              jz 0x60f7
000060DA  C7049458          mov word [si],0x5894
000060DE  8B4606            mov ax,[bp+0x6]
000060E1  894402            mov [si+0x2],ax
000060E4  C744060000        mov word [si+0x6],0x0
000060E9  C6441600          mov byte [si+0x16],0x0
000060ED  C744170000        mov word [si+0x17],0x0
000060F2  C744190000        mov word [si+0x19],0x0
000060F7  8BC6              mov ax,si
000060F9  5E                pop si
000060FA  5D                pop bp
000060FB  C20400            ret 0x4
000060FE  55                push bp
000060FF  8BEC              mov bp,sp
00006101  56                push si
00006102  8B7604            mov si,[bp+0x4]
00006105  FF760A            push word [bp+0xa]
00006108  FF7608            push word [bp+0x8]
0000610B  FF7402            push word [si+0x2]
0000610E  E89015            call 0x76a1
00006111  5E                pop si
00006112  5D                pop bp
00006113  C20800            ret 0x8
00006116  55                push bp
00006117  8BEC              mov bp,sp
00006119  56                push si
0000611A  8B4608            mov ax,[bp+0x8]
0000611D  8B7604            mov si,[bp+0x4]
00006120  50                push ax
00006121  FF7610            push word [bp+0x10]
00006124  FF760E            push word [bp+0xe]
00006127  50                push ax
00006128  56                push si
00006129  8B1C              mov bx,[si]
0000612B  FF17              call near [bx]
0000612D  52                push dx
0000612E  50                push ax
0000612F  FF760C            push word [bp+0xc]
00006132  FF760A            push word [bp+0xa]
00006135  E80A13            call 0x7442
00006138  83C40A            add sp,byte +0xa
0000613B  33C0              xor ax,ax
0000613D  5E                pop si
0000613E  5D                pop bp
0000613F  C20E00            ret 0xe
00006142  55                push bp
00006143  8BEC              mov bp,sp
00006145  83EC08            sub sp,byte +0x8
00006148  56                push si
00006149  57                push di
0000614A  8B7604            mov si,[bp+0x4]
0000614D  8B5C02            mov bx,[si+0x2]
00006150  F7470E2000        test word [bx+0xe],0x20
00006155  7503              jnz 0x615a
00006157  E9F200            jmp 0x624c
0000615A  53                push bx
0000615B  E8F302            call 0x6451
0000615E  0BC0              or ax,ax
00006160  7403              jz 0x6165
00006162  E9E700            jmp 0x624c
00006165  C646FF00          mov byte [bp-0x1],0x0
00006169  FF7608            push word [bp+0x8]
0000616C  FF7606            push word [bp+0x6]
0000616F  FF7402            push word [si+0x2]
00006172  E82C15            call 0x76a1
00006175  8956FC            mov [bp-0x4],dx
00006178  8946FA            mov [bp-0x6],ax
0000617B  C646F900          mov byte [bp-0x7],0x0
0000617F  837E0A00          cmp word [bp+0xa],byte +0x0
00006183  7404              jz 0x6189
00006185  B0F0              mov al,0xf0
00006187  EB02              jmp short 0x618b
00006189  B0FF              mov al,0xff
0000618B  8846F8            mov [bp-0x8],al
0000618E  C744100000        mov word [si+0x10],0x0
00006193  33FF              xor di,di
00006195  C45EFA            les bx,[bp-0x6]
00006198  03DF              add bx,di
0000619A  8A46F8            mov al,[bp-0x8]
0000619D  268807            mov [es:bx],al
000061A0  8B5EFA            mov bx,[bp-0x6]
000061A3  03DF              add bx,di
000061A5  268807            mov [es:bx],al
000061A8  0BFF              or di,di
000061AA  7509              jnz 0x61b5
000061AC  8B5EFA            mov bx,[bp-0x6]
000061AF  268A07            mov al,[es:bx]
000061B2  8846F9            mov [bp-0x7],al
000061B5  837E0A00          cmp word [bp+0xa],byte +0x0
000061B9  7417              jz 0x61d2
000061BB  8BC7              mov ax,di
000061BD  99                cwd
000061BE  8B5E08            mov bx,[bp+0x8]
000061C1  8B4E06            mov cx,[bp+0x6]
000061C4  03C8              add cx,ax
000061C6  13DA              adc bx,dx
000061C8  53                push bx
000061C9  51                push cx
000061CA  B090              mov al,0x90
000061CC  50                push ax
000061CD  FF560A            call near [bp+0xa]
000061D0  EB09              jmp short 0x61db
000061D2  C45EFA            les bx,[bp-0x6]
000061D5  03DF              add bx,di
000061D7  26C60790          mov byte [es:bx],0x90
000061DB  0BFF              or di,di
000061DD  750B              jnz 0x61ea
000061DF  C45EFA            les bx,[bp-0x6]
000061E2  268A07            mov al,[es:bx]
000061E5  8846FF            mov [bp-0x1],al
000061E8  EB3D              jmp short 0x6227
000061EA  C45EFA            les bx,[bp-0x6]
000061ED  03DF              add bx,di
000061EF  268A07            mov al,[es:bx]
000061F2  3A46FF            cmp al,[bp-0x1]
000061F5  750B              jnz 0x6202
000061F7  8B5EFA            mov bx,[bp-0x6]
000061FA  268A07            mov al,[es:bx]
000061FD  3A46F9            cmp al,[bp-0x7]
00006200  7425              jz 0x6227
00006202  8A46FF            mov al,[bp-0x1]
00006205  B400              mov ah,0x0
00006207  B108              mov cl,0x8
00006209  D3E0              shl ax,cl
0000620B  C45EFA            les bx,[bp-0x6]
0000620E  03DF              add bx,di
00006210  268A17            mov dl,[es:bx]
00006213  B600              mov dh,0x0
00006215  0BC2              or ax,dx
00006217  894406            mov [si+0x6],ax
0000621A  8B5EFA            mov bx,[bp-0x6]
0000621D  03DF              add bx,di
0000621F  8A46F8            mov al,[bp-0x8]
00006222  268807            mov [es:bx],al
00006225  EB14              jmp short 0x623b
00006227  C45EFA            les bx,[bp-0x6]
0000622A  03DF              add bx,di
0000622C  8A46F8            mov al,[bp-0x8]
0000622F  268807            mov [es:bx],al
00006232  47                inc di
00006233  83FF3F            cmp di,byte +0x3f
00006236  7D03              jnl 0x623b
00006238  E95AFF            jmp 0x6195
0000623B  8BC7              mov ax,di
0000623D  48                dec ax
0000623E  85C7              test di,ax
00006240  7407              jz 0x6249
00006242  C744060000        mov word [si+0x6],0x0
00006247  EB03              jmp short 0x624c
00006249  897C12            mov [si+0x12],di
0000624C  5F                pop di
0000624D  5E                pop si
0000624E  8BE5              mov sp,bp
00006250  5D                pop bp
00006251  C20800            ret 0x8
00006254  55                push bp
00006255  8BEC              mov bp,sp
00006257  83EC06            sub sp,byte +0x6
0000625A  56                push si
0000625B  57                push di
0000625C  8B7604            mov si,[bp+0x4]
0000625F  837E0A00          cmp word [bp+0xa],byte +0x0
00006263  7404              jz 0x6269
00006265  B0F0              mov al,0xf0
00006267  EB02              jmp short 0x626b
00006269  B0FF              mov al,0xff
0000626B  8846FF            mov [bp-0x1],al
0000626E  FF7608            push word [bp+0x8]
00006271  FF7606            push word [bp+0x6]
00006274  33C0              xor ax,ax
00006276  50                push ax
00006277  56                push si
00006278  8B1C              mov bx,[si]
0000627A  FF17              call near [bx]
0000627C  8956FC            mov [bp-0x4],dx
0000627F  8946FA            mov [bp-0x6],ax
00006282  837E0A00          cmp word [bp+0xa],byte +0x0
00006286  740F              jz 0x6297
00006288  FF7608            push word [bp+0x8]
0000628B  FF7606            push word [bp+0x6]
0000628E  B090              mov al,0x90
00006290  50                push ax
00006291  FF560A            call near [bp+0xa]
00006294  E9DE00            jmp 0x6375
00006297  C45EFA            les bx,[bp-0x6]
0000629A  26C60790          mov byte [es:bx],0x90
0000629E  E9D400            jmp 0x6375
000062A1  8B4410            mov ax,[si+0x10]
000062A4  99                cwd
000062A5  50                push ax
000062A6  52                push dx
000062A7  8B540E            mov dx,[si+0xe]
000062AA  8B440C            mov ax,[si+0xc]
000062AD  59                pop cx
000062AE  5B                pop bx
000062AF  E8AF18            call 0x7b61
000062B2  034606            add ax,[bp+0x6]
000062B5  135608            adc dx,[bp+0x8]
000062B8  52                push dx
000062B9  50                push ax
000062BA  33C0              xor ax,ax
000062BC  50                push ax
000062BD  56                push si
000062BE  8B1C              mov bx,[si]
000062C0  FF17              call near [bx]
000062C2  8956FC            mov [bp-0x4],dx
000062C5  8946FA            mov [bp-0x6],ax
000062C8  837C1000          cmp word [si+0x10],byte +0x0
000062CC  7E23              jng 0x62f1
000062CE  C45EFA            les bx,[bp-0x6]
000062D1  268A07            mov al,[es:bx]
000062D4  B400              mov ah,0x0
000062D6  B108              mov cl,0x8
000062D8  D3E0              shl ax,cl
000062DA  8B56FA            mov dx,[bp-0x6]
000062DD  035412            add dx,[si+0x12]
000062E0  8BDA              mov bx,dx
000062E2  268A17            mov dl,[es:bx]
000062E5  B600              mov dh,0x0
000062E7  0BC2              or ax,dx
000062E9  3B4406            cmp ax,[si+0x6]
000062EC  7503              jnz 0x62f1
000062EE  E98E00            jmp 0x637f
000062F1  837C1000          cmp word [si+0x10],byte +0x0
000062F5  7404              jz 0x62fb
000062F7  33C0              xor ax,ax
000062F9  EB03              jmp short 0x62fe
000062FB  B80100            mov ax,0x1
000062FE  8BF8              mov di,ax
00006300  EB6B              jmp short 0x636d
00006302  837E0A00          cmp word [bp+0xa],byte +0x0
00006306  742C              jz 0x6334
00006308  8B4410            mov ax,[si+0x10]
0000630B  99                cwd
0000630C  50                push ax
0000630D  52                push dx
0000630E  8B540E            mov dx,[si+0xe]
00006311  8B440C            mov ax,[si+0xc]
00006314  59                pop cx
00006315  5B                pop bx
00006316  E84818            call 0x7b61
00006319  034606            add ax,[bp+0x6]
0000631C  135608            adc dx,[bp+0x8]
0000631F  50                push ax
00006320  8BC7              mov ax,di
00006322  52                push dx
00006323  99                cwd
00006324  5B                pop bx
00006325  59                pop cx
00006326  03C8              add cx,ax
00006328  13DA              adc bx,dx
0000632A  53                push bx
0000632B  51                push cx
0000632C  B090              mov al,0x90
0000632E  50                push ax
0000632F  FF560A            call near [bp+0xa]
00006332  EB09              jmp short 0x633d
00006334  C45EFA            les bx,[bp-0x6]
00006337  03DF              add bx,di
00006339  26C60790          mov byte [es:bx],0x90
0000633D  C45EFA            les bx,[bp-0x6]
00006340  03DF              add bx,di
00006342  268A07            mov al,[es:bx]
00006345  B400              mov ah,0x0
00006347  B108              mov cl,0x8
00006349  D3E0              shl ax,cl
0000634B  8BD7              mov dx,di
0000634D  035412            add dx,[si+0x12]
00006350  0356FA            add dx,[bp-0x6]
00006353  8BDA              mov bx,dx
00006355  268A17            mov dl,[es:bx]
00006358  B600              mov dh,0x0
0000635A  0BC2              or ax,dx
0000635C  3B4406            cmp ax,[si+0x6]
0000635F  751E              jnz 0x637f
00006361  C45EFA            les bx,[bp-0x6]
00006364  03DF              add bx,di
00006366  8A46FF            mov al,[bp-0x1]
00006369  268807            mov [es:bx],al
0000636C  47                inc di
0000636D  397C12            cmp [si+0x12],di
00006370  7F90              jg 0x6302
00006372  FF4410            inc word [si+0x10]
00006375  817C100010        cmp word [si+0x10],0x1000
0000637A  7D03              jnl 0x637f
0000637C  E922FF            jmp 0x62a1
0000637F  FF7608            push word [bp+0x8]
00006382  FF7606            push word [bp+0x6]
00006385  33C0              xor ax,ax
00006387  50                push ax
00006388  56                push si
00006389  8B1C              mov bx,[si]
0000638B  FF17              call near [bx]
0000638D  8956FC            mov [bp-0x4],dx
00006390  8946FA            mov [bp-0x6],ax
00006393  C45EFA            les bx,[bp-0x6]
00006396  8A46FF            mov al,[bp-0x1]
00006399  268807            mov [es:bx],al
0000639C  837C1000          cmp word [si+0x10],byte +0x0
000063A0  7505              jnz 0x63a7
000063A2  B80800            mov ax,0x8
000063A5  EB02              jmp short 0x63a9
000063A7  33C0              xor ax,ax
000063A9  894404            mov [si+0x4],ax
000063AC  5F                pop di
000063AD  5E                pop si
000063AE  8BE5              mov sp,bp
000063B0  5D                pop bp
000063B1  C20800            ret 0x8
000063B4  55                push bp
000063B5  8BEC              mov bp,sp
000063B7  56                push si
000063B8  57                push di
000063B9  8B7E06            mov di,[bp+0x6]
000063BC  8B7604            mov si,[bp+0x4]
000063BF  397C17            cmp [si+0x17],di
000063C2  731D              jnc 0x63e1
000063C4  C744170000        mov word [si+0x17],0x0
000063C9  FF7419            push word [si+0x19]
000063CC  E82516            call 0x79f4
000063CF  59                pop cx
000063D0  57                push di
000063D1  E85517            call 0x7b29
000063D4  59                pop cx
000063D5  894419            mov [si+0x19],ax
000063D8  837C1900          cmp word [si+0x19],byte +0x0
000063DC  7417              jz 0x63f5
000063DE  897C17            mov [si+0x17],di
000063E1  FF760A            push word [bp+0xa]
000063E4  FF7608            push word [bp+0x8]
000063E7  1E                push ds
000063E8  FF7419            push word [si+0x19]
000063EB  57                push di
000063EC  33C0              xor ax,ax
000063EE  50                push ax
000063EF  56                push si
000063F0  8B1C              mov bx,[si]
000063F2  FF5702            call near [bx+0x2]
000063F5  8B4419            mov ax,[si+0x19]
000063F8  8CDA              mov dx,ds
000063FA  5F                pop di
000063FB  5E                pop si
000063FC  5D                pop bp
000063FD  C20800            ret 0x8
00006400  55                push bp
00006401  8BEC              mov bp,sp
00006403  56                push si
00006404  8B7604            mov si,[bp+0x4]
00006407  8B4412            mov ax,[si+0x12]
0000640A  894414            mov [si+0x14],ax
0000640D  EB03              jmp short 0x6412
0000640F  D17C14            sar word [si+0x14],1
00006412  8B4414            mov ax,[si+0x14]
00006415  8B5C02            mov bx,[si+0x2]
00006418  3B4704            cmp ax,[bx+0x4]
0000641B  7FF2              jg 0x640f
0000641D  5E                pop si
0000641E  5D                pop bp
0000641F  C20200            ret 0x2
00006422  55                push bp
00006423  8BEC              mov bp,sp
00006425  56                push si
00006426  8B7604            mov si,[bp+0x4]
00006429  0BF6              or si,si
0000642B  750E              jnz 0x643b
0000642D  B80400            mov ax,0x4
00006430  50                push ax
00006431  E8F516            call 0x7b29
00006434  59                pop cx
00006435  8BF0              mov si,ax
00006437  0BC0              or ax,ax
00006439  740F              jz 0x644a
0000643B  8B4606            mov ax,[bp+0x6]
0000643E  894402            mov [si+0x2],ax
00006441  A19258            mov ax,[0x5892]
00006444  8904              mov [si],ax
00006446  89369258          mov [0x5892],si
0000644A  8BC6              mov ax,si
0000644C  5E                pop si
0000644D  5D                pop bp
0000644E  C20400            ret 0x4
00006451  55                push bp
00006452  8BEC              mov bp,sp
00006454  83EC04            sub sp,byte +0x4
00006457  33C0              xor ax,ax
00006459  33D2              xor dx,dx
0000645B  50                push ax
0000645C  52                push dx
0000645D  FF7604            push word [bp+0x4]
00006460  E83E12            call 0x76a1
00006463  8956FE            mov [bp-0x2],dx
00006466  8946FC            mov [bp-0x4],ax
00006469  C45EFC            les bx,[bp-0x4]
0000646C  268A17            mov dl,[es:bx]
0000646F  0AD2              or dl,dl
00006471  7404              jz 0x6477
00006473  B000              mov al,0x0
00006475  EB02              jmp short 0x6479
00006477  B0FF              mov al,0xff
00006479  8AC8              mov cl,al
0000647B  C45EFC            les bx,[bp-0x4]
0000647E  26880F            mov [es:bx],cl
00006481  26380F            cmp [es:bx],cl
00006484  7508              jnz 0x648e
00006486  268817            mov [es:bx],dl
00006489  B80100            mov ax,0x1
0000648C  EB02              jmp short 0x6490
0000648E  33C0              xor ax,ax
00006490  8BE5              mov sp,bp
00006492  5D                pop bp
00006493  C20200            ret 0x2
00006496  55                push bp
00006497  8BEC              mov bp,sp
00006499  83EC02            sub sp,byte +0x2
0000649C  56                push si
0000649D  57                push di
0000649E  33F6              xor si,si
000064A0  FF7604            push word [bp+0x4]
000064A3  E89C10            call 0x7542
000064A6  FF7604            push word [bp+0x4]
000064A9  E8A211            call 0x764e
000064AC  8946FE            mov [bp-0x2],ax
000064AF  8B3E9258          mov di,[0x5892]
000064B3  EB2B              jmp short 0x64e0
000064B5  F70612590001      test word [0x5912],0x100
000064BB  7405              jz 0x64c2
000064BD  833D00            cmp word [di],byte +0x0
000064C0  751C              jnz 0x64de
000064C2  FF7604            push word [bp+0x4]
000064C5  FF5502            call near [di+0x2]
000064C8  8BF0              mov si,ax
000064CA  837C0400          cmp word [si+0x4],byte +0x0
000064CE  7506              jnz 0x64d6
000064D0  50                push ax
000064D1  E82CFF            call 0x6400
000064D4  EB1F              jmp short 0x64f5
000064D6  B80300            mov ax,0x3
000064D9  50                push ax
000064DA  56                push si
000064DB  E83600            call 0x6514
000064DE  8B3D              mov di,[di]
000064E0  0BFF              or di,di
000064E2  75D1              jnz 0x64b5
000064E4  0BF6              or si,si
000064E6  7505              jnz 0x64ed
000064E8  B80A00            mov ax,0xa
000064EB  EB03              jmp short 0x64f0
000064ED  B80800            mov ax,0x8
000064F0  8946FE            mov [bp-0x2],ax
000064F3  33F6              xor si,si
000064F5  0BF6              or si,si
000064F7  7511              jnz 0x650a
000064F9  FF7604            push word [bp+0x4]
000064FC  33C0              xor ax,ax
000064FE  50                push ax
000064FF  E8BFFB            call 0x60c1
00006502  8BF0              mov si,ax
00006504  8B46FE            mov ax,[bp-0x2]
00006507  894404            mov [si+0x4],ax
0000650A  8BC6              mov ax,si
0000650C  5F                pop di
0000650D  5E                pop si
0000650E  8BE5              mov sp,bp
00006510  5D                pop bp
00006511  C20200            ret 0x2
00006514  55                push bp
00006515  8BEC              mov bp,sp
00006517  56                push si
00006518  57                push di
00006519  8B7E06            mov di,[bp+0x6]
0000651C  8B7604            mov si,[bp+0x4]
0000651F  0BF6              or si,si
00006521  7416              jz 0x6539
00006523  C7049458          mov word [si],0x5894
00006527  FF7419            push word [si+0x19]
0000652A  E8C714            call 0x79f4
0000652D  59                pop cx
0000652E  F7C70100          test di,0x1
00006532  7405              jz 0x6539
00006534  56                push si
00006535  E8BC14            call 0x79f4
00006538  59                pop cx
00006539  5F                pop di
0000653A  5E                pop si
0000653B  5D                pop bp
0000653C  C20400            ret 0x4
0000653F  55                push bp
00006540  8BEC              mov bp,sp
00006542  8B4604            mov ax,[bp+0x4]
00006545  B80100            mov ax,0x1
00006548  5D                pop bp
00006549  C20E00            ret 0xe
0000654C  55                push bp
0000654D  8BEC              mov bp,sp
0000654F  8B4604            mov ax,[bp+0x4]
00006552  B80100            mov ax,0x1
00006555  5D                pop bp
00006556  C20A00            ret 0xa
00006559  55                push bp
0000655A  8BEC              mov bp,sp
0000655C  56                push si
0000655D  8B7604            mov si,[bp+0x4]
00006560  0BF6              or si,si
00006562  750E              jnz 0x6572
00006564  B81600            mov ax,0x16
00006567  50                push ax
00006568  E8BE15            call 0x7b29
0000656B  59                pop cx
0000656C  8BF0              mov si,ax
0000656E  0BC0              or ax,ax
00006570  7436              jz 0x65a8
00006572  C7049E58          mov word [si],0x589e
00006576  8B4606            mov ax,[bp+0x6]
00006579  894402            mov [si+0x2],ax
0000657C  8B5C02            mov bx,[si+0x2]
0000657F  897734            mov [bx+0x34],si
00006582  C7440A0000        mov word [si+0xa],0x0
00006587  C744080000        mov word [si+0x8],0x0
0000658C  C744040000        mov word [si+0x4],0x0
00006591  33C0              xor ax,ax
00006593  89440C            mov [si+0xc],ax
00006596  89440E            mov [si+0xe],ax
00006599  C744140000        mov word [si+0x14],0x0
0000659E  C744120000        mov word [si+0x12],0x0
000065A3  C744060000        mov word [si+0x6],0x0
000065A8  8BC6              mov ax,si
000065AA  5E                pop si
000065AB  5D                pop bp
000065AC  C20400            ret 0x4
000065AF  55                push bp
000065B0  8BEC              mov bp,sp
000065B2  56                push si
000065B3  57                push di
000065B4  8B7E06            mov di,[bp+0x6]
000065B7  8B7604            mov si,[bp+0x4]
000065BA  0BF6              or si,si
000065BC  7436              jz 0x65f4
000065BE  C7049E58          mov word [si],0x589e
000065C2  8B5C02            mov bx,[si+0x2]
000065C5  C747340000        mov word [bx+0x34],0x0
000065CA  837C0400          cmp word [si+0x4],byte +0x0
000065CE  7419              jz 0x65e9
000065D0  B80200            mov ax,0x2
000065D3  50                push ax
000065D4  FF7404            push word [si+0x4]
000065D7  8B5C04            mov bx,[si+0x4]
000065DA  8B1F              mov bx,[bx]
000065DC  FF5708            call near [bx+0x8]
000065DF  B80300            mov ax,0x3
000065E2  50                push ax
000065E3  FF7404            push word [si+0x4]
000065E6  E82BFF            call 0x6514
000065E9  F7C70100          test di,0x1
000065ED  7405              jz 0x65f4
000065EF  56                push si
000065F0  E80114            call 0x79f4
000065F3  59                pop cx
000065F4  5F                pop di
000065F5  5E                pop si
000065F6  5D                pop bp
000065F7  C20400            ret 0x4
000065FA  55                push bp
000065FB  8BEC              mov bp,sp
000065FD  8B4604            mov ax,[bp+0x4]
00006600  8B4606            mov ax,[bp+0x6]
00006603  B109              mov cl,0x9
00006605  D3E0              shl ax,cl
00006607  50                push ax
00006608  B000              mov al,0x0
0000660A  50                push ax
0000660B  FF760A            push word [bp+0xa]
0000660E  FF7608            push word [bp+0x8]
00006611  E86B0E            call 0x747f
00006614  83C408            add sp,byte +0x8
00006617  33C0              xor ax,ax
00006619  5D                pop bp
0000661A  C20C00            ret 0xc
0000661D  55                push bp
0000661E  8BEC              mov bp,sp
00006620  8B4604            mov ax,[bp+0x4]
00006623  B80100            mov ax,0x1
00006626  5D                pop bp
00006627  C20C00            ret 0xc
0000662A  55                push bp
0000662B  8BEC              mov bp,sp
0000662D  8B4604            mov ax,[bp+0x4]
00006630  B80100            mov ax,0x1
00006633  5D                pop bp
00006634  C20800            ret 0x8
00006637  55                push bp
00006638  8BEC              mov bp,sp
0000663A  8B4604            mov ax,[bp+0x4]
0000663D  B80100            mov ax,0x1
00006640  5D                pop bp
00006641  C20600            ret 0x6
00006644  55                push bp
00006645  8BEC              mov bp,sp
00006647  81EC0002          sub sp,0x200
0000664B  56                push si
0000664C  57                push di
0000664D  8B7604            mov si,[bp+0x4]
00006650  0BF6              or si,si
00006652  7511              jnz 0x6665
00006654  B80E00            mov ax,0xe
00006657  50                push ax
00006658  E8CE14            call 0x7b29
0000665B  59                pop cx
0000665C  8BF0              mov si,ax
0000665E  0BC0              or ax,ax
00006660  7503              jnz 0x6665
00006662  E94401            jmp 0x67a9
00006665  C7440C0000        mov word [si+0xc],0x0
0000666A  8B4606            mov ax,[bp+0x6]
0000666D  8904              mov [si],ax
0000666F  8B1C              mov bx,[si]
00006671  837F0600          cmp word [bx+0x6],byte +0x0
00006675  7403              jz 0x667a
00006677  E92F01            jmp 0x67a9
0000667A  33C0              xor ax,ax
0000667C  33D2              xor dx,dx
0000667E  50                push ax
0000667F  52                push dx
00006680  16                push ss
00006681  8D8600FE          lea ax,[bp+0xfe00]
00006685  50                push ax
00006686  B80100            mov ax,0x1
00006689  50                push ax
0000668A  FF34              push word [si]
0000668C  8B1C              mov bx,[si]
0000668E  8B1F              mov bx,[bx]
00006690  FF5702            call near [bx+0x2]
00006693  8B1C              mov bx,[si]
00006695  894706            mov [bx+0x6],ax
00006698  837F0600          cmp word [bx+0x6],byte +0x0
0000669C  7403              jz 0x66a1
0000669E  E90801            jmp 0x67a9
000066A1  817EFE55AA        cmp word [bp-0x2],0xaa55
000066A6  7556              jnz 0x66fe
000066A8  33FF              xor di,di
000066AA  8BDF              mov bx,di
000066AC  B104              mov cl,0x4
000066AE  D3E3              shl bx,cl
000066B0  8D46C2            lea ax,[bp-0x3e]
000066B3  03D8              add bx,ax
000066B5  803F00            cmp byte [bx],0x0
000066B8  743E              jz 0x66f8
000066BA  8B1C              mov bx,[si]
000066BC  8B4708            mov ax,[bx+0x8]
000066BF  0B470A            or ax,[bx+0xa]
000066C2  741C              jz 0x66e0
000066C4  8BDF              mov bx,di
000066C6  D3E3              shl bx,cl
000066C8  8D46C6            lea ax,[bp-0x3a]
000066CB  03D8              add bx,ax
000066CD  8B4702            mov ax,[bx+0x2]
000066D0  8B17              mov dx,[bx]
000066D2  8B1C              mov bx,[si]
000066D4  3B470A            cmp ax,[bx+0xa]
000066D7  771F              ja 0x66f8
000066D9  7205              jc 0x66e0
000066DB  3B5708            cmp dx,[bx+0x8]
000066DE  7318              jnc 0x66f8
000066E0  8BDF              mov bx,di
000066E2  B104              mov cl,0x4
000066E4  D3E3              shl bx,cl
000066E6  8D46C6            lea ax,[bp-0x3a]
000066E9  03D8              add bx,ax
000066EB  8B4702            mov ax,[bx+0x2]
000066EE  8B17              mov dx,[bx]
000066F0  8B1C              mov bx,[si]
000066F2  89470A            mov [bx+0xa],ax
000066F5  895708            mov [bx+0x8],dx
000066F8  47                inc di
000066F9  83FF04            cmp di,byte +0x4
000066FC  7CAC              jl 0x66aa
000066FE  8B1C              mov bx,[si]
00006700  FF770A            push word [bx+0xa]
00006703  FF7708            push word [bx+0x8]
00006706  16                push ss
00006707  8D8600FE          lea ax,[bp+0xfe00]
0000670B  50                push ax
0000670C  B80100            mov ax,0x1
0000670F  50                push ax
00006710  53                push bx
00006711  8B1F              mov bx,[bx]
00006713  FF5702            call near [bx+0x2]
00006716  8B1C              mov bx,[si]
00006718  894706            mov [bx+0x6],ax
0000671B  837F0600          cmp word [bx+0x6],byte +0x0
0000671F  7403              jz 0x6724
00006721  E98500            jmp 0x67a9
00006724  80BE00FEE9        cmp byte [bp+0xfe00],0xe9
00006729  740E              jz 0x6739
0000672B  80BE00FEEB        cmp byte [bp+0xfe00],0xeb
00006730  756E              jnz 0x67a0
00006732  80BE02FE90        cmp byte [bp+0xfe02],0x90
00006737  7567              jnz 0x67a0
00006739  8A860DFE          mov al,[bp+0xfe0d]
0000673D  B400              mov ah,0x0
0000673F  894408            mov [si+0x8],ax
00006742  8B1C              mov bx,[si]
00006744  8B4708            mov ax,[bx+0x8]
00006747  03860EFE          add ax,[bp+0xfe0e]
0000674B  894402            mov [si+0x2],ax
0000674E  8B4402            mov ax,[si+0x2]
00006751  038616FE          add ax,[bp+0xfe16]
00006755  894404            mov [si+0x4],ax
00006758  8A8610FE          mov al,[bp+0xfe10]
0000675C  B400              mov ah,0x0
0000675E  F7AE16FE          imul word [bp+0xfe16]
00006762  8B5402            mov dx,[si+0x2]
00006765  03D0              add dx,ax
00006767  8B8611FE          mov ax,[bp+0xfe11]
0000676B  B105              mov cl,0x5
0000676D  D3E0              shl ax,cl
0000676F  48                dec ax
00006770  B109              mov cl,0x9
00006772  D3E8              shr ax,cl
00006774  03D0              add dx,ax
00006776  42                inc dx
00006777  895406            mov [si+0x6],dx
0000677A  C7440A0400        mov word [si+0xa],0x4
0000677F  83BE13FE00        cmp word [bp+0xfe13],byte +0x0
00006784  7423              jz 0x67a9
00006786  8B4408            mov ax,[si+0x8]
00006789  BAF60F            mov dx,0xff6
0000678C  F7EA              imul dx
0000678E  8B9613FE          mov dx,[bp+0xfe13]
00006792  2B5406            sub dx,[si+0x6]
00006795  3BC2              cmp ax,dx
00006797  7610              jna 0x67a9
00006799  C7440A0300        mov word [si+0xa],0x3
0000679E  EB09              jmp short 0x67a9
000067A0  B8FFFF            mov ax,0xffff
000067A3  894404            mov [si+0x4],ax
000067A6  894402            mov [si+0x2],ax
000067A9  8BC6              mov ax,si
000067AB  5F                pop di
000067AC  5E                pop si
000067AD  8BE5              mov sp,bp
000067AF  5D                pop bp
000067B0  C20400            ret 0x4
000067B3  55                push bp
000067B4  8BEC              mov bp,sp
000067B6  81EC0802          sub sp,0x208
000067BA  56                push si
000067BB  57                push di
000067BC  8B7E04            mov di,[bp+0x4]
000067BF  FF760C            push word [bp+0xc]
000067C2  FF760A            push word [bp+0xa]
000067C5  16                push ss
000067C6  8D86F8FD          lea ax,[bp+0xfdf8]
000067CA  50                push ax
000067CB  B80100            mov ax,0x1
000067CE  50                push ax
000067CF  FF35              push word [di]
000067D1  8B1D              mov bx,[di]
000067D3  8B1F              mov bx,[bx]
000067D5  FF5702            call near [bx+0x2]
000067D8  8BD0              mov dx,ax
000067DA  0BD2              or dx,dx
000067DC  7405              jz 0x67e3
000067DE  8BC2              mov ax,dx
000067E0  E9CD00            jmp 0x68b0
000067E3  837D0A03          cmp word [di+0xa],byte +0x3
000067E7  7516              jnz 0x67ff
000067E9  8B460A            mov ax,[bp+0xa]
000067EC  2B4502            sub ax,[di+0x2]
000067EF  B10A              mov cl,0xa
000067F1  D3E0              shl ax,cl
000067F3  050200            add ax,0x2
000067F6  BB0300            mov bx,0x3
000067F9  33D2              xor dx,dx
000067FB  F7F3              div bx
000067FD  EB0A              jmp short 0x6809
000067FF  8B460A            mov ax,[bp+0xa]
00006802  2B4502            sub ax,[di+0x2]
00006805  B108              mov cl,0x8
00006807  D3E0              shl ax,cl
00006809  8946FE            mov [bp-0x2],ax
0000680C  8B5EFE            mov bx,[bp-0x2]
0000680F  33C9              xor cx,cx
00006811  83C3FE            add bx,byte -0x2
00006814  83D1FF            adc cx,byte -0x1
00006817  8B4508            mov ax,[di+0x8]
0000681A  99                cwd
0000681B  E84313            call 0x7b61
0000681E  50                push ax
0000681F  8B4506            mov ax,[di+0x6]
00006822  52                push dx
00006823  99                cwd
00006824  5B                pop bx
00006825  59                pop cx
00006826  03C8              add cx,ax
00006828  13DA              adc bx,dx
0000682A  895EFC            mov [bp-0x4],bx
0000682D  894EFA            mov [bp-0x6],cx
00006830  8B450A            mov ax,[di+0xa]
00006833  F76EFE            imul word [bp-0x2]
00006836  25FF01            and ax,0x1ff
00006839  8BF0              mov si,ax
0000683B  EB6B              jmp short 0x68a8
0000683D  8BDE              mov bx,si
0000683F  D1EB              shr bx,1
00006841  8D86F8FD          lea ax,[bp+0xfdf8]
00006845  03D8              add bx,ax
00006847  8B17              mov dx,[bx]
00006849  8BC6              mov ax,si
0000684B  D1E8              shr ax,1
0000684D  C45E06            les bx,[bp+0x6]
00006850  03D8              add bx,ax
00006852  268B07            mov ax,[es:bx]
00006855  8946F8            mov [bp-0x8],ax
00006858  F7C60100          test si,0x1
0000685C  7409              jz 0x6867
0000685E  B104              mov cl,0x4
00006860  D3EA              shr dx,cl
00006862  D36EF8            shr word [bp-0x8],cl
00006865  EB0F              jmp short 0x6876
00006867  837D0A03          cmp word [di+0xa],byte +0x3
0000686B  7509              jnz 0x6876
0000686D  81E2FF0F          and dx,0xfff
00006871  8166F8FF0F        and word [bp-0x8],0xfff
00006876  0BD2              or dx,dx
00006878  7421              jz 0x689b
0000687A  837EF800          cmp word [bp-0x8],byte +0x0
0000687E  751B              jnz 0x689b
00006880  FF76FC            push word [bp-0x4]
00006883  FF76FA            push word [bp-0x6]
00006886  FF7508            push word [di+0x8]
00006889  FF35              push word [di]
0000688B  8B1D              mov bx,[di]
0000688D  8B1F              mov bx,[bx]
0000688F  FF5706            call near [bx+0x6]
00006892  8BD0              mov dx,ax
00006894  0BD2              or dx,dx
00006896  7403              jz 0x689b
00006898  E943FF            jmp 0x67de
0000689B  8B4508            mov ax,[di+0x8]
0000689E  99                cwd
0000689F  0146FA            add [bp-0x6],ax
000068A2  1156FC            adc [bp-0x4],dx
000068A5  03750A            add si,[di+0xa]
000068A8  81FEFE03          cmp si,0x3fe
000068AC  728F              jc 0x683d
000068AE  33C0              xor ax,ax
000068B0  5F                pop di
000068B1  5E                pop si
000068B2  8BE5              mov sp,bp
000068B4  5D                pop bp
000068B5  C20A00            ret 0xa
000068B8  55                push bp
000068B9  8BEC              mov bp,sp
000068BB  83EC0A            sub sp,byte +0xa
000068BE  56                push si
000068BF  57                push di
000068C0  8B7E04            mov di,[bp+0x4]
000068C3  8B4504            mov ax,[di+0x4]
000068C6  99                cwd
000068C7  3B560E            cmp dx,[bp+0xe]
000068CA  7D03              jnl 0x68cf
000068CC  E98500            jmp 0x6954
000068CF  7F05              jg 0x68d6
000068D1  3B460C            cmp ax,[bp+0xc]
000068D4  767E              jna 0x6954
000068D6  8B4606            mov ax,[bp+0x6]
000068D9  99                cwd
000068DA  8B5E0E            mov bx,[bp+0xe]
000068DD  8B4E0C            mov cx,[bp+0xc]
000068E0  03C8              add cx,ax
000068E2  13DA              adc bx,dx
000068E4  8B4502            mov ax,[di+0x2]
000068E7  99                cwd
000068E8  3BDA              cmp bx,dx
000068EA  7C68              jl 0x6954
000068EC  7F04              jg 0x68f2
000068EE  3BC8              cmp cx,ax
000068F0  7662              jna 0x6954
000068F2  8B460E            mov ax,[bp+0xe]
000068F5  8B560C            mov dx,[bp+0xc]
000068F8  8946FC            mov [bp-0x4],ax
000068FB  8956FA            mov [bp-0x6],dx
000068FE  8B460A            mov ax,[bp+0xa]
00006901  8B5608            mov dx,[bp+0x8]
00006904  8946F8            mov [bp-0x8],ax
00006907  8956F6            mov [bp-0xa],dx
0000690A  33F6              xor si,si
0000690C  3B7606            cmp si,[bp+0x6]
0000690F  7D43              jnl 0x6954
00006911  8B4502            mov ax,[di+0x2]
00006914  99                cwd
00006915  3B56FC            cmp dx,[bp-0x4]
00006918  7F27              jg 0x6941
0000691A  7505              jnz 0x6921
0000691C  3B46FA            cmp ax,[bp-0x6]
0000691F  7720              ja 0x6941
00006921  8B4504            mov ax,[di+0x4]
00006924  99                cwd
00006925  3B56FC            cmp dx,[bp-0x4]
00006928  7C17              jl 0x6941
0000692A  7F05              jg 0x6931
0000692C  3B46FA            cmp ax,[bp-0x6]
0000692F  7610              jna 0x6941
00006931  FF76FC            push word [bp-0x4]
00006934  FF76FA            push word [bp-0x6]
00006937  FF76F8            push word [bp-0x8]
0000693A  FF76F6            push word [bp-0xa]
0000693D  57                push di
0000693E  E872FE            call 0x67b3
00006941  46                inc si
00006942  8346FA01          add word [bp-0x6],byte +0x1
00006946  8356FC00          adc word [bp-0x4],byte +0x0
0000694A  8146F60002        add word [bp-0xa],0x200
0000694F  3B7606            cmp si,[bp+0x6]
00006952  7CBD              jl 0x6911
00006954  C7450C0100        mov word [di+0xc],0x1
00006959  FF760E            push word [bp+0xe]
0000695C  FF760C            push word [bp+0xc]
0000695F  FF760A            push word [bp+0xa]
00006962  FF7608            push word [bp+0x8]
00006965  FF7606            push word [bp+0x6]
00006968  FF35              push word [di]
0000696A  8B1D              mov bx,[di]
0000696C  8B1F              mov bx,[bx]
0000696E  FF5704            call near [bx+0x4]
00006971  8946FE            mov [bp-0x2],ax
00006974  C7450C0000        mov word [di+0xc],0x0
00006979  5F                pop di
0000697A  5E                pop si
0000697B  8BE5              mov sp,bp
0000697D  5D                pop bp
0000697E  C20C00            ret 0xc
00006981  55                push bp
00006982  8BEC              mov bp,sp
00006984  56                push si
00006985  8B7604            mov si,[bp+0x4]
00006988  0BF6              or si,si
0000698A  750E              jnz 0x699a
0000698C  B85400            mov ax,0x54
0000698F  50                push ax
00006990  E89611            call 0x7b29
00006993  59                pop cx
00006994  8BF0              mov si,ax
00006996  0BC0              or ax,ax
00006998  7419              jz 0x69b3
0000699A  FF7606            push word [bp+0x6]
0000699D  B80100            mov ax,0x1
000069A0  50                push ax
000069A1  56                push si
000069A2  E84EE1            call 0x4af3
000069A5  C704A858          mov word [si],0x58a8
000069A9  56                push si
000069AA  8BC6              mov ax,si
000069AC  054600            add ax,0x46
000069AF  50                push ax
000069B0  E891FC            call 0x6644
000069B3  8BC6              mov ax,si
000069B5  5E                pop si
000069B6  5D                pop bp
000069B7  C20400            ret 0x4
000069BA  55                push bp
000069BB  8BEC              mov bp,sp
000069BD  56                push si
000069BE  8B4606            mov ax,[bp+0x6]
000069C1  8B7604            mov si,[bp+0x4]
000069C4  837C5200          cmp word [si+0x52],byte +0x0
000069C8  7413              jz 0x69dd
000069CA  FF760E            push word [bp+0xe]
000069CD  FF760C            push word [bp+0xc]
000069D0  FF760A            push word [bp+0xa]
000069D3  FF7608            push word [bp+0x8]
000069D6  50                push ax
000069D7  56                push si
000069D8  E890F3            call 0x5d6b
000069DB  EB16              jmp short 0x69f3
000069DD  FF760E            push word [bp+0xe]
000069E0  FF760C            push word [bp+0xc]
000069E3  FF760A            push word [bp+0xa]
000069E6  FF7608            push word [bp+0x8]
000069E9  50                push ax
000069EA  8BC6              mov ax,si
000069EC  054600            add ax,0x46
000069EF  50                push ax
000069F0  E8C5FE            call 0x68b8
000069F3  5E                pop si
000069F4  5D                pop bp
000069F5  C20C00            ret 0xc
000069F8  55                push bp
000069F9  8BEC              mov bp,sp
000069FB  56                push si
000069FC  57                push di
000069FD  8B7E06            mov di,[bp+0x6]
00006A00  8B7604            mov si,[bp+0x4]
00006A03  0BF6              or si,si
00006A05  7414              jz 0x6a1b
00006A07  33C0              xor ax,ax
00006A09  50                push ax
00006A0A  56                push si
00006A0B  E8E1E1            call 0x4bef
00006A0E  F7C70100          test di,0x1
00006A12  7407              jz 0x6a1b
00006A14  56                push si
00006A15  E8DC0F            call 0x79f4
00006A18  59                pop cx
00006A19  EB00              jmp short 0x6a1b
00006A1B  5F                pop di
00006A1C  5E                pop si
00006A1D  5D                pop bp
00006A1E  C20400            ret 0x4
00006A21  55                push bp
00006A22  8BEC              mov bp,sp
00006A24  56                push si
00006A25  57                push di
00006A26  8B7606            mov si,[bp+0x6]
00006A29  8B7E04            mov di,[bp+0x4]
00006A2C  8A04              mov al,[si]
00006A2E  98                cbw
00006A2F  25FF00            and ax,0xff
00006A32  50                push ax
00006A33  8A4401            mov al,[si+0x1]
00006A36  98                cbw
00006A37  250300            and ax,0x3
00006A3A  B108              mov cl,0x8
00006A3C  D3E0              shl ax,cl
00006A3E  5A                pop dx
00006A3F  0BD0              or dx,ax
00006A41  8915              mov [di],dx
00006A43  8A4401            mov al,[si+0x1]
00006A46  98                cbw
00006A47  25FC00            and ax,0xfc
00006A4A  B102              mov cl,0x2
00006A4C  D3F8              sar ax,cl
00006A4E  50                push ax
00006A4F  8A4402            mov al,[si+0x2]
00006A52  98                cbw
00006A53  250F00            and ax,0xf
00006A56  B106              mov cl,0x6
00006A58  D3E0              shl ax,cl
00006A5A  5A                pop dx
00006A5B  0BD0              or dx,ax
00006A5D  895502            mov [di+0x2],dx
00006A60  8A4402            mov al,[si+0x2]
00006A63  98                cbw
00006A64  25F000            and ax,0xf0
00006A67  B104              mov cl,0x4
00006A69  D3F8              sar ax,cl
00006A6B  50                push ax
00006A6C  8A4403            mov al,[si+0x3]
00006A6F  98                cbw
00006A70  253F00            and ax,0x3f
00006A73  D3E0              shl ax,cl
00006A75  5A                pop dx
00006A76  0BD0              or dx,ax
00006A78  895504            mov [di+0x4],dx
00006A7B  8A4403            mov al,[si+0x3]
00006A7E  98                cbw
00006A7F  25C000            and ax,0xc0
00006A82  B106              mov cl,0x6
00006A84  D3F8              sar ax,cl
00006A86  50                push ax
00006A87  8A4404            mov al,[si+0x4]
00006A8A  98                cbw
00006A8B  25FF00            and ax,0xff
00006A8E  B102              mov cl,0x2
00006A90  D3E0              shl ax,cl
00006A92  5A                pop dx
00006A93  0BD0              or dx,ax
00006A95  895506            mov [di+0x6],dx
00006A98  5F                pop di
00006A99  5E                pop si
00006A9A  5D                pop bp
00006A9B  C20400            ret 0x4
00006A9E  55                push bp
00006A9F  8BEC              mov bp,sp
00006AA1  56                push si
00006AA2  57                push di
00006AA3  8B7E08            mov di,[bp+0x8]
00006AA6  8B4E06            mov cx,[bp+0x6]
00006AA9  8BC1              mov ax,cx
00006AAB  D1E0              shl ax,1
00006AAD  8B7604            mov si,[bp+0x4]
00006AB0  03F0              add si,ax
00006AB2  83C6FE            add si,byte -0x2
00006AB5  33D2              xor dx,dx
00006AB7  3BD1              cmp dx,cx
00006AB9  7D11              jnl 0x6acc
00006ABB  8BC7              mov ax,di
00006ABD  250100            and ax,0x1
00006AC0  8904              mov [si],ax
00006AC2  83EE02            sub si,byte +0x2
00006AC5  D1FF              sar di,1
00006AC7  42                inc dx
00006AC8  3BD1              cmp dx,cx
00006ACA  7CEF              jl 0x6abb
00006ACC  5F                pop di
00006ACD  5E                pop si
00006ACE  5D                pop bp
00006ACF  C20600            ret 0x6
00006AD2  55                push bp
00006AD3  8BEC              mov bp,sp
00006AD5  56                push si
00006AD6  57                push di
00006AD7  8B5606            mov dx,[bp+0x6]
00006ADA  8B4E04            mov cx,[bp+0x4]
00006ADD  8BC1              mov ax,cx
00006ADF  48                dec ax
00006AE0  D1E0              shl ax,1
00006AE2  03D0              add dx,ax
00006AE4  33F6              xor si,si
00006AE6  BF0100            mov di,0x1
00006AE9  EB0E              jmp short 0x6af9
00006AEB  8BDA              mov bx,dx
00006AED  83EA02            sub dx,byte +0x2
00006AF0  833F00            cmp word [bx],byte +0x0
00006AF3  7402              jz 0x6af7
00006AF5  0BF7              or si,di
00006AF7  D1E7              shl di,1
00006AF9  8BC1              mov ax,cx
00006AFB  49                dec cx
00006AFC  0BC0              or ax,ax
00006AFE  7FEB              jg 0x6aeb
00006B00  8BC6              mov ax,si
00006B02  5F                pop di
00006B03  5E                pop si
00006B04  5D                pop bp
00006B05  C20400            ret 0x4
00006B08  55                push bp
00006B09  8BEC              mov bp,sp
00006B0B  FF7604            push word [bp+0x4]
00006B0E  E81E01            call 0x6c2f
00006B11  BAFF03            mov dx,0x3ff
00006B14  2BD0              sub dx,ax
00006B16  52                push dx
00006B17  E8E300            call 0x6bfd
00006B1A  5D                pop bp
00006B1B  C20200            ret 0x2
00006B1E  55                push bp
00006B1F  8BEC              mov bp,sp
00006B21  56                push si
00006B22  8B4606            mov ax,[bp+0x6]
00006B25  8B7604            mov si,[bp+0x4]
00006B28  0BC0              or ax,ax
00006B2A  7404              jz 0x6b30
00006B2C  0BF6              or si,si
00006B2E  7504              jnz 0x6b34
00006B30  33C0              xor ax,ax
00006B32  EB1A              jmp short 0x6b4e
00006B34  50                push ax
00006B35  E8F700            call 0x6c2f
00006B38  50                push ax
00006B39  56                push si
00006B3A  E8F200            call 0x6c2f
00006B3D  5A                pop dx
00006B3E  03D0              add dx,ax
00006B40  8BC2              mov ax,dx
00006B42  3DFF03            cmp ax,0x3ff
00006B45  7E03              jng 0x6b4a
00006B47  2DFF03            sub ax,0x3ff
00006B4A  50                push ax
00006B4B  E8AF00            call 0x6bfd
00006B4E  5E                pop si
00006B4F  5D                pop bp
00006B50  C20400            ret 0x4
00006B53  55                push bp
00006B54  8BEC              mov bp,sp
00006B56  FF7606            push word [bp+0x6]
00006B59  FF7604            push word [bp+0x4]
00006B5C  E8A9FF            call 0x6b08
00006B5F  50                push ax
00006B60  E8BBFF            call 0x6b1e
00006B63  5D                pop bp
00006B64  C20400            ret 0x4
00006B67  55                push bp
00006B68  8BEC              mov bp,sp
00006B6A  83EC0A            sub sp,byte +0xa
00006B6D  56                push si
00006B6E  57                push di
00006B6F  33FF              xor di,di
00006B71  BEFE01            mov si,0x1fe
00006B74  EB7A              jmp short 0x6bf0
00006B76  8B5E06            mov bx,[bp+0x6]
00006B79  8B07              mov ax,[bx]
00006B7B  8946F8            mov [bp-0x8],ax
00006B7E  56                push si
00006B7F  E87B00            call 0x6bfd
00006B82  8946FA            mov [bp-0x6],ax
00006B85  8946FC            mov [bp-0x4],ax
00006B88  8BD6              mov dx,si
00006B8A  03D6              add dx,si
00006B8C  81FAFF03          cmp dx,0x3ff
00006B90  7C04              jl 0x6b96
00006B92  81EAFF03          sub dx,0x3ff
00006B96  03D2              add dx,dx
00006B98  81FAFF03          cmp dx,0x3ff
00006B9C  7C04              jl 0x6ba2
00006B9E  81EAFF03          sub dx,0x3ff
00006BA2  52                push dx
00006BA3  E85700            call 0x6bfd
00006BA6  8946F6            mov [bp-0xa],ax
00006BA9  C746FE0100        mov word [bp-0x2],0x1
00006BAE  EB24              jmp short 0x6bd4
00006BB0  8B46FE            mov ax,[bp-0x2]
00006BB3  D1E0              shl ax,1
00006BB5  8B5E06            mov bx,[bp+0x6]
00006BB8  03D8              add bx,ax
00006BBA  FF37              push word [bx]
00006BBC  FF76FA            push word [bp-0x6]
00006BBF  E85CFF            call 0x6b1e
00006BC2  3146F8            xor [bp-0x8],ax
00006BC5  FF76FC            push word [bp-0x4]
00006BC8  FF76FA            push word [bp-0x6]
00006BCB  E850FF            call 0x6b1e
00006BCE  8946FA            mov [bp-0x6],ax
00006BD1  FF46FE            inc word [bp-0x2]
00006BD4  837EFE04          cmp word [bp-0x2],byte +0x4
00006BD8  7CD6              jl 0x6bb0
00006BDA  FF76F8            push word [bp-0x8]
00006BDD  FF76F6            push word [bp-0xa]
00006BE0  E870FF            call 0x6b53
00006BE3  8BD7              mov dx,di
00006BE5  D1E2              shl dx,1
00006BE7  8B5E04            mov bx,[bp+0x4]
00006BEA  03DA              add bx,dx
00006BEC  8907              mov [bx],ax
00006BEE  47                inc di
00006BEF  46                inc si
00006BF0  83FF04            cmp di,byte +0x4
00006BF3  7C81              jl 0x6b76
00006BF5  5F                pop di
00006BF6  5E                pop si
00006BF7  8BE5              mov sp,bp
00006BF9  5D                pop bp
00006BFA  C20400            ret 0x4
00006BFD  55                push bp
00006BFE  8BEC              mov bp,sp
00006C00  8B4E04            mov cx,[bp+0x4]
00006C03  33DB              xor bx,bx
00006C05  BA0100            mov dx,0x1
00006C08  3BD9              cmp bx,cx
00006C0A  7D1D              jnl 0x6c29
00006C0C  D1E2              shl dx,1
00006C0E  81FAFF03          cmp dx,0x3ff
00006C12  7E10              jng 0x6c24
00006C14  F7C20800          test dx,0x8
00006C18  7406              jz 0x6c20
00006C1A  81EA0704          sub dx,0x407
00006C1E  EB04              jmp short 0x6c24
00006C20  81EAF703          sub dx,0x3f7
00006C24  43                inc bx
00006C25  3BD9              cmp bx,cx
00006C27  7CE3              jl 0x6c0c
00006C29  8BC2              mov ax,dx
00006C2B  5D                pop bp
00006C2C  C20200            ret 0x2
00006C2F  55                push bp
00006C30  8BEC              mov bp,sp
00006C32  8B4E04            mov cx,[bp+0x4]
00006C35  0BC9              or cx,cx
00006C37  7505              jnz 0x6c3e
00006C39  B8FFFF            mov ax,0xffff
00006C3C  EB30              jmp short 0x6c6e
00006C3E  33DB              xor bx,bx
00006C40  BA0100            mov dx,0x1
00006C43  EB21              jmp short 0x6c66
00006C45  3BD1              cmp dx,cx
00006C47  7504              jnz 0x6c4d
00006C49  8BC3              mov ax,bx
00006C4B  EB21              jmp short 0x6c6e
00006C4D  D1E2              shl dx,1
00006C4F  81FAFF03          cmp dx,0x3ff
00006C53  7E10              jng 0x6c65
00006C55  F7C20800          test dx,0x8
00006C59  7406              jz 0x6c61
00006C5B  81EA0704          sub dx,0x407
00006C5F  EB04              jmp short 0x6c65
00006C61  81EAF703          sub dx,0x3f7
00006C65  43                inc bx
00006C66  81FBFF03          cmp bx,0x3ff
00006C6A  7ED9              jng 0x6c45
00006C6C  33C0              xor ax,ax
00006C6E  5D                pop bp
00006C6F  C20200            ret 0x2
00006C72  55                push bp
00006C73  8BEC              mov bp,sp
00006C75  83EC0A            sub sp,byte +0xa
00006C78  56                push si
00006C79  57                push di
00006C7A  33FF              xor di,di
00006C7C  33F6              xor si,si
00006C7E  3B7E08            cmp di,[bp+0x8]
00006C81  7C03              jl 0x6c86
00006C83  E91201            jmp 0x6d98
00006C86  8BC7              mov ax,di
00006C88  D1E0              shl ax,1
00006C8A  8B5E0C            mov bx,[bp+0xc]
00006C8D  03D8              add bx,ax
00006C8F  8B07              mov ax,[bx]
00006C91  8946FE            mov [bp-0x2],ax
00006C94  8BC7              mov ax,di
00006C96  D1E0              shl ax,1
00006C98  8B5E0A            mov bx,[bp+0xa]
00006C9B  03D8              add bx,ax
00006C9D  8B07              mov ax,[bx]
00006C9F  8946F8            mov [bp-0x8],ax
00006CA2  8B46FE            mov ax,[bp-0x2]
00006CA5  BA0A00            mov dx,0xa
00006CA8  F7EA              imul dx
00006CAA  05FAFF            add ax,0xfffa
00006CAD  8BD8              mov bx,ax
00006CAF  B103              mov cl,0x3
00006CB1  D3F8              sar ax,cl
00006CB3  8946F6            mov [bp-0xa],ax
00006CB6  D3E0              shl ax,cl
00006CB8  2BD8              sub bx,ax
00006CBA  FF46F6            inc word [bp-0xa]
00006CBD  83FB07            cmp bx,byte +0x7
00006CC0  7562              jnz 0x6d24
00006CC2  8BC6              mov ax,si
00006CC4  D1E0              shl ax,1
00006CC6  8B5E06            mov bx,[bp+0x6]
00006CC9  03D8              add bx,ax
00006CCB  8B46F6            mov ax,[bp-0xa]
00006CCE  40                inc ax
00006CCF  8907              mov [bx],ax
00006CD1  F746F80100        test word [bp-0x8],0x1
00006CD6  7405              jz 0x6cdd
00006CD8  B88000            mov ax,0x80
00006CDB  EB02              jmp short 0x6cdf
00006CDD  33C0              xor ax,ax
00006CDF  8BD6              mov dx,si
00006CE1  D1E2              shl dx,1
00006CE3  8B5E04            mov bx,[bp+0x4]
00006CE6  03DA              add bx,dx
00006CE8  8907              mov [bx],ax
00006CEA  46                inc si
00006CEB  D17EF8            sar word [bp-0x8],1
00006CEE  8BC6              mov ax,si
00006CF0  D1E0              shl ax,1
00006CF2  8B5E06            mov bx,[bp+0x6]
00006CF5  03D8              add bx,ax
00006CF7  8B46F6            mov ax,[bp-0xa]
00006CFA  8907              mov [bx],ax
00006CFC  8BC6              mov ax,si
00006CFE  D1E0              shl ax,1
00006D00  8B5E04            mov bx,[bp+0x4]
00006D03  03D8              add bx,ax
00006D05  8B46F8            mov ax,[bp-0x8]
00006D08  25FF00            and ax,0xff
00006D0B  8907              mov [bx],ax
00006D0D  46                inc si
00006D0E  B108              mov cl,0x8
00006D10  D37EF8            sar word [bp-0x8],cl
00006D13  8BC6              mov ax,si
00006D15  D1E0              shl ax,1
00006D17  8B5E04            mov bx,[bp+0x4]
00006D1A  03D8              add bx,ax
00006D1C  8B46F8            mov ax,[bp-0x8]
00006D1F  25FF00            and ax,0xff
00006D22  EB68              jmp short 0x6d8c
00006D24  B80800            mov ax,0x8
00006D27  2BC3              sub ax,bx
00006D29  8946FC            mov [bp-0x4],ax
00006D2C  B80A00            mov ax,0xa
00006D2F  2B46FC            sub ax,[bp-0x4]
00006D32  8946FA            mov [bp-0x6],ax
00006D35  8BC6              mov ax,si
00006D37  D1E0              shl ax,1
00006D39  8B5E06            mov bx,[bp+0x6]
00006D3C  03D8              add bx,ax
00006D3E  8B46F6            mov ax,[bp-0xa]
00006D41  8907              mov [bx],ax
00006D43  8B5EFA            mov bx,[bp-0x6]
00006D46  D1E3              shl bx,1
00006D48  8B46F8            mov ax,[bp-0x8]
00006D4B  2387B258          and ax,[bx+0x58b2]
00006D4F  B108              mov cl,0x8
00006D51  2A4EFA            sub cl,[bp-0x6]
00006D54  D3E0              shl ax,cl
00006D56  8BD6              mov dx,si
00006D58  D1E2              shl dx,1
00006D5A  8B5E04            mov bx,[bp+0x4]
00006D5D  03DA              add bx,dx
00006D5F  8907              mov [bx],ax
00006D61  46                inc si
00006D62  8A4EFA            mov cl,[bp-0x6]
00006D65  D37EF8            sar word [bp-0x8],cl
00006D68  8BC6              mov ax,si
00006D6A  D1E0              shl ax,1
00006D6C  8B5E06            mov bx,[bp+0x6]
00006D6F  03D8              add bx,ax
00006D71  8B46F6            mov ax,[bp-0xa]
00006D74  48                dec ax
00006D75  8907              mov [bx],ax
00006D77  8B5EFC            mov bx,[bp-0x4]
00006D7A  D1E3              shl bx,1
00006D7C  8B46F8            mov ax,[bp-0x8]
00006D7F  2387B258          and ax,[bx+0x58b2]
00006D83  8BD6              mov dx,si
00006D85  D1E2              shl dx,1
00006D87  8B5E04            mov bx,[bp+0x4]
00006D8A  03DA              add bx,dx
00006D8C  8907              mov [bx],ax
00006D8E  46                inc si
00006D8F  47                inc di
00006D90  3B7E08            cmp di,[bp+0x8]
00006D93  7D03              jnl 0x6d98
00006D95  E9EEFE            jmp 0x6c86
00006D98  33FF              xor di,di
00006D9A  B9FFFF            mov cx,0xffff
00006D9D  3BFE              cmp di,si
00006D9F  7D74              jnl 0x6e15
00006DA1  8BC7              mov ax,di
00006DA3  D1E0              shl ax,1
00006DA5  8B5E04            mov bx,[bp+0x4]
00006DA8  03D8              add bx,ax
00006DAA  833F00            cmp word [bx],byte +0x0
00006DAD  7461              jz 0x6e10
00006DAF  8BC7              mov ax,di
00006DB1  D1E0              shl ax,1
00006DB3  8B5E06            mov bx,[bp+0x6]
00006DB6  03D8              add bx,ax
00006DB8  8B07              mov ax,[bx]
00006DBA  8BD1              mov dx,cx
00006DBC  D1E2              shl dx,1
00006DBE  8B5E06            mov bx,[bp+0x6]
00006DC1  03DA              add bx,dx
00006DC3  3B07              cmp ax,[bx]
00006DC5  751C              jnz 0x6de3
00006DC7  0BC9              or cx,cx
00006DC9  7C18              jl 0x6de3
00006DCB  8BC7              mov ax,di
00006DCD  D1E0              shl ax,1
00006DCF  8B5E04            mov bx,[bp+0x4]
00006DD2  03D8              add bx,ax
00006DD4  8B07              mov ax,[bx]
00006DD6  8BD1              mov dx,cx
00006DD8  D1E2              shl dx,1
00006DDA  8B5E04            mov bx,[bp+0x4]
00006DDD  03DA              add bx,dx
00006DDF  0907              or [bx],ax
00006DE1  EB2D              jmp short 0x6e10
00006DE3  41                inc cx
00006DE4  8BC7              mov ax,di
00006DE6  D1E0              shl ax,1
00006DE8  8B5E06            mov bx,[bp+0x6]
00006DEB  03D8              add bx,ax
00006DED  8B07              mov ax,[bx]
00006DEF  8BD1              mov dx,cx
00006DF1  D1E2              shl dx,1
00006DF3  8B5E06            mov bx,[bp+0x6]
00006DF6  03DA              add bx,dx
00006DF8  8907              mov [bx],ax
00006DFA  8BC7              mov ax,di
00006DFC  D1E0              shl ax,1
00006DFE  8B5E04            mov bx,[bp+0x4]
00006E01  03D8              add bx,ax
00006E03  8B07              mov ax,[bx]
00006E05  8BD1              mov dx,cx
00006E07  D1E2              shl dx,1
00006E09  8B5E04            mov bx,[bp+0x4]
00006E0C  03DA              add bx,dx
00006E0E  8907              mov [bx],ax
00006E10  47                inc di
00006E11  3BFE              cmp di,si
00006E13  7C8C              jl 0x6da1
00006E15  8BC1              mov ax,cx
00006E17  40                inc ax
00006E18  5F                pop di
00006E19  5E                pop si
00006E1A  8BE5              mov sp,bp
00006E1C  5D                pop bp
00006E1D  C20A00            ret 0xa
00006E20  55                push bp
00006E21  8BEC              mov bp,sp
00006E23  FF7604            push word [bp+0x4]
00006E26  E806FE            call 0x6c2f
00006E29  8BD0              mov dx,ax
00006E2B  33DB              xor bx,bx
00006E2D  33C9              xor cx,cx
00006E2F  F7C20002          test dx,0x200
00006E33  7403              jz 0x6e38
00006E35  B90100            mov cx,0x1
00006E38  D1E2              shl dx,1
00006E3A  81E2FF03          and dx,0x3ff
00006E3E  0BD1              or dx,cx
00006E40  43                inc bx
00006E41  83FB09            cmp bx,byte +0x9
00006E44  7CE7              jl 0x6e2d
00006E46  52                push dx
00006E47  E8B3FD            call 0x6bfd
00006E4A  5D                pop bp
00006E4B  C20200            ret 0x2
00006E4E  55                push bp
00006E4F  8BEC              mov bp,sp
00006E51  83EC42            sub sp,byte +0x42
00006E54  56                push si
00006E55  57                push di
00006E56  8B7608            mov si,[bp+0x8]
00006E59  8B7E04            mov di,[bp+0x4]
00006E5C  33C9              xor cx,cx
00006E5E  33D2              xor dx,dx
00006E60  8BDA              mov bx,dx
00006E62  D1E3              shl bx,1
00006E64  833800            cmp word [bx+si],byte +0x0
00006E67  7401              jz 0x6e6a
00006E69  41                inc cx
00006E6A  42                inc dx
00006E6B  83FA04            cmp dx,byte +0x4
00006E6E  7CF0              jl 0x6e60
00006E70  0BC9              or cx,cx
00006E72  7505              jnz 0x6e79
00006E74  33C0              xor ax,ax
00006E76  E99702            jmp 0x7110
00006E79  83F904            cmp cx,byte +0x4
00006E7C  7C79              jl 0x6ef7
00006E7E  FF7402            push word [si+0x2]
00006E81  FF34              push word [si]
00006E83  E8CDFC            call 0x6b53
00006E86  8946F6            mov [bp-0xa],ax
00006E89  FF7404            push word [si+0x4]
00006E8C  FF7402            push word [si+0x2]
00006E8F  E8C1FC            call 0x6b53
00006E92  8946F4            mov [bp-0xc],ax
00006E95  FF7406            push word [si+0x6]
00006E98  FF7404            push word [si+0x4]
00006E9B  E8B5FC            call 0x6b53
00006E9E  8946F2            mov [bp-0xe],ax
00006EA1  8B46F6            mov ax,[bp-0xa]
00006EA4  3B46F4            cmp ax,[bp-0xc]
00006EA7  754E              jnz 0x6ef7
00006EA9  8B46F4            mov ax,[bp-0xc]
00006EAC  3B46F2            cmp ax,[bp-0xe]
00006EAF  7546              jnz 0x6ef7
00006EB1  FF76F6            push word [bp-0xa]
00006EB4  E878FD            call 0x6c2f
00006EB7  8BD0              mov dx,ax
00006EB9  81FA9E01          cmp dx,0x19e
00006EBD  7F38              jg 0x6ef7
00006EBF  8B5E06            mov bx,[bp+0x6]
00006EC2  8917              mov [bx],dx
00006EC4  FF76F6            push word [bp-0xa]
00006EC7  E83EFC            call 0x6b08
00006ECA  8BC8              mov cx,ax
00006ECC  C746E60000        mov word [bp-0x1a],0x0
00006ED1  51                push cx
00006ED2  51                push cx
00006ED3  E848FC            call 0x6b1e
00006ED6  8BC8              mov cx,ax
00006ED8  FF46E6            inc word [bp-0x1a]
00006EDB  837EE609          cmp word [bp-0x1a],byte +0x9
00006EDF  7CF0              jl 0x6ed1
00006EE1  51                push cx
00006EE2  FF76F6            push word [bp-0xa]
00006EE5  E836FC            call 0x6b1e
00006EE8  50                push ax
00006EE9  FF7402            push word [si+0x2]
00006EEC  E82FFC            call 0x6b1e
00006EEF  8905              mov [di],ax
00006EF1  B80100            mov ax,0x1
00006EF4  E91902            jmp 0x7110
00006EF7  FF34              push word [si]
00006EF9  FF7404            push word [si+0x4]
00006EFC  E81FFC            call 0x6b1e
00006EFF  50                push ax
00006F00  FF7402            push word [si+0x2]
00006F03  FF7402            push word [si+0x2]
00006F06  E815FC            call 0x6b1e
00006F09  5A                pop dx
00006F0A  33D0              xor dx,ax
00006F0C  8956FC            mov [bp-0x4],dx
00006F0F  837EFC00          cmp word [bp-0x4],byte +0x0
00006F13  7503              jnz 0x6f18
00006F15  E9B601            jmp 0x70ce
00006F18  FF7402            push word [si+0x2]
00006F1B  FF7406            push word [si+0x6]
00006F1E  E8FDFB            call 0x6b1e
00006F21  50                push ax
00006F22  FF7404            push word [si+0x4]
00006F25  FF7404            push word [si+0x4]
00006F28  E8F3FB            call 0x6b1e
00006F2B  5A                pop dx
00006F2C  33D0              xor dx,ax
00006F2E  8BCA              mov cx,dx
00006F30  0BC9              or cx,cx
00006F32  7503              jnz 0x6f37
00006F34  E99701            jmp 0x70ce
00006F37  51                push cx
00006F38  FF76FC            push word [bp-0x4]
00006F3B  E815FC            call 0x6b53
00006F3E  8946EA            mov [bp-0x16],ax
00006F41  FF7402            push word [si+0x2]
00006F44  FF7404            push word [si+0x4]
00006F47  E8D4FB            call 0x6b1e
00006F4A  50                push ax
00006F4B  FF34              push word [si]
00006F4D  FF7406            push word [si+0x6]
00006F50  E8CBFB            call 0x6b1e
00006F53  5A                pop dx
00006F54  33D0              xor dx,ax
00006F56  8BCA              mov cx,dx
00006F58  0BC9              or cx,cx
00006F5A  7503              jnz 0x6f5f
00006F5C  E96F01            jmp 0x70ce
00006F5F  51                push cx
00006F60  FF76FC            push word [bp-0x4]
00006F63  E8EDFB            call 0x6b53
00006F66  8946EC            mov [bp-0x14],ax
00006F69  FF76EA            push word [bp-0x16]
00006F6C  50                push ax
00006F6D  50                push ax
00006F6E  E8ADFB            call 0x6b1e
00006F71  50                push ax
00006F72  E8DEFB            call 0x6b53
00006F75  8946FE            mov [bp-0x2],ax
00006F78  50                push ax
00006F79  B80A00            mov ax,0xa
00006F7C  50                push ax
00006F7D  8D46BE            lea ax,[bp-0x42]
00006F80  50                push ax
00006F81  E81AFB            call 0x6a9e
00006F84  837EC200          cmp word [bp-0x3e],byte +0x0
00006F88  7403              jz 0x6f8d
00006F8A  E94101            jmp 0x70ce
00006F8D  8B46D0            mov ax,[bp-0x30]
00006F90  8946DA            mov [bp-0x26],ax
00006F93  8B46BE            mov ax,[bp-0x42]
00006F96  3346C0            xor ax,[bp-0x40]
00006F99  8946DC            mov [bp-0x24],ax
00006F9C  8B46CA            mov ax,[bp-0x36]
00006F9F  3346D0            xor ax,[bp-0x30]
00006FA2  8946DE            mov [bp-0x22],ax
00006FA5  8B46C6            mov ax,[bp-0x3a]
00006FA8  3346D0            xor ax,[bp-0x30]
00006FAB  8946D8            mov [bp-0x28],ax
00006FAE  8B46C4            mov ax,[bp-0x3c]
00006FB1  3346C6            xor ax,[bp-0x3a]
00006FB4  3346CA            xor ax,[bp-0x36]
00006FB7  8946D4            mov [bp-0x2c],ax
00006FBA  8B46BE            mov ax,[bp-0x42]
00006FBD  3346D4            xor ax,[bp-0x2c]
00006FC0  8946D2            mov [bp-0x2e],ax
00006FC3  8B46CE            mov ax,[bp-0x32]
00006FC6  3346D2            xor ax,[bp-0x2e]
00006FC9  8946E2            mov [bp-0x1e],ax
00006FCC  8B46CC            mov ax,[bp-0x34]
00006FCF  3346D8            xor ax,[bp-0x28]
00006FD2  3346E2            xor ax,[bp-0x1e]
00006FD5  8946E0            mov [bp-0x20],ax
00006FD8  8B46C8            mov ax,[bp-0x38]
00006FDB  3346E0            xor ax,[bp-0x20]
00006FDE  3346DC            xor ax,[bp-0x24]
00006FE1  3346D2            xor ax,[bp-0x2e]
00006FE4  8946D6            mov [bp-0x2a],ax
00006FE7  C746E40000        mov word [bp-0x1c],0x0
00006FEC  8D46D2            lea ax,[bp-0x2e]
00006FEF  50                push ax
00006FF0  B80A00            mov ax,0xa
00006FF3  50                push ax
00006FF4  E8DBFA            call 0x6ad2
00006FF7  8946FA            mov [bp-0x6],ax
00006FFA  0D0100            or ax,0x1
00006FFD  8946F8            mov [bp-0x8],ax
00007000  FF76EC            push word [bp-0x14]
00007003  FF76FA            push word [bp-0x6]
00007006  E815FB            call 0x6b1e
00007009  8946FA            mov [bp-0x6],ax
0000700C  FF76EC            push word [bp-0x14]
0000700F  FF76F8            push word [bp-0x8]
00007012  E809FB            call 0x6b1e
00007015  8946F8            mov [bp-0x8],ax
00007018  FF76FA            push word [bp-0x6]
0000701B  E811FC            call 0x6c2f
0000701E  8946F0            mov [bp-0x10],ax
00007021  FF76F8            push word [bp-0x8]
00007024  E808FC            call 0x6c2f
00007027  8946EE            mov [bp-0x12],ax
0000702A  817EF09E01        cmp word [bp-0x10],0x19e
0000702F  7E03              jng 0x7034
00007031  E99A00            jmp 0x70ce
00007034  817EEE9E01        cmp word [bp-0x12],0x19e
00007039  7E03              jng 0x703e
0000703B  E99000            jmp 0x70ce
0000703E  8B46FA            mov ax,[bp-0x6]
00007041  3346F8            xor ax,[bp-0x8]
00007044  8946F6            mov [bp-0xa],ax
00007047  FF76FA            push word [bp-0x6]
0000704A  E8D3FD            call 0x6e20
0000704D  8946F4            mov [bp-0xc],ax
00007050  FF76FA            push word [bp-0x6]
00007053  FF76FA            push word [bp-0x6]
00007056  E8C5FA            call 0x6b1e
00007059  8BC8              mov cx,ax
0000705B  FF76F4            push word [bp-0xc]
0000705E  50                push ax
0000705F  E8F1FA            call 0x6b53
00007062  8946F4            mov [bp-0xc],ax
00007065  50                push ax
00007066  FF76F6            push word [bp-0xa]
00007069  E8B2FA            call 0x6b1e
0000706C  8946E8            mov [bp-0x18],ax
0000706F  837EE800          cmp word [bp-0x18],byte +0x0
00007073  7459              jz 0x70ce
00007075  FF34              push word [si]
00007077  FF76F8            push word [bp-0x8]
0000707A  E8A1FA            call 0x6b1e
0000707D  334402            xor ax,[si+0x2]
00007080  8BD0              mov dx,ax
00007082  0BD2              or dx,dx
00007084  7448              jz 0x70ce
00007086  52                push dx
00007087  FF76E8            push word [bp-0x18]
0000708A  E8C6FA            call 0x6b53
0000708D  8905              mov [di],ax
0000708F  FF76F8            push word [bp-0x8]
00007092  E88BFD            call 0x6e20
00007095  8946F4            mov [bp-0xc],ax
00007098  FF76F8            push word [bp-0x8]
0000709B  FF76F8            push word [bp-0x8]
0000709E  E87DFA            call 0x6b1e
000070A1  8BC8              mov cx,ax
000070A3  FF76F4            push word [bp-0xc]
000070A6  50                push ax
000070A7  E8A9FA            call 0x6b53
000070AA  8946F4            mov [bp-0xc],ax
000070AD  50                push ax
000070AE  FF76F6            push word [bp-0xa]
000070B1  E86AFA            call 0x6b1e
000070B4  8946E8            mov [bp-0x18],ax
000070B7  837EE800          cmp word [bp-0x18],byte +0x0
000070BB  7411              jz 0x70ce
000070BD  FF34              push word [si]
000070BF  FF76FA            push word [bp-0x6]
000070C2  E859FA            call 0x6b1e
000070C5  334402            xor ax,[si+0x2]
000070C8  8BD0              mov dx,ax
000070CA  0BD2              or dx,dx
000070CC  7505              jnz 0x70d3
000070CE  B8FFFF            mov ax,0xffff
000070D1  EB3D              jmp short 0x7110
000070D3  52                push dx
000070D4  FF76E8            push word [bp-0x18]
000070D7  E879FA            call 0x6b53
000070DA  894502            mov [di+0x2],ax
000070DD  8B46F0            mov ax,[bp-0x10]
000070E0  3B46EE            cmp ax,[bp-0x12]
000070E3  7E1A              jng 0x70ff
000070E5  8B5E06            mov bx,[bp+0x6]
000070E8  8B46EE            mov ax,[bp-0x12]
000070EB  8907              mov [bx],ax
000070ED  8B46F0            mov ax,[bp-0x10]
000070F0  894702            mov [bx+0x2],ax
000070F3  8B0D              mov cx,[di]
000070F5  8B4502            mov ax,[di+0x2]
000070F8  8905              mov [di],ax
000070FA  894D02            mov [di+0x2],cx
000070FD  EB0E              jmp short 0x710d
000070FF  8B5E06            mov bx,[bp+0x6]
00007102  8B46F0            mov ax,[bp-0x10]
00007105  8907              mov [bx],ax
00007107  8B46EE            mov ax,[bp-0x12]
0000710A  894702            mov [bx+0x2],ax
0000710D  B80200            mov ax,0x2
00007110  5F                pop di
00007111  5E                pop si
00007112  8BE5              mov sp,bp
00007114  5D                pop bp
00007115  C20600            ret 0x6
00007118  55                push bp
00007119  8BEC              mov bp,sp
0000711B  83EC1A            sub sp,byte +0x1a
0000711E  56                push si
0000711F  57                push di
00007120  8B760C            mov si,[bp+0xc]
00007123  8B7E0A            mov di,[bp+0xa]
00007126  8B4604            mov ax,[bp+0x4]
00007129  56                push si
0000712A  8D46E6            lea ax,[bp-0x1a]
0000712D  50                push ax
0000712E  E8F0F8            call 0x6a21
00007131  8A4405            mov al,[si+0x5]
00007134  98                cbw
00007135  25FF00            and ax,0xff
00007138  8946FE            mov [bp-0x2],ax
0000713B  8D46E6            lea ax,[bp-0x1a]
0000713E  50                push ax
0000713F  8D46F6            lea ax,[bp-0xa]
00007142  50                push ax
00007143  E821FA            call 0x6b67
00007146  8D46F6            lea ax,[bp-0xa]
00007149  50                push ax
0000714A  8D46F2            lea ax,[bp-0xe]
0000714D  50                push ax
0000714E  8D46EE            lea ax,[bp-0x12]
00007151  50                push ax
00007152  E8F9FC            call 0x6e4e
00007155  8BF0              mov si,ax
00007157  0BF6              or si,si
00007159  7504              jnz 0x715f
0000715B  33C0              xor ax,ax
0000715D  EB71              jmp short 0x71d0
0000715F  0BF6              or si,si
00007161  7C65              jl 0x71c8
00007163  33C9              xor cx,cx
00007165  3BCE              cmp cx,si
00007167  7D1E              jnl 0x7187
00007169  8BD9              mov bx,cx
0000716B  D1E3              shl bx,1
0000716D  8D46F2            lea ax,[bp-0xe]
00007170  03D8              add bx,ax
00007172  B89E01            mov ax,0x19e
00007175  2B07              sub ax,[bx]
00007177  8BD9              mov bx,cx
00007179  D1E3              shl bx,1
0000717B  8D56F2            lea dx,[bp-0xe]
0000717E  03DA              add bx,dx
00007180  8907              mov [bx],ax
00007182  41                inc cx
00007183  3BCE              cmp cx,si
00007185  7CE2              jl 0x7169
00007187  8D46F2            lea ax,[bp-0xe]
0000718A  50                push ax
0000718B  8D46EE            lea ax,[bp-0x12]
0000718E  50                push ax
0000718F  56                push si
00007190  FF7608            push word [bp+0x8]
00007193  FF7606            push word [bp+0x6]
00007196  E8D9FA            call 0x6c72
00007199  8805              mov [di],al
0000719B  33C9              xor cx,cx
0000719D  8BD1              mov dx,cx
0000719F  EB1B              jmp short 0x71bc
000071A1  8BC1              mov ax,cx
000071A3  D1E0              shl ax,1
000071A5  8B5E08            mov bx,[bp+0x8]
000071A8  03D8              add bx,ax
000071AA  813F0002          cmp word [bx],0x200
000071AE  7F0B              jg 0x71bb
000071B0  8BC1              mov ax,cx
000071B2  D1E0              shl ax,1
000071B4  8B5E06            mov bx,[bp+0x6]
000071B7  03D8              add bx,ax
000071B9  3317              xor dx,[bx]
000071BB  41                inc cx
000071BC  8A05              mov al,[di]
000071BE  98                cbw
000071BF  3BC1              cmp ax,cx
000071C1  7FDE              jg 0x71a1
000071C3  3B56FE            cmp dx,[bp-0x2]
000071C6  7405              jz 0x71cd
000071C8  B80200            mov ax,0x2
000071CB  EB03              jmp short 0x71d0
000071CD  B80100            mov ax,0x1
000071D0  5F                pop di
000071D1  5E                pop si
000071D2  8BE5              mov sp,bp
000071D4  5D                pop bp
000071D5  C20A00            ret 0xa
000071D8  55                push bp
000071D9  8BEC              mov bp,sp
000071DB  83EC1A            sub sp,byte +0x1a
000071DE  56                push si
000071DF  8B7606            mov si,[bp+0x6]
000071E2  8B5604            mov dx,[bp+0x4]
000071E5  FF7608            push word [bp+0x8]
000071E8  8D46FF            lea ax,[bp-0x1]
000071EB  50                push ax
000071EC  8D46F2            lea ax,[bp-0xe]
000071EF  50                push ax
000071F0  8D46E6            lea ax,[bp-0x1a]
000071F3  50                push ax
000071F4  52                push dx
000071F5  E820FF            call 0x7118
000071F8  8BD0              mov dx,ax
000071FA  83FA01            cmp dx,byte +0x1
000071FD  7543              jnz 0x7242
000071FF  33C9              xor cx,cx
00007201  EB33              jmp short 0x7236
00007203  8BD9              mov bx,cx
00007205  D1E3              shl bx,1
00007207  8D46F2            lea ax,[bp-0xe]
0000720A  03D8              add bx,ax
0000720C  8B07              mov ax,[bx]
0000720E  33C6              xor ax,si
00007210  3D0002            cmp ax,0x200
00007213  7D20              jnl 0x7235
00007215  8BD9              mov bx,cx
00007217  D1E3              shl bx,1
00007219  8D46E6            lea ax,[bp-0x1a]
0000721C  03D8              add bx,ax
0000721E  8A07              mov al,[bx]
00007220  8BD9              mov bx,cx
00007222  D1E3              shl bx,1
00007224  8D56F2            lea dx,[bp-0xe]
00007227  03DA              add bx,dx
00007229  8B17              mov dx,[bx]
0000722B  33D6              xor dx,si
0000722D  C45E0A            les bx,[bp+0xa]
00007230  03DA              add bx,dx
00007232  263007            xor [es:bx],al
00007235  41                inc cx
00007236  8A46FF            mov al,[bp-0x1]
00007239  98                cbw
0000723A  3BC1              cmp ax,cx
0000723C  7FC5              jg 0x7203
0000723E  33C0              xor ax,ax
00007240  EB02              jmp short 0x7244
00007242  8BC2              mov ax,dx
00007244  5E                pop si
00007245  8BE5              mov sp,bp
00007247  5D                pop bp
00007248  C20A00            ret 0xa
0000724B  C3                ret
0000724C  9C                pushf
0000724D  FA                cli
0000724E  B000              mov al,0x0
00007250  E643              out 0x43,al
00007252  E8F6FF            call 0x724b
00007255  E440              in al,0x40
00007257  8AD8              mov bl,al
00007259  E8EFFF            call 0x724b
0000725C  E440              in al,0x40
0000725E  8AF8              mov bh,al
00007260  F7D3              not bx
00007262  9D                popf
00007263  8BC3              mov ax,bx
00007265  C3                ret
00007266  55                push bp
00007267  8BEC              mov bp,sp
00007269  83EC04            sub sp,byte +0x4
0000726C  56                push si
0000726D  E8DCFF            call 0x724c
00007270  8BF0              mov si,ax
00007272  33D2              xor dx,dx
00007274  8B5E04            mov bx,[bp+0x4]
00007277  33C9              xor cx,cx
00007279  50                push ax
0000727A  52                push dx
0000727B  8B16C858          mov dx,[0x58c8]
0000727F  A1C658            mov ax,[0x58c6]
00007282  E8DC08            call 0x7b61
00007285  5B                pop bx
00007286  59                pop cx
00007287  03C8              add cx,ax
00007289  13DA              adc bx,dx
0000728B  895EFE            mov [bp-0x2],bx
0000728E  894EFC            mov [bp-0x4],cx
00007291  EB1C              jmp short 0x72af
00007293  3BDE              cmp bx,si
00007295  7316              jnc 0x72ad
00007297  837EFE01          cmp word [bp-0x2],byte +0x1
0000729B  7708              ja 0x72a5
0000729D  7223              jc 0x72c2
0000729F  837EFC00          cmp word [bp-0x4],byte +0x0
000072A3  721D              jc 0x72c2
000072A5  836EFC00          sub word [bp-0x4],byte +0x0
000072A9  835EFE01          sbb word [bp-0x2],byte +0x1
000072AD  8BF3              mov si,bx
000072AF  E89AFF            call 0x724c
000072B2  8BD8              mov bx,ax
000072B4  33D2              xor dx,dx
000072B6  3B56FE            cmp dx,[bp-0x2]
000072B9  72D8              jc 0x7293
000072BB  7505              jnz 0x72c2
000072BD  3B46FC            cmp ax,[bp-0x4]
000072C0  72D1              jc 0x7293
000072C2  5E                pop si
000072C3  8BE5              mov sp,bp
000072C5  5D                pop bp
000072C6  C20200            ret 0x2
000072C9  55                push bp
000072CA  8BEC              mov bp,sp
000072CC  83EC02            sub sp,byte +0x2
000072CF  E87AFF            call 0x724c
000072D2  8946FE            mov [bp-0x2],ax
000072D5  8B4E04            mov cx,[bp+0x4]
000072D8  E2FE              loop 0x72d8
000072DA  E86FFF            call 0x724c
000072DD  2B46FE            sub ax,[bp-0x2]
000072E0  8BE5              mov sp,bp
000072E2  5D                pop bp
000072E3  C20200            ret 0x2
000072E6  56                push si
000072E7  FA                cli
000072E8  B8D007            mov ax,0x7d0
000072EB  50                push ax
000072EC  E8DAFF            call 0x72c9
000072EF  50                push ax
000072F0  B8E803            mov ax,0x3e8
000072F3  50                push ax
000072F4  E8D2FF            call 0x72c9
000072F7  5A                pop dx
000072F8  2BD0              sub dx,ax
000072FA  89160259          mov [0x5902],dx
000072FE  FB                sti
000072FF  33F6              xor si,si
00007301  E848FF            call 0x724c
00007304  A90100            test ax,0x1
00007307  7512              jnz 0x731b
00007309  C706C8580000      mov word [0x58c8],0x0
0000730F  C706C658A904      mov word [0x58c6],0x4a9
00007315  D1260259          shl word [0x5902],1
00007319  EB06              jmp short 0x7321
0000731B  46                inc si
0000731C  83FE64            cmp si,byte +0x64
0000731F  7CE0              jl 0x7301
00007321  5E                pop si
00007322  C3                ret
00007323  50                push ax
00007324  53                push bx
00007325  51                push cx
00007326  52                push dx
00007327  06                push es
00007328  1E                push ds
00007329  56                push si
0000732A  57                push di
0000732B  55                push bp
0000732C  2E8B2E1600        mov bp,[cs:0x16]
00007331  8EDD              mov ds,bp
00007333  9C                pushf
00007334  FF1ECA58          call far [0x58ca]
00007338  FF0E0859          dec word [0x5908]
0000733C  7F0A              jg 0x7348
0000733E  A10659            mov ax,[0x5906]
00007341  A30859            mov [0x5908],ax
00007344  FF160459          call near [0x5904]
00007348  5D                pop bp
00007349  5F                pop di
0000734A  5E                pop si
0000734B  1F                pop ds
0000734C  07                pop es
0000734D  5A                pop dx
0000734E  59                pop cx
0000734F  5B                pop bx
00007350  58                pop ax
00007351  CF                iret
00007352  55                push bp
00007353  8BEC              mov bp,sp
00007355  83EC04            sub sp,byte +0x4
00007358  C746FE0000        mov word [bp-0x2],0x0
0000735D  C746FC2000        mov word [bp-0x4],0x20
00007362  A1CA58            mov ax,[0x58ca]
00007365  0B06CC58          or ax,[0x58cc]
00007369  753B              jnz 0x73a6
0000736B  8B4606            mov ax,[bp+0x6]
0000736E  A30459            mov [0x5904],ax
00007371  8B5E04            mov bx,[bp+0x4]
00007374  33C9              xor cx,cx
00007376  33D2              xor dx,dx
00007378  B89500            mov ax,0x95
0000737B  E8E307            call 0x7b61
0000737E  B10D              mov cl,0xd
00007380  E84C07            call 0x7acf
00007383  40                inc ax
00007384  A30659            mov [0x5906],ax
00007387  A30859            mov [0x5908],ax
0000738A  C45EFC            les bx,[bp-0x4]
0000738D  268B4702          mov ax,[es:bx+0x2]
00007391  268B17            mov dx,[es:bx]
00007394  A3CC58            mov [0x58cc],ax
00007397  8916CA58          mov [0x58ca],dx
0000739B  FA                cli
0000739C  268C4F02          mov [es:bx+0x2],cs
000073A0  26C707234B        mov word [es:bx],0x4b23
000073A5  FB                sti
000073A6  8BE5              mov sp,bp
000073A8  5D                pop bp
000073A9  C20400            ret 0x4
000073AC  55                push bp
000073AD  8BEC              mov bp,sp
000073AF  83EC04            sub sp,byte +0x4
000073B2  C746FE0000        mov word [bp-0x2],0x0
000073B7  C746FC2000        mov word [bp-0x4],0x20
000073BC  A1CA58            mov ax,[0x58ca]
000073BF  0B06CC58          or ax,[0x58cc]
000073C3  742E              jz 0x73f3
000073C5  C45EFC            les bx,[bp-0x4]
000073C8  8CC8              mov ax,cs
000073CA  26394702          cmp [es:bx+0x2],ax
000073CE  7523              jnz 0x73f3
000073D0  26813F234B        cmp word [es:bx],0x4b23
000073D5  751C              jnz 0x73f3
000073D7  FA                cli
000073D8  A1CC58            mov ax,[0x58cc]
000073DB  8B16CA58          mov dx,[0x58ca]
000073DF  26894702          mov [es:bx+0x2],ax
000073E3  268917            mov [es:bx],dx
000073E6  FB                sti
000073E7  C706CC580000      mov word [0x58cc],0x0
000073ED  C706CA580000      mov word [0x58ca],0x0
000073F3  8BE5              mov sp,bp
000073F5  5D                pop bp
000073F6  C3                ret
000073F7  2E833EC45800      cmp word [cs:0x58c4],byte +0x0
000073FD  740D              jz 0x740c
000073FF  2EC706C4580000    mov word [cs:0x58c4],0x0
00007406  50                push ax
00007407  B40D              mov ah,0xd
00007409  CD21              int 0x21
0000740B  58                pop ax
0000740C  2EFF2ECE58        jmp far [cs:0x58ce]
00007411  C3                ret
00007412  55                push bp
00007413  8BEC              mov bp,sp
00007415  83EC04            sub sp,byte +0x4
00007418  C746FE0000        mov word [bp-0x2],0x0
0000741D  C746FC8400        mov word [bp-0x4],0x84
00007422  C45EFC            les bx,[bp-0x4]
00007425  268B4702          mov ax,[es:bx+0x2]
00007429  268B17            mov dx,[es:bx]
0000742C  A3D058            mov [0x58d0],ax
0000742F  8916CE58          mov [0x58ce],dx
00007433  FA                cli
00007434  268C4F02          mov [es:bx+0x2],cs
00007438  26C707F74B        mov word [es:bx],0x4bf7
0000743D  FB                sti
0000743E  8BE5              mov sp,bp
00007440  5D                pop bp
00007441  C3                ret
00007442  55                push bp
00007443  8BEC              mov bp,sp
00007445  56                push si
00007446  57                push di
00007447  1E                push ds
00007448  8B4E0C            mov cx,[bp+0xc]
0000744B  C57608            lds si,[bp+0x8]
0000744E  C47E04            les di,[bp+0x4]
00007451  D1E9              shr cx,1
00007453  F3A5              rep movsw
00007455  7301              jnc 0x7458
00007457  A4                movsb
00007458  1F                pop ds
00007459  5F                pop di
0000745A  5E                pop si
0000745B  5D                pop bp
0000745C  C3                ret
0000745D  55                push bp
0000745E  8BEC              mov bp,sp
00007460  56                push si
00007461  57                push di
00007462  1E                push ds
00007463  8B4E0C            mov cx,[bp+0xc]
00007466  C57608            lds si,[bp+0x8]
00007469  C47E04            les di,[bp+0x4]
0000746C  33C0              xor ax,ax
0000746E  D1E9              shr cx,1
00007470  F3A7              repe cmpsw
00007472  7505              jnz 0x7479
00007474  7304              jnc 0x747a
00007476  A6                cmpsb
00007477  7401              jz 0x747a
00007479  40                inc ax
0000747A  1F                pop ds
0000747B  5F                pop di
0000747C  5E                pop si
0000747D  5D                pop bp
0000747E  C3                ret
0000747F  55                push bp
00007480  8BEC              mov bp,sp
00007482  57                push di
00007483  8B4E0A            mov cx,[bp+0xa]
00007486  8A4608            mov al,[bp+0x8]
00007489  8AE0              mov ah,al
0000748B  C47E04            les di,[bp+0x4]
0000748E  D1E9              shr cx,1
00007490  F3AB              rep stosw
00007492  7301              jnc 0x7495
00007494  AA                stosb
00007495  5F                pop di
00007496  5D                pop bp
00007497  C3                ret
00007498  55                push bp
00007499  8BEC              mov bp,sp
0000749B  56                push si
0000749C  57                push di
0000749D  8A4604            mov al,[bp+0x4]
000074A0  A22F59            mov [0x592f],al
000074A3  A01C59            mov al,[0x591c]
000074A6  A22E59            mov [0x592e],al
000074A9  C41E1859          les bx,[0x5918]
000074AD  26810F0800        or word [es:bx],0x8
000074B2  A12E59            mov ax,[0x592e]
000074B5  8B1E3259          mov bx,[0x5932]
000074B9  8B0E3659          mov cx,[0x5936]
000074BD  8B163A59          mov dx,[0x593a]
000074C1  8B364259          mov si,[0x5942]
000074C5  8B3E3E59          mov di,[0x593e]
000074C9  8E064059          mov es,[0x5940]
000074CD  8CDD              mov bp,ds
000074CF  F70612590200      test word [0x5912],0x2
000074D5  7403              jz 0x74da
000074D7  80EC40            sub ah,0x40
000074DA  F70612590100      test word [0x5912],0x1
000074E0  7504              jnz 0x74e6
000074E2  CD1A              int 0x1a
000074E4  EB04              jmp short 0x74ea
000074E6  FF1E1459          call far [0x5914]
000074EA  1E                push ds
000074EB  8EDD              mov ds,bp
000074ED  8F064459          pop word [0x5944]
000074F1  A32E59            mov [0x592e],ax
000074F4  7202              jc 0x74f8
000074F6  31C0              xor ax,ax
000074F8  891E3259          mov [0x5932],bx
000074FC  890E3659          mov [0x5936],cx
00007500  89163A59          mov [0x593a],dx
00007504  89364259          mov [0x5942],si
00007508  893E3E59          mov [0x593e],di
0000750C  8C064059          mov [0x5940],es
00007510  C41E1859          les bx,[0x5918]
00007514  268127F7FF        and word [es:bx],0xfff7
00007519  5F                pop di
0000751A  5E                pop si
0000751B  5D                pop bp
0000751C  C20200            ret 0x2
0000751F  55                push bp
00007520  8BEC              mov bp,sp
00007522  8A4604            mov al,[bp+0x4]
00007525  A23259            mov [0x5932],al
00007528  B08F              mov al,0x8f
0000752A  50                push ax
0000752B  E86AFF            call 0x7498
0000752E  813E10590001      cmp word [0x5910],0x100
00007534  7505              jnz 0x753b
00007536  A03A59            mov al,[0x593a]
00007539  EB03              jmp short 0x753e
0000753B  A03359            mov al,[0x5933]
0000753E  5D                pop bp
0000753F  C20200            ret 0x2
00007542  55                push bp
00007543  8BEC              mov bp,sp
00007545  56                push si
00007546  8B7604            mov si,[bp+0x4]
00007549  C6440C00          mov byte [si+0xc],0x0
0000754D  813E10590001      cmp word [0x5910],0x100
00007553  7518              jnz 0x756d
00007555  8A4406            mov al,[si+0x6]
00007558  A23259            mov [0x5932],al
0000755B  B08D              mov al,0x8d
0000755D  50                push ax
0000755E  E837FF            call 0x7498
00007561  C70642590100      mov word [0x5942],0x1
00007567  B08E              mov al,0x8e
00007569  50                push ax
0000756A  E82BFF            call 0x7498
0000756D  F7440E4000        test word [si+0xe],0x40
00007572  7423              jz 0x7597
00007574  8A4406            mov al,[si+0x6]
00007577  A23259            mov [0x5932],al
0000757A  B08D              mov al,0x8d
0000757C  50                push ax
0000757D  E818FF            call 0x7498
00007580  813E10590001      cmp word [0x5910],0x100
00007586  7504              jnz 0x758c
00007588  B000              mov al,0x0
0000758A  EB02              jmp short 0x758e
0000758C  B080              mov al,0x80
0000758E  A23B59            mov [0x593b],al
00007591  B08E              mov al,0x8e
00007593  50                push ax
00007594  E801FF            call 0x7498
00007597  807C1F00          cmp byte [si+0x1f],0x0
0000759B  7C18              jl 0x75b5
0000759D  8A4406            mov al,[si+0x6]
000075A0  A23259            mov [0x5932],al
000075A3  B08D              mov al,0x8d
000075A5  50                push ax
000075A6  E8EFFE            call 0x7498
000075A9  8A441F            mov al,[si+0x1f]
000075AC  A23759            mov [0x5937],al
000075AF  B08E              mov al,0x8e
000075B1  50                push ax
000075B2  E8E3FE            call 0x7498
000075B5  83640EEF          and word [si+0xe],byte -0x11
000075B9  8A4406            mov al,[si+0x6]
000075BC  50                push ax
000075BD  E85FFF            call 0x751f
000075C0  B400              mov ah,0x0
000075C2  258100            and ax,0x81
000075C5  3D8100            cmp ax,0x81
000075C8  7504              jnz 0x75ce
000075CA  834C0E10          or word [si+0xe],byte +0x10
000075CE  5E                pop si
000075CF  5D                pop bp
000075D0  C20200            ret 0x2
000075D3  55                push bp
000075D4  8BEC              mov bp,sp
000075D6  56                push si
000075D7  57                push di
000075D8  8B7E06            mov di,[bp+0x6]
000075DB  8B7604            mov si,[bp+0x4]
000075DE  F7440E0100        test word [si+0xe],0x1
000075E3  743C              jz 0x7621
000075E5  8A4406            mov al,[si+0x6]
000075E8  A23259            mov [0x5932],al
000075EB  B08D              mov al,0x8d
000075ED  50                push ax
000075EE  E8A7FE            call 0x7498
000075F1  0BFF              or di,di
000075F3  7414              jz 0x7609
000075F5  813E10590001      cmp word [0x5910],0x100
000075FB  7504              jnz 0x7601
000075FD  B001              mov al,0x1
000075FF  EB02              jmp short 0x7603
00007601  B040              mov al,0x40
00007603  08063A59          or [0x593a],al
00007607  EB12              jmp short 0x761b
00007609  813E10590001      cmp word [0x5910],0x100
0000760F  7504              jnz 0x7615
00007611  B0FE              mov al,0xfe
00007613  EB02              jmp short 0x7617
00007615  B0BF              mov al,0xbf
00007617  20063A59          and [0x593a],al
0000761B  B08E              mov al,0x8e
0000761D  50                push ax
0000761E  E877FE            call 0x7498
00007621  0BFF              or di,di
00007623  7511              jnz 0x7636
00007625  C70628590000      mov word [0x5928],0x0
0000762B  833E1E5900        cmp word [0x591e],byte +0x0
00007630  7504              jnz 0x7636
00007632  56                push si
00007633  E80703            call 0x793d
00007636  5F                pop di
00007637  5E                pop si
00007638  5D                pop bp
00007639  C20400            ret 0x4
0000763C  55                push bp
0000763D  8BEC              mov bp,sp
0000763F  56                push si
00007640  8B7604            mov si,[bp+0x4]
00007643  8B440E            mov ax,[si+0xe]
00007646  251000            and ax,0x10
00007649  5E                pop si
0000764A  5D                pop bp
0000764B  C20200            ret 0x2
0000764E  55                push bp
0000764F  8BEC              mov bp,sp
00007651  56                push si
00007652  8B7604            mov si,[bp+0x4]
00007655  8A4406            mov al,[si+0x6]
00007658  50                push ax
00007659  E8C3FE            call 0x751f
0000765C  A880              test al,0x80
0000765E  7509              jnz 0x7669
00007660  C6440C01          mov byte [si+0xc],0x1
00007664  B80300            mov ax,0x3
00007667  EB33              jmp short 0x769c
00007669  F7440E4000        test word [si+0xe],0x40
0000766E  741F              jz 0x768f
00007670  8A440C            mov al,[si+0xc]
00007673  98                cbw
00007674  0BC0              or ax,ax
00007676  7517              jnz 0x768f
00007678  8A4406            mov al,[si+0x6]
0000767B  A23259            mov [0x5932],al
0000767E  B08D              mov al,0x8d
00007680  50                push ax
00007681  E814FE            call 0x7498
00007684  F6063B5980        test byte [0x593b],0x80
00007689  7404              jz 0x768f
0000768B  C6440C01          mov byte [si+0xc],0x1
0000768F  807C0C00          cmp byte [si+0xc],0x0
00007693  7405              jz 0x769a
00007695  B81000            mov ax,0x10
00007698  EB02              jmp short 0x769c
0000769A  33C0              xor ax,ax
0000769C  5E                pop si
0000769D  5D                pop bp
0000769E  C20200            ret 0x2
000076A1  55                push bp
000076A2  8BEC              mov bp,sp
000076A4  83EC04            sub sp,byte +0x4
000076A7  56                push si
000076A8  8B7604            mov si,[bp+0x4]
000076AB  8B441A            mov ax,[si+0x1a]
000076AE  8B5418            mov dx,[si+0x18]
000076B1  F7D2              not dx
000076B3  F7D0              not ax
000076B5  52                push dx
000076B6  8B5608            mov dx,[bp+0x8]
000076B9  50                push ax
000076BA  8B4606            mov ax,[bp+0x6]
000076BD  5B                pop bx
000076BE  59                pop cx
000076BF  23C1              and ax,cx
000076C1  23D3              and dx,bx
000076C3  B10C              mov cl,0xc
000076C5  E80704            call 0x7acf
000076C8  8956FE            mov [bp-0x2],dx
000076CB  8946FC            mov [bp-0x4],ax
000076CE  39362859          cmp [0x5928],si
000076D2  7514              jnz 0x76e8
000076D4  A12C59            mov ax,[0x592c]
000076D7  8B162A59          mov dx,[0x592a]
000076DB  3B46FE            cmp ax,[bp-0x2]
000076DE  7508              jnz 0x76e8
000076E0  3B56FC            cmp dx,[bp-0x4]
000076E3  7503              jnz 0x76e8
000076E5  E9F100            jmp 0x77d9
000076E8  8B46FE            mov ax,[bp-0x2]
000076EB  8B56FC            mov dx,[bp-0x4]
000076EE  A32C59            mov [0x592c],ax
000076F1  89162A59          mov [0x592a],dx
000076F5  813E10590001      cmp word [0x5910],0x100
000076FB  7409              jz 0x7706
000076FD  39362859          cmp [0x5928],si
00007701  7503              jnz 0x7706
00007703  E99900            jmp 0x779f
00007706  89362859          mov [0x5928],si
0000770A  8A4410            mov al,[si+0x10]
0000770D  A23359            mov [0x5933],al
00007710  B088              mov al,0x88
00007712  50                push ax
00007713  E882FD            call 0x7498
00007716  8A4406            mov al,[si+0x6]
00007719  A23259            mov [0x5932],al
0000771C  8B541A            mov dx,[si+0x1a]
0000771F  8B4418            mov ax,[si+0x18]
00007722  050100            add ax,0x1
00007725  83D200            adc dx,byte +0x0
00007728  B10C              mov cl,0xc
0000772A  E8A203            call 0x7acf
0000772D  A33659            mov [0x5936],ax
00007730  8A441C            mov al,[si+0x1c]
00007733  A23A59            mov [0x593a],al
00007736  813E10590001      cmp word [0x5910],0x100
0000773C  752E              jnz 0x776c
0000773E  80263B59E4        and byte [0x593b],0xe4
00007743  800E3B5904        or byte [0x593b],0x4
00007748  8B4412            mov ax,[si+0x12]
0000774B  A34259            mov [0x5942],ax
0000774E  8B46FC            mov ax,[bp-0x4]
00007751  A33E59            mov [0x593e],ax
00007754  8B46FE            mov ax,[bp-0x2]
00007757  33D2              xor dx,dx
00007759  250800            and ax,0x8
0000775C  0BD0              or dx,ax
0000775E  741C              jz 0x777c
00007760  83263E59FF        and word [0x593e],byte -0x1
00007765  800E3B5902        or byte [0x593b],0x2
0000776A  EB10              jmp short 0x777c
0000776C  80263B59F2        and byte [0x593b],0xf2
00007771  800E3B5902        or byte [0x593b],0x2
00007776  8B4412            mov ax,[si+0x12]
00007779  A33E59            mov [0x593e],ax
0000777C  F7440E0800        test word [si+0xe],0x8
00007781  7410              jz 0x7793
00007783  813E10590001      cmp word [0x5910],0x100
00007789  7504              jnz 0x778f
0000778B  B008              mov al,0x8
0000778D  EB02              jmp short 0x7791
0000778F  B004              mov al,0x4
00007791  EB02              jmp short 0x7795
00007793  B000              mov al,0x0
00007795  08063B59          or [0x593b],al
00007799  B089              mov al,0x89
0000779B  50                push ax
0000779C  E8F9FC            call 0x7498
0000779F  813E10590001      cmp word [0x5910],0x100
000077A5  7432              jz 0x77d9
000077A7  8A4410            mov al,[si+0x10]
000077AA  A23359            mov [0x5933],al
000077AD  C606325900        mov byte [0x5932],0x0
000077B2  8B46FC            mov ax,[bp-0x4]
000077B5  A33E59            mov [0x593e],ax
000077B8  C6063A5902        mov byte [0x593a],0x2
000077BD  8B46FE            mov ax,[bp-0x2]
000077C0  33D2              xor dx,dx
000077C2  250800            and ax,0x8
000077C5  0BD0              or dx,ax
000077C7  740A              jz 0x77d3
000077C9  83263E59FF        and word [0x593e],byte -0x1
000077CE  800E3A5901        or byte [0x593a],0x1
000077D3  B08B              mov al,0x8b
000077D5  50                push ax
000077D6  E8BFFC            call 0x7498
000077D9  8B5416            mov dx,[si+0x16]
000077DC  8B4414            mov ax,[si+0x14]
000077DF  8B5E06            mov bx,[bp+0x6]
000077E2  235C18            and bx,[si+0x18]
000077E5  03C3              add ax,bx
000077E7  5E                pop si
000077E8  8BE5              mov sp,bp
000077EA  5D                pop bp
000077EB  C20600            ret 0x6
000077EE  55                push bp
000077EF  8BEC              mov bp,sp
000077F1  8B4604            mov ax,[bp+0x4]
000077F4  FF7606            push word [bp+0x6]
000077F7  FF760E            push word [bp+0xe]
000077FA  FF760C            push word [bp+0xc]
000077FD  50                push ax
000077FE  E8A0FE            call 0x76a1
00007801  52                push dx
00007802  50                push ax
00007803  FF760A            push word [bp+0xa]
00007806  FF7608            push word [bp+0x8]
00007809  E836FC            call 0x7442
0000780C  83C40A            add sp,byte +0xa
0000780F  5D                pop bp
00007810  C20C00            ret 0xc
00007813  55                push bp
00007814  8BEC              mov bp,sp
00007816  56                push si
00007817  8B7604            mov si,[bp+0x4]
0000781A  F7440E0200        test word [si+0xe],0x2
0000781F  7404              jz 0x7825
00007821  83640EF7          and word [si+0xe],byte -0x9
00007825  837E0600          cmp word [bp+0x6],byte +0x0
00007829  740B              jz 0x7836
0000782B  F7440E0400        test word [si+0xe],0x4
00007830  7404              jz 0x7836
00007832  834C0E08          or word [si+0xe],byte +0x8
00007836  C70628590000      mov word [0x5928],0x0
0000783C  33C0              xor ax,ax
0000783E  5E                pop si
0000783F  5D                pop bp
00007840  C20400            ret 0x4
00007843  55                push bp
00007844  8BEC              mov bp,sp
00007846  56                push si
00007847  8B7604            mov si,[bp+0x4]
0000784A  807C1D00          cmp byte [si+0x1d],0x0
0000784E  7D0F              jnl 0x785f
00007850  807C1DFF          cmp byte [si+0x1d],0xff
00007854  7504              jnz 0x785a
00007856  33C0              xor ax,ax
00007858  EB03              jmp short 0x785d
0000785A  B80100            mov ax,0x1
0000785D  EB56              jmp short 0x78b5
0000785F  FF4420            inc word [si+0x20]
00007862  C45C30            les bx,[si+0x30]
00007865  26FF4720          inc word [es:bx+0x20]
00007869  26837F2200        cmp word [es:bx+0x22],byte +0x0
0000786E  753A              jnz 0x78aa
00007870  8A4406            mov al,[si+0x6]
00007873  A23259            mov [0x5932],al
00007876  B08D              mov al,0x8d
00007878  50                push ax
00007879  E81CFC            call 0x7498
0000787C  8A441D            mov al,[si+0x1d]
0000787F  A23659            mov [0x5936],al
00007882  813E10590001      cmp word [0x5910],0x100
00007888  7405              jz 0x788f
0000788A  C6063B5900        mov byte [0x593b],0x0
0000788F  B08E              mov al,0x8e
00007891  50                push ax
00007892  E803FC            call 0x7498
00007895  0BC0              or ax,ax
00007897  7411              jz 0x78aa
00007899  C45C30            les bx,[si+0x30]
0000789C  33C0              xor ax,ax
0000789E  26894720          mov [es:bx+0x20],ax
000078A2  894420            mov [si+0x20],ax
000078A5  B80100            mov ax,0x1
000078A8  EB0B              jmp short 0x78b5
000078AA  C45C30            les bx,[si+0x30]
000078AD  26C747220100      mov word [es:bx+0x22],0x1
000078B3  33C0              xor ax,ax
000078B5  5E                pop si
000078B6  5D                pop bp
000078B7  C20200            ret 0x2
000078BA  55                push bp
000078BB  8BEC              mov bp,sp
000078BD  56                push si
000078BE  8B7604            mov si,[bp+0x4]
000078C1  837C2000          cmp word [si+0x20],byte +0x0
000078C5  7E0A              jng 0x78d1
000078C7  FF4C20            dec word [si+0x20]
000078CA  C45C30            les bx,[si+0x30]
000078CD  26FF4F20          dec word [es:bx+0x20]
000078D1  5E                pop si
000078D2  5D                pop bp
000078D3  C20200            ret 0x2
000078D6  55                push bp
000078D7  8BEC              mov bp,sp
000078D9  83EC18            sub sp,byte +0x18
000078DC  56                push si
000078DD  57                push di
000078DE  C41E1859          les bx,[0x5918]
000078E2  26F7070800        test word [es:bx],0x8
000078E7  753C              jnz 0x7925
000078E9  FB                sti
000078EA  8D46E8            lea ax,[bp-0x18]
000078ED  16                push ss
000078EE  50                push ax
000078EF  B82E59            mov ax,0x592e
000078F2  1E                push ds
000078F3  50                push ax
000078F4  B91800            mov cx,0x18
000078F7  E87E02            call 0x7b78
000078FA  8B360C59          mov si,[0x590c]
000078FE  33FF              xor di,di
00007900  3B3E0A59          cmp di,[0x590a]
00007904  7D0F              jnl 0x7915
00007906  FF34              push word [si]
00007908  E83200            call 0x793d
0000790B  47                inc di
0000790C  83C602            add si,byte +0x2
0000790F  3B3E0A59          cmp di,[0x590a]
00007913  7CF1              jl 0x7906
00007915  B82E59            mov ax,0x592e
00007918  1E                push ds
00007919  50                push ax
0000791A  8D46E8            lea ax,[bp-0x18]
0000791D  16                push ss
0000791E  50                push ax
0000791F  B91800            mov cx,0x18
00007922  E85302            call 0x7b78
00007925  C41ED258          les bx,[0x58d2]
00007929  268B4702          mov ax,[es:bx+0x2]
0000792D  268B17            mov dx,[es:bx]
00007930  A3D858            mov [0x58d8],ax
00007933  8916D658          mov [0x58d6],dx
00007937  5F                pop di
00007938  5E                pop si
00007939  8BE5              mov sp,bp
0000793B  5D                pop bp
0000793C  C3                ret
0000793D  55                push bp
0000793E  8BEC              mov bp,sp
00007940  56                push si
00007941  8B7604            mov si,[bp+0x4]
00007944  F7440E4000        test word [si+0xe],0x40
00007949  7517              jnz 0x7962
0000794B  8A440C            mov al,[si+0xc]
0000794E  98                cbw
0000794F  0BC0              or ax,ax
00007951  750F              jnz 0x7962
00007953  8A4406            mov al,[si+0x6]
00007956  50                push ax
00007957  E8C5FB            call 0x751f
0000795A  A880              test al,0x80
0000795C  7504              jnz 0x7962
0000795E  C6440C01          mov byte [si+0xc],0x1
00007962  F70612598000      test word [0x5912],0x80
00007968  7529              jnz 0x7993
0000796A  833E1E5900        cmp word [0x591e],byte +0x0
0000796F  7422              jz 0x7993
00007971  C41ED258          les bx,[0x58d2]
00007975  268B4702          mov ax,[es:bx+0x2]
00007979  268B17            mov dx,[es:bx]
0000797C  2B16D658          sub dx,[0x58d6]
00007980  1B06D858          sbb ax,[0x58d8]
00007984  0BC0              or ax,ax
00007986  7C0B              jl 0x7993
00007988  7F05              jg 0x798f
0000798A  83FA64            cmp dx,byte +0x64
0000798D  7604              jna 0x7993
0000798F  C6440C01          mov byte [si+0xc],0x1
00007993  C45C30            les bx,[si+0x30]
00007996  26837F2201        cmp word [es:bx+0x22],byte +0x1
0000799B  7538              jnz 0x79d5
0000799D  26837F2000        cmp word [es:bx+0x20],byte +0x0
000079A2  7531              jnz 0x79d5
000079A4  807C1E00          cmp byte [si+0x1e],0x0
000079A8  7C2B              jl 0x79d5
000079AA  26C747220000      mov word [es:bx+0x22],0x0
000079B0  8A4406            mov al,[si+0x6]
000079B3  A23259            mov [0x5932],al
000079B6  B08D              mov al,0x8d
000079B8  50                push ax
000079B9  E8DCFA            call 0x7498
000079BC  8A441E            mov al,[si+0x1e]
000079BF  A23659            mov [0x5936],al
000079C2  813E10590001      cmp word [0x5910],0x100
000079C8  7405              jz 0x79cf
000079CA  C6063B5900        mov byte [0x593b],0x0
000079CF  B08E              mov al,0x8e
000079D1  50                push ax
000079D2  E8C3FA            call 0x7498
000079D5  5E                pop si
000079D6  5D                pop bp
000079D7  C20200            ret 0x2
000079DA  B80A59            mov ax,0x590a
000079DD  50                push ax
000079DE  E8F90F            call 0x89da
000079E1  C41ED258          les bx,[0x58d2]
000079E5  268B4702          mov ax,[es:bx+0x2]
000079E9  268B17            mov dx,[es:bx]
000079EC  A3D858            mov [0x58d8],ax
000079EF  8916D658          mov [0x58d6],dx
000079F3  C3                ret
000079F4  55                push bp
000079F5  8BEC              mov bp,sp
000079F7  FF7604            push word [bp+0x4]
000079FA  E80602            call 0x7c03
000079FD  59                pop cx
000079FE  5D                pop bp
000079FF  C3                ret
00007A00  59                pop cx
00007A01  0E                push cs
00007A02  51                push cx
00007A03  33C9              xor cx,cx
00007A05  EB16              jmp short 0x7a1d
00007A07  59                pop cx
00007A08  0E                push cs
00007A09  51                push cx
00007A0A  B90100            mov cx,0x1
00007A0D  EB0E              jmp short 0x7a1d
00007A0F  59                pop cx
00007A10  0E                push cs
00007A11  51                push cx
00007A12  B90200            mov cx,0x2
00007A15  EB06              jmp short 0x7a1d
00007A17  59                pop cx
00007A18  0E                push cs
00007A19  51                push cx
00007A1A  B90300            mov cx,0x3
00007A1D  55                push bp
00007A1E  56                push si
00007A1F  57                push di
00007A20  8BEC              mov bp,sp
00007A22  8BF9              mov di,cx
00007A24  8B460A            mov ax,[bp+0xa]
00007A27  8B560C            mov dx,[bp+0xc]
00007A2A  8B5E0E            mov bx,[bp+0xe]
00007A2D  8B4E10            mov cx,[bp+0x10]
00007A30  0BC9              or cx,cx
00007A32  7508              jnz 0x7a3c
00007A34  0BD2              or dx,dx
00007A36  7469              jz 0x7aa1
00007A38  0BDB              or bx,bx
00007A3A  7465              jz 0x7aa1
00007A3C  F7C70100          test di,0x1
00007A40  751C              jnz 0x7a5e
00007A42  0BD2              or dx,dx
00007A44  790A              jns 0x7a50
00007A46  F7DA              neg dx
00007A48  F7D8              neg ax
00007A4A  83DA00            sbb dx,byte +0x0
00007A4D  83CF0C            or di,byte +0xc
00007A50  0BC9              or cx,cx
00007A52  790A              jns 0x7a5e
00007A54  F7D9              neg cx
00007A56  F7DB              neg bx
00007A58  83D900            sbb cx,byte +0x0
00007A5B  83F704            xor di,byte +0x4
00007A5E  8BE9              mov bp,cx
00007A60  B92000            mov cx,0x20
00007A63  57                push di
00007A64  33FF              xor di,di
00007A66  33F6              xor si,si
00007A68  D1E0              shl ax,1
00007A6A  D1D2              rcl dx,1
00007A6C  D1D6              rcl si,1
00007A6E  D1D7              rcl di,1
00007A70  3BFD              cmp di,bp
00007A72  720B              jc 0x7a7f
00007A74  7704              ja 0x7a7a
00007A76  3BF3              cmp si,bx
00007A78  7205              jc 0x7a7f
00007A7A  2BF3              sub si,bx
00007A7C  1BFD              sbb di,bp
00007A7E  40                inc ax
00007A7F  E2E7              loop 0x7a68
00007A81  5B                pop bx
00007A82  F7C30200          test bx,0x2
00007A86  7406              jz 0x7a8e
00007A88  8BC6              mov ax,si
00007A8A  8BD7              mov dx,di
00007A8C  D1EB              shr bx,1
00007A8E  F7C30400          test bx,0x4
00007A92  7407              jz 0x7a9b
00007A94  F7DA              neg dx
00007A96  F7D8              neg ax
00007A98  83DA00            sbb dx,byte +0x0
00007A9B  5F                pop di
00007A9C  5E                pop si
00007A9D  5D                pop bp
00007A9E  CA0800            retf 0x8
00007AA1  F7F3              div bx
00007AA3  F7C70200          test di,0x2
00007AA7  7401              jz 0x7aaa
00007AA9  92                xchg ax,dx
00007AAA  33D2              xor dx,dx
00007AAC  EBED              jmp short 0x7a9b
00007AAE  5B                pop bx
00007AAF  0E                push cs
00007AB0  53                push bx
00007AB1  80F910            cmp cl,0x10
00007AB4  7310              jnc 0x7ac6
00007AB6  8BD8              mov bx,ax
00007AB8  D3E0              shl ax,cl
00007ABA  D3E2              shl dx,cl
00007ABC  F6D9              neg cl
00007ABE  80C110            add cl,0x10
00007AC1  D3EB              shr bx,cl
00007AC3  0BD3              or dx,bx
00007AC5  CB                retf
00007AC6  80E910            sub cl,0x10
00007AC9  92                xchg ax,dx
00007ACA  33C0              xor ax,ax
00007ACC  D3E2              shl dx,cl
00007ACE  CB                retf
00007ACF  5B                pop bx
00007AD0  0E                push cs
00007AD1  53                push bx
00007AD2  80F910            cmp cl,0x10
00007AD5  7310              jnc 0x7ae7
00007AD7  8BDA              mov bx,dx
00007AD9  D3E8              shr ax,cl
00007ADB  D3FA              sar dx,cl
00007ADD  F6D9              neg cl
00007ADF  80C110            add cl,0x10
00007AE2  D3E3              shl bx,cl
00007AE4  0BC3              or ax,bx
00007AE6  CB                retf
00007AE7  80E910            sub cl,0x10
00007AEA  92                xchg ax,dx
00007AEB  99                cwd
00007AEC  D3F8              sar ax,cl
00007AEE  CB                retf
00007AEF  5B                pop bx
00007AF0  0E                push cs
00007AF1  53                push bx
00007AF2  80F910            cmp cl,0x10
00007AF5  7310              jnc 0x7b07
00007AF7  8BDA              mov bx,dx
00007AF9  D3E8              shr ax,cl
00007AFB  D3EA              shr dx,cl
00007AFD  F6D9              neg cl
00007AFF  80C110            add cl,0x10
00007B02  D3E3              shl bx,cl
00007B04  0BC3              or ax,bx
00007B06  CB                retf
00007B07  80E910            sub cl,0x10
00007B0A  92                xchg ax,dx
00007B0B  33D2              xor dx,dx
00007B0D  D3E8              shr ax,cl
00007B0F  CB                retf
00007B10  55                push bp
00007B11  8BEC              mov bp,sp
00007B13  83EC02            sub sp,byte +0x2
00007B16  A14659            mov ax,[0x5946]
00007B19  8946FE            mov [bp-0x2],ax
00007B1C  8B4604            mov ax,[bp+0x4]
00007B1F  A34659            mov [0x5946],ax
00007B22  8B46FE            mov ax,[bp-0x2]
00007B25  8BE5              mov sp,bp
00007B27  5D                pop bp
00007B28  C3                ret
00007B29  55                push bp
00007B2A  8BEC              mov bp,sp
00007B2C  83EC02            sub sp,byte +0x2
00007B2F  56                push si
00007B30  8B7604            mov si,[bp+0x4]
00007B33  0BF6              or si,si
00007B35  7404              jz 0x7b3b
00007B37  8BC6              mov ax,si
00007B39  EB03              jmp short 0x7b3e
00007B3B  B80100            mov ax,0x1
00007B3E  8BF0              mov si,ax
00007B40  EB04              jmp short 0x7b46
00007B42  FF164659          call near [0x5946]
00007B46  56                push si
00007B47  E88801            call 0x7cd2
00007B4A  59                pop cx
00007B4B  8946FE            mov [bp-0x2],ax
00007B4E  0BC0              or ax,ax
00007B50  7507              jnz 0x7b59
00007B52  833E465900        cmp word [0x5946],byte +0x0
00007B57  75E9              jnz 0x7b42
00007B59  8B46FE            mov ax,[bp-0x2]
00007B5C  5E                pop si
00007B5D  8BE5              mov sp,bp
00007B5F  5D                pop bp
00007B60  C3                ret
00007B61  56                push si
00007B62  96                xchg ax,si
00007B63  92                xchg ax,dx
00007B64  85C0              test ax,ax
00007B66  7402              jz 0x7b6a
00007B68  F7E3              mul bx
00007B6A  E305              jcxz 0x7b71
00007B6C  91                xchg ax,cx
00007B6D  F7E6              mul si
00007B6F  03C1              add ax,cx
00007B71  96                xchg ax,si
00007B72  F7E3              mul bx
00007B74  03D6              add dx,si
00007B76  5E                pop si
00007B77  C3                ret
00007B78  55                push bp
00007B79  8BEC              mov bp,sp
00007B7B  56                push si
00007B7C  57                push di
00007B7D  1E                push ds
00007B7E  C57604            lds si,[bp+0x4]
00007B81  C47E08            les di,[bp+0x8]
00007B84  FC                cld
00007B85  D1E9              shr cx,1
00007B87  F3A5              rep movsw
00007B89  13C9              adc cx,cx
00007B8B  F3A4              rep movsb
00007B8D  1F                pop ds
00007B8E  5F                pop di
00007B8F  5E                pop si
00007B90  5D                pop bp
00007B91  C20800            ret 0x8
00007B94  55                push bp
00007B95  8BEC              mov bp,sp
00007B97  8B4604            mov ax,[bp+0x4]
00007B9A  8BD4              mov dx,sp
00007B9C  81EA0002          sub dx,0x200
00007BA0  3BC2              cmp ax,dx
00007BA2  7307              jnc 0x7bab
00007BA4  A30357            mov [0x5703],ax
00007BA7  33C0              xor ax,ax
00007BA9  EB09              jmp short 0x7bb4
00007BAB  C706FB560800      mov word [0x56fb],0x8
00007BB1  B8FFFF            mov ax,0xffff
00007BB4  5D                pop bp
00007BB5  C3                ret
00007BB6  55                push bp
00007BB7  8BEC              mov bp,sp
00007BB9  8B4604            mov ax,[bp+0x4]
00007BBC  8B5606            mov dx,[bp+0x6]
00007BBF  03060357          add ax,[0x5703]
00007BC3  83D200            adc dx,byte +0x0
00007BC6  8BC8              mov cx,ax
00007BC8  0BD2              or dx,dx
00007BCA  7510              jnz 0x7bdc
00007BCC  81C10002          add cx,0x200
00007BD0  720A              jc 0x7bdc
00007BD2  3BCC              cmp cx,sp
00007BD4  7306              jnc 0x7bdc
00007BD6  87060357          xchg ax,[0x5703]
00007BDA  EB09              jmp short 0x7be5
00007BDC  C706FB560800      mov word [0x56fb],0x8
00007BE2  B8FFFF            mov ax,0xffff
00007BE5  5D                pop bp
00007BE6  C3                ret
00007BE7  55                push bp
00007BE8  8BEC              mov bp,sp
00007BEA  FF7604            push word [bp+0x4]
00007BED  E8A4FF            call 0x7b94
00007BF0  59                pop cx
00007BF1  5D                pop bp
00007BF2  C3                ret
00007BF3  55                push bp
00007BF4  8BEC              mov bp,sp
00007BF6  8B4604            mov ax,[bp+0x4]
00007BF9  99                cwd
00007BFA  52                push dx
00007BFB  50                push ax
00007BFC  E8B7FF            call 0x7bb6
00007BFF  59                pop cx
00007C00  59                pop cx
00007C01  5D                pop bp
00007C02  C3                ret
00007C03  56                push si
00007C04  57                push di
00007C05  8BF4              mov si,sp
00007C07  8B5C06            mov bx,[si+0x6]
00007C0A  83EB04            sub bx,byte +0x4
00007C0D  720E              jc 0x7c1d
00007C0F  3B1EDC58          cmp bx,[0x58dc]
00007C13  7405              jz 0x7c1a
00007C15  E84200            call 0x7c5a
00007C18  EB03              jmp short 0x7c1d
00007C1A  E80300            call 0x7c20
00007C1D  5F                pop di
00007C1E  5E                pop si
00007C1F  C3                ret
00007C20  391EDA58          cmp [0x58da],bx
00007C24  7423              jz 0x7c49
00007C26  8B7702            mov si,[bx+0x2]
00007C29  F60401            test byte [si],0x1
00007C2C  7406              jz 0x7c34
00007C2E  8936DC58          mov [0x58dc],si
00007C32  EB20              jmp short 0x7c54
00007C34  3B36DA58          cmp si,[0x58da]
00007C38  740D              jz 0x7c47
00007C3A  8BDE              mov bx,si
00007C3C  E85400            call 0x7c93
00007C3F  8B4702            mov ax,[bx+0x2]
00007C42  A3DC58            mov [0x58dc],ax
00007C45  EB0D              jmp short 0x7c54
00007C47  8BDE              mov bx,si
00007C49  33C0              xor ax,ax
00007C4B  A3DA58            mov [0x58da],ax
00007C4E  A3DC58            mov [0x58dc],ax
00007C51  A3DE58            mov [0x58de],ax
00007C54  53                push bx
00007C55  E83CFF            call 0x7b94
00007C58  5B                pop bx
00007C59  C3                ret
00007C5A  FF0F              dec word [bx]
00007C5C  3B1EDA58          cmp bx,[0x58da]
00007C60  7418              jz 0x7c7a
00007C62  8B7702            mov si,[bx+0x2]
00007C65  8B04              mov ax,[si]
00007C67  A801              test al,0x1
00007C69  750F              jnz 0x7c7a
00007C6B  0307              add ax,[bx]
00007C6D  8904              mov [si],ax
00007C6F  8B3F              mov di,[bx]
00007C71  03FB              add di,bx
00007C73  897502            mov [di+0x2],si
00007C76  8BDE              mov bx,si
00007C78  EB03              jmp short 0x7c7d
00007C7A  E83200            call 0x7caf
00007C7D  8B3F              mov di,[bx]
00007C7F  03FB              add di,bx
00007C81  8B05              mov ax,[di]
00007C83  A801              test al,0x1
00007C85  7401              jz 0x7c88
00007C87  C3                ret
00007C88  0107              add [bx],ax
00007C8A  8BF7              mov si,di
00007C8C  03F0              add si,ax
00007C8E  895C02            mov [si+0x2],bx
00007C91  8BDF              mov bx,di
00007C93  8B7F06            mov di,[bx+0x6]
00007C96  3BDF              cmp bx,di
00007C98  740E              jz 0x7ca8
00007C9A  893EDE58          mov [0x58de],di
00007C9E  8B7704            mov si,[bx+0x4]
00007CA1  897504            mov [di+0x4],si
00007CA4  897C06            mov [si+0x6],di
00007CA7  C3                ret
00007CA8  C706DE580000      mov word [0x58de],0x0
00007CAE  C3                ret
00007CAF  8B36DE58          mov si,[0x58de]
00007CB3  0BF6              or si,si
00007CB5  7410              jz 0x7cc7
00007CB7  8B7C06            mov di,[si+0x6]
00007CBA  895C06            mov [si+0x6],bx
00007CBD  895D04            mov [di+0x4],bx
00007CC0  897F06            mov [bx+0x6],di
00007CC3  897704            mov [bx+0x4],si
00007CC6  C3                ret
00007CC7  891EDE58          mov [0x58de],bx
00007CCB  895F04            mov [bx+0x4],bx
00007CCE  895F06            mov [bx+0x6],bx
00007CD1  C3                ret
00007CD2  56                push si
00007CD3  57                push di
00007CD4  8BF4              mov si,sp
00007CD6  8B4406            mov ax,[si+0x6]
00007CD9  0BC0              or ax,ax
00007CDB  7452              jz 0x7d2f
00007CDD  050500            add ax,0x5
00007CE0  7236              jc 0x7d18
00007CE2  25FEFF            and ax,0xfffe
00007CE5  3D0800            cmp ax,0x8
00007CE8  7303              jnc 0x7ced
00007CEA  B80800            mov ax,0x8
00007CED  833EDA5800        cmp word [0x58da],byte +0x0
00007CF2  741F              jz 0x7d13
00007CF4  8B1EDE58          mov bx,[0x58de]
00007CF8  0BDB              or bx,bx
00007CFA  740D              jz 0x7d09
00007CFC  8BD3              mov dx,bx
00007CFE  3907              cmp [bx],ax
00007D00  731A              jnc 0x7d1c
00007D02  8B5F06            mov bx,[bx+0x6]
00007D05  3BDA              cmp bx,dx
00007D07  75F5              jnz 0x7cfe
00007D09  E86600            call 0x7d72
00007D0C  EB21              jmp short 0x7d2f
00007D0E  E88A00            call 0x7d9b
00007D11  EB1C              jmp short 0x7d2f
00007D13  E81C00            call 0x7d32
00007D16  EB17              jmp short 0x7d2f
00007D18  33C0              xor ax,ax
00007D1A  EB13              jmp short 0x7d2f
00007D1C  8BF0              mov si,ax
00007D1E  83C608            add si,byte +0x8
00007D21  3937              cmp [bx],si
00007D23  73E9              jnc 0x7d0e
00007D25  E86BFF            call 0x7c93
00007D28  FF07              inc word [bx]
00007D2A  8BC3              mov ax,bx
00007D2C  050400            add ax,0x4
00007D2F  5F                pop di
00007D30  5E                pop si
00007D31  C3                ret
00007D32  50                push ax
00007D33  33C0              xor ax,ax
00007D35  50                push ax
00007D36  50                push ax
00007D37  E87CFE            call 0x7bb6
00007D3A  5B                pop bx
00007D3B  5B                pop bx
00007D3C  250100            and ax,0x1
00007D3F  7409              jz 0x7d4a
00007D41  33D2              xor dx,dx
00007D43  52                push dx
00007D44  50                push ax
00007D45  E86EFE            call 0x7bb6
00007D48  5B                pop bx
00007D49  5B                pop bx
00007D4A  58                pop ax
00007D4B  50                push ax
00007D4C  33DB              xor bx,bx
00007D4E  53                push bx
00007D4F  50                push ax
00007D50  E863FE            call 0x7bb6
00007D53  5B                pop bx
00007D54  5B                pop bx
00007D55  3DFFFF            cmp ax,0xffff
00007D58  7414              jz 0x7d6e
00007D5A  8BD8              mov bx,ax
00007D5C  891EDA58          mov [0x58da],bx
00007D60  891EDC58          mov [0x58dc],bx
00007D64  58                pop ax
00007D65  40                inc ax
00007D66  8907              mov [bx],ax
00007D68  83C304            add bx,byte +0x4
00007D6B  8BC3              mov ax,bx
00007D6D  C3                ret
00007D6E  5B                pop bx
00007D6F  33C0              xor ax,ax
00007D71  C3                ret
00007D72  50                push ax
00007D73  33DB              xor bx,bx
00007D75  53                push bx
00007D76  50                push ax
00007D77  E83CFE            call 0x7bb6
00007D7A  5B                pop bx
00007D7B  5B                pop bx
00007D7C  3DFFFF            cmp ax,0xffff
00007D7F  7416              jz 0x7d97
00007D81  8BD8              mov bx,ax
00007D83  A1DC58            mov ax,[0x58dc]
00007D86  894702            mov [bx+0x2],ax
00007D89  891EDC58          mov [0x58dc],bx
00007D8D  58                pop ax
00007D8E  40                inc ax
00007D8F  8907              mov [bx],ax
00007D91  83C304            add bx,byte +0x4
00007D94  8BC3              mov ax,bx
00007D96  C3                ret
00007D97  58                pop ax
00007D98  33C0              xor ax,ax
00007D9A  C3                ret
00007D9B  2907              sub [bx],ax
00007D9D  8BF3              mov si,bx
00007D9F  0337              add si,[bx]
00007DA1  8BFE              mov di,si
00007DA3  03F8              add di,ax
00007DA5  40                inc ax
00007DA6  8904              mov [si],ax
00007DA8  895C02            mov [si+0x2],bx
00007DAB  897502            mov [di+0x2],si
00007DAE  83C604            add si,byte +0x4
00007DB1  8BC6              mov ax,si
00007DB3  C3                ret
00007DB4  8BEC              mov bp,sp
00007DB6  53                push bx
00007DB7  50                push ax
00007DB8  51                push cx
00007DB9  50                push ax
00007DBA  E815FF            call 0x7cd2
00007DBD  5B                pop bx
00007DBE  8BD8              mov bx,ax
00007DC0  0BC0              or ax,ax
00007DC2  741F              jz 0x7de3
00007DC4  1E                push ds
00007DC5  07                pop es
00007DC6  FC                cld
00007DC7  8BF8              mov di,ax
00007DC9  8B76FE            mov si,[bp-0x2]
00007DCC  8B0C              mov cx,[si]
00007DCE  83C604            add si,byte +0x4
00007DD1  56                push si
00007DD2  83E905            sub cx,byte +0x5
00007DD5  D1E9              shr cx,1
00007DD7  F3A5              rep movsw
00007DD9  8946FE            mov [bp-0x2],ax
00007DDC  E824FE            call 0x7c03
00007DDF  5B                pop bx
00007DE0  8B5EFE            mov bx,[bp-0x2]
00007DE3  83C406            add sp,byte +0x6
00007DE6  C3                ret
00007DE7  8BC2              mov ax,dx
00007DE9  83C208            add dx,byte +0x8
00007DEC  3BD1              cmp dx,cx
00007DEE  7735              ja 0x7e25
00007DF0  8BD1              mov dx,cx
00007DF2  3B1EDC58          cmp bx,[0x58dc]
00007DF6  750F              jnz 0x7e07
00007DF8  8907              mov [bx],ax
00007DFA  FF07              inc word [bx]
00007DFC  03C3              add ax,bx
00007DFE  53                push bx
00007DFF  50                push ax
00007E00  E891FD            call 0x7b94
00007E03  5B                pop bx
00007E04  5B                pop bx
00007E05  EB1E              jmp short 0x7e25
00007E07  8BFB              mov di,bx
00007E09  03F8              add di,ax
00007E0B  895D02            mov [di+0x2],bx
00007E0E  2BD0              sub dx,ax
00007E10  2917              sub [bx],dx
00007E12  8BF7              mov si,di
00007E14  03F2              add si,dx
00007E16  897C02            mov [si+0x2],di
00007E19  42                inc dx
00007E1A  8915              mov [di],dx
00007E1C  8BCB              mov cx,bx
00007E1E  8BDF              mov bx,di
00007E20  E837FE            call 0x7c5a
00007E23  8BD9              mov bx,cx
00007E25  83C304            add bx,byte +0x4
00007E28  C3                ret
00007E29  56                push si
00007E2A  57                push di
00007E2B  55                push bp
00007E2C  8BEC              mov bp,sp
00007E2E  8B5E08            mov bx,[bp+0x8]
00007E31  8B460A            mov ax,[bp+0xa]
00007E34  0BC0              or ax,ax
00007E36  7437              jz 0x7e6f
00007E38  0BDB              or bx,bx
00007E3A  742D              jz 0x7e69
00007E3C  83EB04            sub bx,byte +0x4
00007E3F  8B0F              mov cx,[bx]
00007E41  49                dec cx
00007E42  8BD0              mov dx,ax
00007E44  83C205            add dx,byte +0x5
00007E47  83E2FE            and dx,byte -0x2
00007E4A  83FA08            cmp dx,byte +0x8
00007E4D  7303              jnc 0x7e52
00007E4F  BA0800            mov dx,0x8
00007E52  3BCA              cmp cx,dx
00007E54  720C              jc 0x7e62
00007E56  7705              ja 0x7e5d
00007E58  83C304            add bx,byte +0x4
00007E5B  EB08              jmp short 0x7e65
00007E5D  E887FF            call 0x7de7
00007E60  EB03              jmp short 0x7e65
00007E62  E84FFF            call 0x7db4
00007E65  8BC3              mov ax,bx
00007E67  EB0D              jmp short 0x7e76
00007E69  50                push ax
00007E6A  E865FE            call 0x7cd2
00007E6D  EB06              jmp short 0x7e75
00007E6F  53                push bx
00007E70  E890FD            call 0x7c03
00007E73  33C0              xor ax,ax
00007E75  5B                pop bx
00007E76  5D                pop bp
00007E77  5F                pop di
00007E78  5E                pop si
00007E79  C3                ret
00007E7A  0000              add [bx+si],al
00007E7C  0000              add [bx+si],al
00007E7E  0000              add [bx+si],al
00007E80  0000              add [bx+si],al
00007E82  0000              add [bx+si],al
00007E84  42                inc dx
00007E85  6F                outsw
00007E86  726C              jc 0x7ef4
00007E88  61                popa
00007E89  6E                outsb
00007E8A  6420432B          and [fs:bp+di+0x2b],al
00007E8E  2B20              sub sp,[bx+si]
00007E90  2D2043            sub ax,0x4320
00007E93  6F                outsw
00007E94  7079              jo 0x7f0f
00007E96  7269              jc 0x7f01
00007E98  67687420          a32 push word 0x2074
00007E9C  3139              xor [bx+di],di
00007E9E  3931              cmp [bx+di],si
00007EA0  20426F            and [bp+si+0x6f],al
00007EA3  726C              jc 0x7f11
00007EA5  61                popa
00007EA6  6E                outsb
00007EA7  6420496E          and [fs:bx+di+0x6e],cl
00007EAB  746C              jz 0x7f19
00007EAD  2E004469          add [cs:si+0x69],al
00007EB1  7669              jna 0x7f1c
00007EB3  6465206572        and [gs:di+0x72],ah
00007EB8  726F              jc 0x7f29
00007EBA  720D              jc 0x7ec9
00007EBC  0A4162            or al,[bx+di+0x62]
00007EBF  6E                outsb
00007EC0  6F                outsw
00007EC1  726D              jc 0x7f30
00007EC3  61                popa
00007EC4  6C                insb
00007EC5  207072            and [bx+si+0x72],dh
00007EC8  6F                outsw
00007EC9  677261            a32 jc 0x7f2d
00007ECC  6D                insw
00007ECD  207465            and [si+0x65],dh
00007ED0  726D              jc 0x7f3f
00007ED2  696E617469        imul bp,[bp+0x61],word 0x6974
00007ED7  6F                outsw
00007ED8  6E                outsb
00007ED9  0D0A00            or ax,0xa
00007EDC  0000              add [bx+si],al
00007EDE  0000              add [bx+si],al
00007EE0  0000              add [bx+si],al
00007EE2  0000              add [bx+si],al
00007EE4  0000              add [bx+si],al
00007EE6  0000              add [bx+si],al
00007EE8  0000              add [bx+si],al
00007EEA  0000              add [bx+si],al
00007EEC  0000              add [bx+si],al
00007EEE  0000              add [bx+si],al
00007EF0  0000              add [bx+si],al
00007EF2  0000              add [bx+si],al
00007EF4  0000              add [bx+si],al
00007EF6  0000              add [bx+si],al
00007EF8  0000              add [bx+si],al
00007EFA  0000              add [bx+si],al
00007EFC  0000              add [bx+si],al
00007EFE  0000              add [bx+si],al
00007F00  004859            add [bx+si+0x59],cl
00007F03  48                dec ax
00007F04  59                pop cx
00007F05  0000              add [bx+si],al
00007F07  0000              add [bx+si],al
00007F09  0000              add [bx+si],al
00007F0B  0000              add [bx+si],al
00007F0D  0000              add [bx+si],al
00007F0F  0000              add [bx+si],al
00007F11  0000              add [bx+si],al
00007F13  0000              add [bx+si],al
00007F15  0000              add [bx+si],al
00007F17  0000              add [bx+si],al
00007F19  0000              add [bx+si],al
00007F1B  0000              add [bx+si],al
00007F1D  0000              add [bx+si],al
00007F1F  0000              add [bx+si],al
00007F21  0000              add [bx+si],al
00007F23  0000              add [bx+si],al
00007F25  0000              add [bx+si],al
00007F27  0000              add [bx+si],al
00007F29  0000              add [bx+si],al
00007F2B  0000              add [bx+si],al
00007F2D  0000              add [bx+si],al
00007F2F  0000              add [bx+si],al
00007F31  0000              add [bx+si],al
00007F33  0000              add [bx+si],al
00007F35  06                push es
00007F36  0020              add [bx+si],ah
00007F38  00FF              add bh,bh
00007F3A  FF00              inc word [bx+si]
00007F3C  0032              add [bp+si],dh
00007F3E  03880000          add cx,[bx+si+0x0]
00007F42  007500            add [di+0x0],dh
00007F45  40                inc ax
00007F46  0010              add [bx+si],dl
00007F48  004000            add [bx+si+0x0],al
00007F4B  0000              add [bx+si],al
00007F4D  0000              add [bx+si],al
00007F4F  54                push sp
00007F50  46                inc si
00007F51  46                inc si
00007F52  53                push bx
00007F53  20696E            and [bx+di+0x6e],ch
00007F56  7374              jnc 0x7fcc
00007F58  61                popa
00007F59  6C                insb
00007F5A  6C                insb
00007F5B  61                popa
00007F5C  7469              jz 0x7fc7
00007F5E  6F                outsw
00007F5F  6E                outsb
00007F60  206661            and [bp+0x61],ah
00007F63  696C65642E        imul bp,[si+0x65],word 0x2e64
00007F68  20536F            and [bp+di+0x6f],dl
00007F6B  636B65            arpl [bp+di+0x65],bp
00007F6E  7420              jz 0x7f90
00007F70  53                push bx
00007F71  657276            gs jc 0x7fea
00007F74  6963657320        imul sp,[bp+di+0x65],word 0x2073
00007F79  6E                outsb
00007F7A  6F                outsw
00007F7B  7420              jz 0x7f9d
00007F7D  666F              outsd
00007F7F  756E              jnz 0x7fef
00007F81  642E0A20          or ah,[cs:bx+si]
00007F85  000A              add [bp+si],cl
00007F87  0D4465            or ax,0x6544
00007F8A  627567            bound si,[di+0x67]
00007F8D  204D6F            and [di+0x6f],cl
00007F90  6465202D          and [gs:di],ch
00007F94  2D204F            sub ax,0x4f20
00007F97  4E                dec si
00007F98  0A0D              or cl,[di]
00007F9A  005472            add [si+0x72],dl
00007F9D  7565              jnz 0x8004
00007F9F  46                inc si
00007FA0  46                inc si
00007FA1  53                push bx
00007FA2  2D4249            sub ax,0x4942
00007FA5  4F                dec di
00007FA6  53                push bx
00007FA7  202D              and [di],ch
00007FA9  2D2000            sub ax,0x20
00007FAC  56                push si
00007FAD  657273            gs jc 0x8023
00007FB0  696F6E2033        imul bp,[bx+0x6e],word 0x3320
00007FB5  2E332E3920        xor bp,[cs:0x2039]
00007FBA  666F              outsd
00007FBC  7220              jc 0x7fde
00007FBE  44                inc sp
00007FBF  69736B4F6E        imul si,[bp+di+0x6b],word 0x6e4f
00007FC4  43                inc bx
00007FC5  686970            push word 0x7069
00007FC8  2032              and [bp+si],dh
00007FCA  3030              xor [bx+si],dh
00007FCC  3020              xor [bx+si],ah
00007FCE  285634            sub [bp+0x34],dl
00007FD1  2E3229            xor ch,[cs:bx+di]
00007FD4  000A              add [bp+si],cl
00007FD6  0D0043            or ax,0x4300
00007FD9  6F                outsw
00007FDA  7079              jo 0x8055
00007FDC  7269              jc 0x8047
00007FDE  67687420          a32 push word 0x2074
00007FE2  284329            sub [bp+di+0x29],al
00007FE5  204D2D            and [di+0x2d],cl
00007FE8  53                push bx
00007FE9  7973              jns 0x805e
00007FEB  7465              jz 0x8052
00007FED  6D                insw
00007FEE  732C              jnc 0x801c
00007FF0  2031              and [bx+di],dh
00007FF2  3939              cmp [bx+di],di
00007FF4  322D              xor ch,[di]
00007FF6  3230              xor dh,[bx+si]
00007FF8  3030              xor [bx+si],dh
00007FFA  000A              add [bp+si],cl
00007FFC  0D0A0D            or ax,0xd0a
00007FFF  005446            add [si+0x46],dl
00008002  46                inc si
00008003  53                push bx
00008004  005665            add [bp+0x65],dl
00008007  7273              jc 0x807c
00008009  696F6E2033        imul bp,[bx+0x6e],word 0x3320
0000800E  2E332E3920        xor bp,[cs:0x2039]
00008013  666F              outsd
00008015  7220              jc 0x8037
00008017  44                inc sp
00008018  69736B4F6E        imul si,[bp+di+0x6b],word 0x6e4f
0000801D  43                inc bx
0000801E  686970            push word 0x7069
00008021  2032              and [bp+si],dh
00008023  3030              xor [bx+si],dh
00008025  3020              xor [bx+si],ah
00008027  285634            sub [bp+0x34],dl
0000802A  2E3229            xor ch,[cs:bx+di]
0000802D  004445            add [si+0x45],al
00008030  4C                dec sp
00008031  53                push bx
00008032  45                inc bp
00008033  43                inc bx
00008034  54                push sp
00008035  004445            add [si+0x45],al
00008038  46                inc si
00008039  52                push dx
0000803A  41                inc cx
0000803B  47                inc di
0000803C  005052            add [bx+si+0x52],dl
0000803F  4F                dec di
00008040  54                push sp
00008041  45                inc bp
00008042  43                inc bx
00008043  54                push sp
00008044  004B45            add [bp+di+0x45],cl
00008047  59                pop cx
00008048  0000              add [bx+si],al
0000804A  0000              add [bx+si],al
0000804C  0000              add [bx+si],al
0000804E  0000              add [bx+si],al
00008050  0000              add [bx+si],al
00008052  55                push bp
00008053  55                push bp
00008054  AA                stosb
00008055  1BA414DF          sbb sp,[si+0xdf14]
00008059  16                push ss
0000805A  4E                dec si
0000805B  19E9              sbb cx,bp
0000805D  22921B9E          and dl,[bp+si+0x9e1b]
00008061  1B6617            sbb sp,[bp+0x17]
00008064  2815              sub [di],dl
00008066  7F1D              jg 0x8085
00008068  E21D              loop 0x8087
0000806A  BD1C42            mov bp,0x421c
0000806D  191E1C38          sbb [0x381c],bx
00008071  1E                push ds
00008072  4F                dec di
00008073  1E                push ds
00008074  F721              mul word [bx+di]
00008076  B721              mov bh,0x21
00008078  D7                xlatb
00008079  210C              and [si],cx
0000807B  22414E            and al,[bx+di+0x4e]
0000807E  41                inc cx
0000807F  4E                dec si
00008080  44                inc sp
00008081  00414E            add [bx+di+0x4e],al
00008084  41                inc cx
00008085  4E                dec si
00008086  44                inc sp
00008087  00EF              add bh,ch
00008089  237432            and si,[si+0x32]
0000808C  6B35F9            imul si,[di],byte -0x7
0000808F  354837            xor ax,0x3748
00008092  0000              add [bx+si],al
00008094  FE                db 0xFE
00008095  3816393F          cmp [0x3f39],dl
00008099  3D4C3D            cmp ax,0x3d4c
0000809C  E922AF            jmp 0x2fc1
0000809F  3DFA3D            cmp ax,0x3dfa
000080A2  1D3E2A            sbb ax,0x2a3e
000080A5  3E37              ds aaa
000080A7  3EF8              ds clc
000080A9  41                inc cx
000080AA  7432              jz 0x80de
000080AC  BA41F9            mov dx,0xf941
000080AF  354837            xor ax,0x3748
000080B2  0000              add [bx+si],al
000080B4  0100              add [bx+si],ax
000080B6  0300              add ax,[bx+si]
000080B8  07                pop es
000080B9  000F              add [bx],cl
000080BB  001F              add [bx],bl
000080BD  003F              add [bx],bh
000080BF  007F00            add [bx+0x0],bh
000080C2  FF00              inc word [bx+si]
000080C4  0000              add [bx+si],al
000080C6  52                push dx
000080C7  0900              or [bx+si],ax
000080C9  0000              add [bx+si],al
000080CB  0000              add [bx+si],al
000080CD  0000              add [bx+si],al
000080CF  0000              add [bx+si],al
000080D1  006C00            add [si+0x0],ch
000080D4  40                inc ax
000080D5  0000              add [bx+si],al
000080D7  0000              add [bx+si],al
000080D9  0000              add [bx+si],al
000080DB  0000              add [bx+si],al
000080DD  0000              add [bx+si],al
000080DF  0000              add [bx+si],al
000080E1  20DD              and ch,bl
000080E3  2200              and al,[bx+si]
000080E5  0000              add [bx+si],al
000080E7  10E6              adc dh,ah
000080E9  4A                dec dx
000080EA  0000              add [bx+si],al
000080EC  0020              add [bx+si],ah
000080EE  DA5100            ficom dword [bx+di+0x0]
000080F1  0000              add [bx+si],al
000080F3  0000              add [bx+si],al
000080F5  0000              add [bx+si],al
000080F7  0000              add [bx+si],al
000080F9  0000              add [bx+si],al
000080FB  0000              add [bx+si],al
000080FD  0000              add [bx+si],al
000080FF  0000              add [bx+si],al
00008101  0000              add [bx+si],al
00008103  0000              add [bx+si],al
00008105  0000              add [bx+si],al
00008107  0000              add [bx+si],al
00008109  0000              add [bx+si],al
0000810B  0000              add [bx+si],al
0000810D  0000              add [bx+si],al
0000810F  0000              add [bx+si],al
00008111  0000              add [bx+si],al
00008113  0000              add [bx+si],al
00008115  0000              add [bx+si],al
00008117  0000              add [bx+si],al
00008119  0000              add [bx+si],al
0000811B  0000              add [bx+si],al
0000811D  0000              add [bx+si],al
0000811F  0000              add [bx+si],al
00008121  0000              add [bx+si],al
00008123  0000              add [bx+si],al
00008125  0000              add [bx+si],al
00008127  0000              add [bx+si],al
00008129  0000              add [bx+si],al
0000812B  0000              add [bx+si],al
0000812D  0000              add [bx+si],al
0000812F  0000              add [bx+si],al
00008131  0000              add [bx+si],al
00008133  0000              add [bx+si],al
00008135  0000              add [bx+si],al
00008137  0000              add [bx+si],al
00008139  0000              add [bx+si],al
0000813B  0000              add [bx+si],al
0000813D  0000              add [bx+si],al
0000813F  0000              add [bx+si],al
00008141  0000              add [bx+si],al
00008143  0000              add [bx+si],al
00008145  0000              add [bx+si],al
00008147  0000              add [bx+si],al
00008149  0000              add [bx+si],al
0000814B  0000              add [bx+si],al
0000814D  0000              add [bx+si],al
0000814F  0000              add [bx+si],al
00008151  0000              add [bx+si],al
00008153  0000              add [bx+si],al
00008155  0000              add [bx+si],al
00008157  0000              add [bx+si],al
00008159  0000              add [bx+si],al
0000815B  0000              add [bx+si],al
0000815D  0000              add [bx+si],al
0000815F  0000              add [bx+si],al
00008161  0000              add [bx+si],al
00008163  0000              add [bx+si],al
00008165  0000              add [bx+si],al
00008167  0000              add [bx+si],al
00008169  0000              add [bx+si],al
0000816B  0000              add [bx+si],al
0000816D  0000              add [bx+si],al
0000816F  0000              add [bx+si],al
00008171  0000              add [bx+si],al
00008173  0000              add [bx+si],al
00008175  0000              add [bx+si],al
00008177  0000              add [bx+si],al
00008179  0000              add [bx+si],al
0000817B  0000              add [bx+si],al
0000817D  0000              add [bx+si],al
0000817F  0000              add [bx+si],al
00008181  0000              add [bx+si],al
00008183  0000              add [bx+si],al
00008185  0000              add [bx+si],al
00008187  0000              add [bx+si],al
00008189  0000              add [bx+si],al
0000818B  0000              add [bx+si],al
0000818D  0000              add [bx+si],al
0000818F  0000              add [bx+si],al
00008191  0000              add [bx+si],al
00008193  0000              add [bx+si],al
00008195  0000              add [bx+si],al
00008197  0000              add [bx+si],al
00008199  0000              add [bx+si],al
0000819B  0000              add [bx+si],al
0000819D  0000              add [bx+si],al
0000819F  0000              add [bx+si],al
000081A1  0000              add [bx+si],al
000081A3  0000              add [bx+si],al
000081A5  0000              add [bx+si],al
000081A7  0000              add [bx+si],al
000081A9  0000              add [bx+si],al
000081AB  0000              add [bx+si],al
000081AD  0000              add [bx+si],al
000081AF  0000              add [bx+si],al
000081B1  0000              add [bx+si],al
000081B3  0000              add [bx+si],al
000081B5  0000              add [bx+si],al
000081B7  0000              add [bx+si],al
000081B9  0000              add [bx+si],al
000081BB  0000              add [bx+si],al
000081BD  0000              add [bx+si],al
000081BF  0000              add [bx+si],al
000081C1  0000              add [bx+si],al
000081C3  0000              add [bx+si],al
000081C5  0000              add [bx+si],al
000081C7  0000              add [bx+si],al
000081C9  0000              add [bx+si],al
000081CB  0000              add [bx+si],al
000081CD  0000              add [bx+si],al
000081CF  0000              add [bx+si],al
000081D1  0000              add [bx+si],al
000081D3  0000              add [bx+si],al
000081D5  0000              add [bx+si],al
000081D7  0000              add [bx+si],al
000081D9  0000              add [bx+si],al
000081DB  0000              add [bx+si],al
000081DD  0000              add [bx+si],al
000081DF  0000              add [bx+si],al
000081E1  0000              add [bx+si],al
000081E3  0000              add [bx+si],al
000081E5  0000              add [bx+si],al
000081E7  0000              add [bx+si],al
000081E9  0000              add [bx+si],al
000081EB  0000              add [bx+si],al
000081ED  0000              add [bx+si],al
000081EF  0000              add [bx+si],al
000081F1  0000              add [bx+si],al
000081F3  0000              add [bx+si],al
000081F5  0000              add [bx+si],al
000081F7  0000              add [bx+si],al
000081F9  0000              add [bx+si],al
000081FB  0000              add [bx+si],al
000081FD  0000              add [bx+si],al
000081FF  0000              add [bx+si],al
00008201  0000              add [bx+si],al
00008203  0000              add [bx+si],al
00008205  0000              add [bx+si],al
00008207  0000              add [bx+si],al
00008209  0000              add [bx+si],al
0000820B  0000              add [bx+si],al
0000820D  0000              add [bx+si],al
0000820F  0000              add [bx+si],al
00008211  0000              add [bx+si],al
00008213  0000              add [bx+si],al
00008215  0000              add [bx+si],al
00008217  0000              add [bx+si],al
00008219  0000              add [bx+si],al
0000821B  0000              add [bx+si],al
0000821D  0000              add [bx+si],al
0000821F  0000              add [bx+si],al
00008221  0000              add [bx+si],al
00008223  0000              add [bx+si],al
00008225  0000              add [bx+si],al
00008227  0000              add [bx+si],al
00008229  0000              add [bx+si],al
0000822B  0000              add [bx+si],al
0000822D  0000              add [bx+si],al
0000822F  0000              add [bx+si],al
00008231  0000              add [bx+si],al
00008233  0000              add [bx+si],al
00008235  0000              add [bx+si],al
00008237  0000              add [bx+si],al
00008239  0000              add [bx+si],al
0000823B  0000              add [bx+si],al
0000823D  0000              add [bx+si],al
0000823F  0000              add [bx+si],al
00008241  0000              add [bx+si],al
00008243  0000              add [bx+si],al
00008245  0000              add [bx+si],al
00008247  0000              add [bx+si],al
00008249  0000              add [bx+si],al
0000824B  0000              add [bx+si],al
0000824D  0000              add [bx+si],al
0000824F  0000              add [bx+si],al
00008251  0000              add [bx+si],al
00008253  0000              add [bx+si],al
00008255  0000              add [bx+si],al
00008257  0000              add [bx+si],al
00008259  0000              add [bx+si],al
0000825B  0000              add [bx+si],al
0000825D  0000              add [bx+si],al
0000825F  0000              add [bx+si],al
00008261  0000              add [bx+si],al
00008263  0000              add [bx+si],al
00008265  0000              add [bx+si],al
00008267  0000              add [bx+si],al
00008269  0000              add [bx+si],al
0000826B  0000              add [bx+si],al
0000826D  0000              add [bx+si],al
0000826F  0000              add [bx+si],al
00008271  0000              add [bx+si],al
00008273  0000              add [bx+si],al
00008275  0000              add [bx+si],al
00008277  0000              add [bx+si],al
00008279  0000              add [bx+si],al
0000827B  0000              add [bx+si],al
0000827D  0000              add [bx+si],al
0000827F  0000              add [bx+si],al
00008281  0000              add [bx+si],al
00008283  0000              add [bx+si],al
00008285  0000              add [bx+si],al
00008287  0000              add [bx+si],al
00008289  0000              add [bx+si],al
0000828B  0000              add [bx+si],al
0000828D  0000              add [bx+si],al
0000828F  0000              add [bx+si],al
00008291  0000              add [bx+si],al
00008293  0000              add [bx+si],al
00008295  0000              add [bx+si],al
00008297  0000              add [bx+si],al
00008299  0000              add [bx+si],al
0000829B  0000              add [bx+si],al
0000829D  0000              add [bx+si],al
0000829F  0000              add [bx+si],al
000082A1  0000              add [bx+si],al
000082A3  0000              add [bx+si],al
000082A5  0000              add [bx+si],al
000082A7  0000              add [bx+si],al
000082A9  0000              add [bx+si],al
000082AB  0000              add [bx+si],al
000082AD  0000              add [bx+si],al
000082AF  0000              add [bx+si],al
000082B1  0000              add [bx+si],al
000082B3  0000              add [bx+si],al
000082B5  0000              add [bx+si],al
000082B7  0000              add [bx+si],al
000082B9  0000              add [bx+si],al
000082BB  0000              add [bx+si],al
000082BD  0000              add [bx+si],al
000082BF  0000              add [bx+si],al
000082C1  0000              add [bx+si],al
000082C3  0000              add [bx+si],al
000082C5  0000              add [bx+si],al
000082C7  0000              add [bx+si],al
000082C9  0000              add [bx+si],al
000082CB  0000              add [bx+si],al
000082CD  0000              add [bx+si],al
000082CF  0000              add [bx+si],al
000082D1  0000              add [bx+si],al
000082D3  0000              add [bx+si],al
000082D5  0000              add [bx+si],al
000082D7  0000              add [bx+si],al
000082D9  0000              add [bx+si],al
000082DB  0000              add [bx+si],al
000082DD  0000              add [bx+si],al
000082DF  0000              add [bx+si],al
000082E1  0000              add [bx+si],al
000082E3  0000              add [bx+si],al
000082E5  0000              add [bx+si],al
000082E7  0000              add [bx+si],al
000082E9  0000              add [bx+si],al
000082EB  0000              add [bx+si],al
000082ED  0000              add [bx+si],al
000082EF  0000              add [bx+si],al
000082F1  0000              add [bx+si],al
000082F3  0000              add [bx+si],al
000082F5  0000              add [bx+si],al
000082F7  0000              add [bx+si],al
000082F9  0000              add [bx+si],al
000082FB  0000              add [bx+si],al
000082FD  0000              add [bx+si],al
000082FF  0000              add [bx+si],al
00008301  0000              add [bx+si],al
00008303  0000              add [bx+si],al
00008305  0000              add [bx+si],al
00008307  0000              add [bx+si],al
00008309  0000              add [bx+si],al
0000830B  0000              add [bx+si],al
0000830D  0000              add [bx+si],al
0000830F  0000              add [bx+si],al
00008311  0000              add [bx+si],al
00008313  0000              add [bx+si],al
00008315  0000              add [bx+si],al
00008317  0000              add [bx+si],al
00008319  0000              add [bx+si],al
0000831B  0000              add [bx+si],al
0000831D  0000              add [bx+si],al
0000831F  0000              add [bx+si],al
00008321  0000              add [bx+si],al
00008323  0000              add [bx+si],al
00008325  0000              add [bx+si],al
00008327  0000              add [bx+si],al
00008329  0000              add [bx+si],al
0000832B  0000              add [bx+si],al
0000832D  0000              add [bx+si],al
0000832F  0000              add [bx+si],al
00008331  0000              add [bx+si],al
00008333  0000              add [bx+si],al
00008335  0000              add [bx+si],al
00008337  0000              add [bx+si],al
00008339  0000              add [bx+si],al
0000833B  0000              add [bx+si],al
0000833D  0000              add [bx+si],al
0000833F  0000              add [bx+si],al
00008341  0000              add [bx+si],al
00008343  0000              add [bx+si],al
00008345  0000              add [bx+si],al
00008347  00558B            add [di-0x75],dl
0000834A  EC                in al,dx
0000834B  83EC24            sub sp,byte +0x24
0000834E  56                push si
0000834F  57                push di
00008350  8B7E04            mov di,[bp+0x4]
00008353  F70612594000      test word [0x5912],0x40
00008359  7507              jnz 0x8362
0000835B  BE0100            mov si,0x1
0000835E  8BD6              mov dx,si
00008360  EB09              jmp short 0x836b
00008362  33F6              xor si,si
00008364  8B161259          mov dx,[0x5912]
00008368  83E201            and dx,byte +0x1
0000836B  F70612590200      test word [0x5912],0x2
00008371  7402              jz 0x8375
00008373  33D2              xor dx,dx
00008375  83261259FE        and word [0x5912],byte -0x2
0000837A  C70610590000      mov word [0x5910],0x0
00008380  0BD2              or dx,dx
00008382  7503              jnz 0x8387
00008384  E98400            jmp 0x840b
00008387  C746DE0000        mov word [bp-0x22],0x0
0000838C  C70636592200      mov word [0x5936],0x22
00008392  8D46DC            lea ax,[bp-0x24]
00008395  8C164059          mov [0x5940],ss
00008399  A33E59            mov [0x593e],ax
0000839C  A33259            mov [0x5932],ax
0000839F  C7061C590B00      mov word [0x591c],0xb
000083A5  B0AF              mov al,0xaf
000083A7  50                push ax
000083A8  E8EDF0            call 0x7498
000083AB  0BC0              or ax,ax
000083AD  7558              jnz 0x8407
000083AF  833E2E5900        cmp word [0x592e],byte +0x0
000083B4  7551              jnz 0x8407
000083B6  817EDE4353        cmp word [bp-0x22],0x5343
000083BB  7407              jz 0x83c4
000083BD  817EDE5343        cmp word [bp-0x22],0x4353
000083C2  7543              jnz 0x8407
000083C4  C746FE0000        mov word [bp-0x2],0x0
000083C9  C70636590200      mov word [0x5936],0x2
000083CF  8D46FE            lea ax,[bp-0x2]
000083D2  8C164059          mov [0x5940],ss
000083D6  A33E59            mov [0x593e],ax
000083D9  A33259            mov [0x5932],ax
000083DC  C7061C592300      mov word [0x591c],0x23
000083E2  B0AF              mov al,0xaf
000083E4  50                push ax
000083E5  E8B0F0            call 0x7498
000083E8  0BC0              or ax,ax
000083EA  751B              jnz 0x8407
000083EC  830E125901        or word [0x5912],byte +0x1
000083F1  A13E59            mov ax,[0x593e]
000083F4  A34459            mov [0x5944],ax
000083F7  A14459            mov ax,[0x5944]
000083FA  8B164259          mov dx,[0x5942]
000083FE  A31659            mov [0x5916],ax
00008401  89161459          mov [0x5914],dx
00008405  EB04              jmp short 0x840b
00008407  0BF6              or si,si
00008409  7446              jz 0x8451
0000840B  893E1C59          mov [0x591c],di
0000840F  B080              mov al,0x80
00008411  50                push ax
00008412  E883F0            call 0x7498
00008415  0BC0              or ax,ax
00008417  7538              jnz 0x8451
00008419  813E36595353      cmp word [0x5936],0x5353
0000841F  7530              jnz 0x8451
00008421  A02E59            mov al,[0x592e]
00008424  A2F858            mov [0x58f8],al
00008427  83FF63            cmp di,byte +0x63
0000842A  7505              jnz 0x8431
0000842C  98                cbw
0000842D  48                dec ax
0000842E  A31C59            mov [0x591c],ax
00008431  B083              mov al,0x83
00008433  50                push ax
00008434  E861F0            call 0x7498
00008437  0BC0              or ax,ax
00008439  7516              jnz 0x8451
0000843B  833E2E5900        cmp word [0x592e],byte +0x0
00008440  7505              jnz 0x8447
00008442  A13259            mov ax,[0x5932]
00008445  EB03              jmp short 0x844a
00008447  A12E59            mov ax,[0x592e]
0000844A  A31059            mov [0x5910],ax
0000844D  33C0              xor ax,ax
0000844F  EB16              jmp short 0x8467
00008451  F70612590200      test word [0x5912],0x2
00008457  750B              jnz 0x8464
00008459  0BF6              or si,si
0000845B  7407              jz 0x8464
0000845D  830E125902        or word [0x5912],byte +0x2
00008462  EBA7              jmp short 0x840b
00008464  B80200            mov ax,0x2
00008467  5F                pop di
00008468  5E                pop si
00008469  8BE5              mov sp,bp
0000846B  5D                pop bp
0000846C  C20200            ret 0x2
0000846F  55                push bp
00008470  8BEC              mov bp,sp
00008472  83EC38            sub sp,byte +0x38
00008475  56                push si
00008476  57                push di
00008477  8B7E04            mov di,[bp+0x4]
0000847A  FF7606            push word [bp+0x6]
0000847D  E8C8FE            call 0x8348
00008480  8BD0              mov dx,ax
00008482  0BD2              or dx,dx
00008484  7403              jz 0x8489
00008486  E99A00            jmp 0x8523
00008489  C746C83400        mov word [bp-0x38],0x34
0000848E  8D46C8            lea ax,[bp-0x38]
00008491  8C164059          mov [0x5940],ss
00008495  A33E59            mov [0x593e],ax
00008498  B084              mov al,0x84
0000849A  50                push ax
0000849B  E8FAEF            call 0x7498
0000849E  A03259            mov al,[0x5932]
000084A1  B400              mov ah,0x0
000084A3  A30A59            mov [0x590a],ax
000084A6  837E0800          cmp word [bp+0x8],byte +0x0
000084AA  7406              jz 0x84b2
000084AC  C7061E590100      mov word [0x591e],0x1
000084B2  A10A59            mov ax,[0x590a]
000084B5  D1E0              shl ax,1
000084B7  50                push ax
000084B8  E86EF6            call 0x7b29
000084BB  59                pop cx
000084BC  A30C59            mov [0x590c],ax
000084BF  33F6              xor si,si
000084C1  3B360A59          cmp si,[0x590a]
000084C5  7D49              jnl 0x8510
000084C7  FF361C59          push word [0x591c]
000084CB  8BC6              mov ax,si
000084CD  40                inc ax
000084CE  50                push ax
000084CF  57                push di
000084D0  33C0              xor ax,ax
000084D2  50                push ax
000084D3  E85500            call 0x852b
000084D6  8BD6              mov dx,si
000084D8  D1E2              shl dx,1
000084DA  8B1E0C59          mov bx,[0x590c]
000084DE  03DA              add bx,dx
000084E0  8907              mov [bx],ax
000084E2  0BFF              or di,di
000084E4  7423              jz 0x8509
000084E6  8BC6              mov ax,si
000084E8  D1E0              shl ax,1
000084EA  8B1E0C59          mov bx,[0x590c]
000084EE  03D8              add bx,ax
000084F0  8B1F              mov bx,[bx]
000084F2  8B571A            mov dx,[bx+0x1a]
000084F5  8B4718            mov ax,[bx+0x18]
000084F8  050100            add ax,0x1
000084FB  83D200            adc dx,byte +0x0
000084FE  B10C              mov cl,0xc
00008500  E8CCF5            call 0x7acf
00008503  8BD7              mov dx,di
00008505  03D0              add dx,ax
00008507  8BFA              mov di,dx
00008509  46                inc si
0000850A  3B360A59          cmp si,[0x590a]
0000850E  7CB7              jl 0x84c7
00008510  837E0800          cmp word [bp+0x8],byte +0x0
00008514  740B              jz 0x8521
00008516  B8D650            mov ax,0x50d6
00008519  50                push ax
0000851A  B8DC05            mov ax,0x5dc
0000851D  50                push ax
0000851E  E831EE            call 0x7352
00008521  33C0              xor ax,ax
00008523  5F                pop di
00008524  5E                pop si
00008525  8BE5              mov sp,bp
00008527  5D                pop bp
00008528  C20600            ret 0x6
0000852B  55                push bp
0000852C  8BEC              mov bp,sp
0000852E  83EC60            sub sp,byte +0x60
00008531  56                push si
00008532  57                push di
00008533  8B7604            mov si,[bp+0x4]
00008536  0BF6              or si,si
00008538  7511              jnz 0x854b
0000853A  B83600            mov ax,0x36
0000853D  50                push ax
0000853E  E8E8F5            call 0x7b29
00008541  59                pop cx
00008542  8BF0              mov si,ax
00008544  0BC0              or ax,ax
00008546  7503              jnz 0x854b
00008548  E97703            jmp 0x88c2
0000854B  8B460A            mov ax,[bp+0xa]
0000854E  8904              mov [si],ax
00008550  8B4608            mov ax,[bp+0x8]
00008553  894402            mov [si+0x2],ax
00008556  884406            mov [si+0x6],al
00008559  813E10590001      cmp word [0x5910],0x100
0000855F  7403              jz 0x8564
00008561  FE4C06            dec byte [si+0x6]
00008564  8C5C32            mov [si+0x32],ds
00008567  897430            mov [si+0x30],si
0000856A  C744340000        mov word [si+0x34],0x0
0000856F  C7440E0000        mov word [si+0xe],0x0
00008574  33FF              xor di,di
00008576  C746E61200        mov word [bp-0x1a],0x12
0000857B  8A4C02            mov cl,[si+0x2]
0000857E  80C1FF            add cl,0xff
00008581  B80100            mov ax,0x1
00008584  D3E0              shl ax,cl
00008586  8946FC            mov [bp-0x4],ax
00008589  A12459            mov ax,[0x5924]
0000858C  894410            mov [si+0x10],ax
0000858F  E9CD00            jmp 0x865f
00008592  8A4410            mov al,[si+0x10]
00008595  A23359            mov [0x5933],al
00008598  8D46E6            lea ax,[bp-0x1a]
0000859B  8C164059          mov [0x5940],ss
0000859F  A33E59            mov [0x593e],ax
000085A2  B087              mov al,0x87
000085A4  50                push ax
000085A5  E8F0EE            call 0x7498
000085A8  0BC0              or ax,ax
000085AA  7403              jz 0x85af
000085AC  E9BA00            jmp 0x8669
000085AF  A03259            mov al,[0x5932]
000085B2  B400              mov ah,0x0
000085B4  A90100            test ax,0x1
000085B7  7503              jnz 0x85bc
000085B9  E9A000            jmp 0x865c
000085BC  8B46FC            mov ax,[bp-0x4]
000085BF  85063659          test [0x5936],ax
000085C3  7503              jnz 0x85c8
000085C5  E99400            jmp 0x865c
000085C8  A03A59            mov al,[0x593a]
000085CB  8846FF            mov [bp-0x1],al
000085CE  813E10590001      cmp word [0x5910],0x100
000085D4  7513              jnz 0x85e9
000085D6  8D46EA            lea ax,[bp-0x16]
000085D9  16                push ss
000085DA  50                push ax
000085DB  FF364459          push word [0x5944]
000085DF  FF364259          push word [0x5942]
000085E3  B91200            mov cx,0x12
000085E6  E88FF5            call 0x7b78
000085E9  8A4410            mov al,[si+0x10]
000085EC  A23359            mov [0x5933],al
000085EF  B088              mov al,0x88
000085F1  50                push ax
000085F2  E8A3EE            call 0x7498
000085F5  8B3E3659          mov di,[0x5936]
000085F9  813E10590001      cmp word [0x5910],0x100
000085FF  7505              jnz 0x8606
00008601  A14259            mov ax,[0x5942]
00008604  EB03              jmp short 0x8609
00008606  A13E59            mov ax,[0x593e]
00008609  894412            mov [si+0x12],ax
0000860C  837E0600          cmp word [bp+0x6],byte +0x0
00008610  7428              jz 0x863a
00008612  8B4606            mov ax,[bp+0x6]
00008615  3B46EC            cmp ax,[bp-0x14]
00008618  7242              jc 0x865c
0000861A  3B46EE            cmp ax,[bp-0x12]
0000861D  773D              ja 0x865c
0000861F  894412            mov [si+0x12],ax
00008622  837EF002          cmp word [bp-0x10],byte +0x2
00008626  770B              ja 0x8633
00008628  837EF202          cmp word [bp-0xe],byte +0x2
0000862C  7205              jc 0x8633
0000862E  B80200            mov ax,0x2
00008631  EB03              jmp short 0x8636
00008633  8B46F0            mov ax,[bp-0x10]
00008636  8BF8              mov di,ax
00008638  EB2F              jmp short 0x8669
0000863A  8B4412            mov ax,[si+0x12]
0000863D  3B46EC            cmp ax,[bp-0x14]
00008640  7205              jc 0x8647
00008642  3B46EE            cmp ax,[bp-0x12]
00008645  7606              jna 0x864d
00008647  8B46EC            mov ax,[bp-0x14]
0000864A  894412            mov [si+0x12],ax
0000864D  3B7EF0            cmp di,[bp-0x10]
00008650  7205              jc 0x8657
00008652  3B7EF2            cmp di,[bp-0xe]
00008655  7612              jna 0x8669
00008657  8B7EF0            mov di,[bp-0x10]
0000865A  EB0D              jmp short 0x8669
0000865C  FF4410            inc word [si+0x10]
0000865F  817C100001        cmp word [si+0x10],0x100
00008664  7D03              jnl 0x8669
00008666  E929FF            jmp 0x8592
00008669  0BFF              or di,di
0000866B  7E75              jng 0x86e2
0000866D  834C0E20          or word [si+0xe],byte +0x20
00008671  8BC7              mov ax,di
00008673  99                cwd
00008674  B10C              mov cl,0xc
00008676  E835F4            call 0x7aae
00008679  05FFFF            add ax,0xffff
0000867C  83D2FF            adc dx,byte -0x1
0000867F  89541A            mov [si+0x1a],dx
00008682  894418            mov [si+0x18],ax
00008685  813E10590001      cmp word [0x5910],0x100
0000868B  751D              jnz 0x86aa
0000868D  C6441C08          mov byte [si+0x1c],0x8
00008691  EB03              jmp short 0x8696
00008693  D0641C            shl byte [si+0x1c],1
00008696  8A441C            mov al,[si+0x1c]
00008699  2246FF            and al,[bp-0x1]
0000869C  B400              mov ah,0x0
0000869E  0BC0              or ax,ax
000086A0  7528              jnz 0x86ca
000086A2  807C1C00          cmp byte [si+0x1c],0x0
000086A6  75EB              jnz 0x8693
000086A8  EB20              jmp short 0x86ca
000086AA  C6441C02          mov byte [si+0x1c],0x2
000086AE  8A441C            mov al,[si+0x1c]
000086B1  3A46FA            cmp al,[bp-0x6]
000086B4  7306              jnc 0x86bc
000086B6  8A46FA            mov al,[bp-0x6]
000086B9  88441C            mov [si+0x1c],al
000086BC  8A441C            mov al,[si+0x1c]
000086BF  3A46FB            cmp al,[bp-0x5]
000086C2  7606              jna 0x86ca
000086C4  8A46FB            mov al,[bp-0x5]
000086C7  88441C            mov [si+0x1c],al
000086CA  F746EA0800        test word [bp-0x16],0x8
000086CF  7404              jz 0x86d5
000086D1  834C0E02          or word [si+0xe],byte +0x2
000086D5  F746EA1000        test word [bp-0x16],0x10
000086DA  740B              jz 0x86e7
000086DC  834C0E0C          or word [si+0xe],byte +0xc
000086E0  EB05              jmp short 0x86e7
000086E2  C74412F000        mov word [si+0x12],0xf0
000086E7  8B4412            mov ax,[si+0x12]
000086EA  33D2              xor dx,dx
000086EC  B10C              mov cl,0xc
000086EE  E8BDF3            call 0x7aae
000086F1  B104              mov cl,0x4
000086F3  E8D9F3            call 0x7acf
000086F6  8B5412            mov dx,[si+0x12]
000086F9  B10C              mov cl,0xc
000086FB  D3E2              shl dx,cl
000086FD  83E20F            and dx,byte +0xf
00008700  894416            mov [si+0x16],ax
00008703  895414            mov [si+0x14],dx
00008706  C6441DFF          mov byte [si+0x1d],0xff
0000870A  C6441EFF          mov byte [si+0x1e],0xff
0000870E  C746D80A00        mov word [bp-0x28],0xa
00008713  8A4406            mov al,[si+0x6]
00008716  A23259            mov [0x5932],al
00008719  8D46D8            lea ax,[bp-0x28]
0000871C  8C164059          mov [0x5940],ss
00008720  A33E59            mov [0x593e],ax
00008723  B08C              mov al,0x8c
00008725  50                push ax
00008726  E86FED            call 0x7498
00008729  813E10590001      cmp word [0x5910],0x100
0000872F  7504              jnz 0x8735
00008731  B001              mov al,0x1
00008733  EB02              jmp short 0x8737
00008735  B040              mov al,0x40
00008737  84063A59          test [0x593a],al
0000873B  7404              jz 0x8741
0000873D  834C0E01          or word [si+0xe],byte +0x1
00008741  813E10590001      cmp word [0x5910],0x100
00008747  7504              jnz 0x874d
00008749  B001              mov al,0x1
0000874B  EB02              jmp short 0x874f
0000874D  B080              mov al,0x80
0000874F  84063B59          test [0x593b],al
00008753  740B              jz 0x8760
00008755  833E1E5900        cmp word [0x591e],byte +0x0
0000875A  7504              jnz 0x8760
0000875C  834C0E40          or word [si+0xe],byte +0x40
00008760  C746A03400        mov word [bp-0x60],0x34
00008765  813E10590001      cmp word [0x5910],0x100
0000876B  751B              jnz 0x8788
0000876D  A14459            mov ax,[0x5944]
00008770  A34059            mov [0x5940],ax
00008773  8D46AE            lea ax,[bp-0x52]
00008776  16                push ss
00008777  50                push ax
00008778  FF364059          push word [0x5940]
0000877C  FF363E59          push word [0x593e]
00008780  B92A00            mov cx,0x2a
00008783  E8F2F3            call 0x7b78
00008786  EB10              jmp short 0x8798
00008788  8D46A0            lea ax,[bp-0x60]
0000878B  8C164059          mov [0x5940],ss
0000878F  A33E59            mov [0x593e],ax
00008792  B084              mov al,0x84
00008794  50                push ax
00008795  E800ED            call 0x7498
00008798  C6441FFF          mov byte [si+0x1f],0xff
0000879C  33D2              xor dx,dx
0000879E  3B56AE            cmp dx,[bp-0x52]
000087A1  7D35              jnl 0x87d8
000087A3  8BDA              mov bx,dx
000087A5  D1E3              shl bx,1
000087A7  8D46B0            lea ax,[bp-0x50]
000087AA  03D8              add bx,ax
000087AC  803F32            cmp byte [bx],0x32
000087AF  7521              jnz 0x87d2
000087B1  8BDA              mov bx,dx
000087B3  D1E3              shl bx,1
000087B5  8D46B1            lea ax,[bp-0x4f]
000087B8  03D8              add bx,ax
000087BA  F60780            test byte [bx],0x80
000087BD  7413              jz 0x87d2
000087BF  813E10590001      cmp word [0x5910],0x100
000087C5  7506              jnz 0x87cd
000087C7  8AC2              mov al,dl
000087C9  FEC0              inc al
000087CB  EB02              jmp short 0x87cf
000087CD  8AC2              mov al,dl
000087CF  88441F            mov [si+0x1f],al
000087D2  42                inc dx
000087D3  3B56AE            cmp dx,[bp-0x52]
000087D6  7CCB              jl 0x87a3
000087D8  33D2              xor dx,dx
000087DA  3B56AE            cmp dx,[bp-0x52]
000087DD  7C03              jl 0x87e2
000087DF  E9AE00            jmp 0x8890
000087E2  8BDA              mov bx,dx
000087E4  D1E3              shl bx,1
000087E6  8D46B0            lea ax,[bp-0x50]
000087E9  03D8              add bx,ax
000087EB  803F00            cmp byte [bx],0x0
000087EE  740B              jz 0x87fb
000087F0  8BDA              mov bx,dx
000087F2  D1E3              shl bx,1
000087F4  03D8              add bx,ax
000087F6  803F32            cmp byte [bx],0x32
000087F9  753F              jnz 0x883a
000087FB  8BDA              mov bx,dx
000087FD  D1E3              shl bx,1
000087FF  8D46B1            lea ax,[bp-0x4f]
00008802  03D8              add bx,ax
00008804  F60740            test byte [bx],0x40
00008807  7431              jz 0x883a
00008809  8AC2              mov al,dl
0000880B  B104              mov cl,0x4
0000880D  D2E0              shl al,cl
0000880F  0AC2              or al,dl
00008811  88441E            mov [si+0x1e],al
00008814  813E10590001      cmp word [0x5910],0x100
0000881A  751E              jnz 0x883a
0000881C  8A441E            mov al,[si+0x1e]
0000881F  0411              add al,0x11
00008821  88441E            mov [si+0x1e],al
00008824  8BDA              mov bx,dx
00008826  D1E3              shl bx,1
00008828  8D46B1            lea ax,[bp-0x4f]
0000882B  03D8              add bx,ax
0000882D  8A07              mov al,[bx]
0000882F  B400              mov ah,0x0
00008831  A92000            test ax,0x20
00008834  7504              jnz 0x883a
00008836  80641EF0          and byte [si+0x1e],0xf0
0000883A  8BDA              mov bx,dx
0000883C  D1E3              shl bx,1
0000883E  8D46B0            lea ax,[bp-0x50]
00008841  03D8              add bx,ax
00008843  803F78            cmp byte [bx],0x78
00008846  753F              jnz 0x8887
00008848  8BDA              mov bx,dx
0000884A  D1E3              shl bx,1
0000884C  8D46B1            lea ax,[bp-0x4f]
0000884F  03D8              add bx,ax
00008851  F60740            test byte [bx],0x40
00008854  7431              jz 0x8887
00008856  8AC2              mov al,dl
00008858  B104              mov cl,0x4
0000885A  D2E0              shl al,cl
0000885C  0AC2              or al,dl
0000885E  88441D            mov [si+0x1d],al
00008861  813E10590001      cmp word [0x5910],0x100
00008867  751E              jnz 0x8887
00008869  8A441D            mov al,[si+0x1d]
0000886C  0411              add al,0x11
0000886E  88441D            mov [si+0x1d],al
00008871  8BDA              mov bx,dx
00008873  D1E3              shl bx,1
00008875  8D46B1            lea ax,[bp-0x4f]
00008878  03D8              add bx,ax
0000887A  8A07              mov al,[bx]
0000887C  B400              mov ah,0x0
0000887E  A92000            test ax,0x20
00008881  7504              jnz 0x8887
00008883  80641DF0          and byte [si+0x1d],0xf0
00008887  42                inc dx
00008888  3B56AE            cmp dx,[bp-0x52]
0000888B  7D03              jnl 0x8890
0000888D  E952FF            jmp 0x87e2
00008890  A12059            mov ax,[0x5920]
00008893  894404            mov [si+0x4],ax
00008896  C6440C01          mov byte [si+0xc],0x1
0000889A  C6440B00          mov byte [si+0xb],0x0
0000889E  C744220000        mov word [si+0x22],0x0
000088A3  C744200000        mov word [si+0x20],0x0
000088A8  837EAE00          cmp word [bp-0x52],byte +0x0
000088AC  7E14              jng 0x88c2
000088AE  807C1DFF          cmp byte [si+0x1d],0xff
000088B2  7406              jz 0x88ba
000088B4  807C1EFF          cmp byte [si+0x1e],0xff
000088B8  7508              jnz 0x88c2
000088BA  B0FE              mov al,0xfe
000088BC  88441E            mov [si+0x1e],al
000088BF  88441D            mov [si+0x1d],al
000088C2  8BC6              mov ax,si
000088C4  5F                pop di
000088C5  5E                pop si
000088C6  8BE5              mov sp,bp
000088C8  5D                pop bp
000088C9  C20800            ret 0x8
000088CC  55                push bp
000088CD  8BEC              mov bp,sp
000088CF  B80A59            mov ax,0x590a
000088D2  1E                push ds
000088D3  50                push ax
000088D4  FF7608            push word [bp+0x8]
000088D7  FF7606            push word [bp+0x6]
000088DA  B92400            mov cx,0x24
000088DD  E898F2            call 0x7b78
000088E0  C45E0A            les bx,[bp+0xa]
000088E3  26FF37            push word [es:bx]
000088E6  E85FFA            call 0x8348
000088E9  8BD0              mov dx,ax
000088EB  0BD2              or dx,dx
000088ED  752A              jnz 0x8919
000088EF  C7060A590100      mov word [0x590a],0x1
000088F5  A10A59            mov ax,[0x590a]
000088F8  D1E0              shl ax,1
000088FA  50                push ax
000088FB  E82BF2            call 0x7b29
000088FE  59                pop cx
000088FF  A30C59            mov [0x590c],ax
00008902  FF760C            push word [bp+0xc]
00008905  FF760A            push word [bp+0xa]
00008908  FF7604            push word [bp+0x4]
0000890B  33C0              xor ax,ax
0000890D  50                push ax
0000890E  E80C00            call 0x891d
00008911  8B1E0C59          mov bx,[0x590c]
00008915  8907              mov [bx],ax
00008917  33C0              xor ax,ax
00008919  5D                pop bp
0000891A  C20A00            ret 0xa
0000891D  55                push bp
0000891E  8BEC              mov bp,sp
00008920  56                push si
00008921  8B7604            mov si,[bp+0x4]
00008924  0BF6              or si,si
00008926  750E              jnz 0x8936
00008928  B83600            mov ax,0x36
0000892B  50                push ax
0000892C  E8FAF1            call 0x7b29
0000892F  59                pop cx
00008930  8BF0              mov si,ax
00008932  0BC0              or ax,ax
00008934  743F              jz 0x8975
00008936  B83600            mov ax,0x36
00008939  50                push ax
0000893A  FF760A            push word [bp+0xa]
0000893D  FF7608            push word [bp+0x8]
00008940  1E                push ds
00008941  56                push si
00008942  E8FDEA            call 0x7442
00008945  83C40A            add sp,byte +0xa
00008948  837E0600          cmp word [bp+0x6],byte +0x0
0000894C  7408              jz 0x8956
0000894E  C45E08            les bx,[bp+0x8]
00008951  26C6470C01        mov byte [es:bx+0xc],0x1
00008956  C6440C01          mov byte [si+0xc],0x1
0000895A  C744340000        mov word [si+0x34],0x0
0000895F  C6440B00          mov byte [si+0xb],0x0
00008963  C744220000        mov word [si+0x22],0x0
00008968  C744200000        mov word [si+0x20],0x0
0000896D  B80100            mov ax,0x1
00008970  50                push ax
00008971  56                push si
00008972  E85EEC            call 0x75d3
00008975  8BC6              mov ax,si
00008977  5E                pop si
00008978  5D                pop bp
00008979  C20800            ret 0x8
0000897C  56                push si
0000897D  57                push di
0000897E  833E285900        cmp word [0x5928],byte +0x0
00008983  740D              jz 0x8992
00008985  33C0              xor ax,ax
00008987  33D2              xor dx,dx
00008989  50                push ax
0000898A  52                push dx
0000898B  FF362859          push word [0x5928]
0000898F  E80FED            call 0x76a1
00008992  C7061E590000      mov word [0x591e],0x0
00008998  E811EA            call 0x73ac
0000899B  8B360C59          mov si,[0x590c]
0000899F  33FF              xor di,di
000089A1  EB2C              jmp short 0x89cf
000089A3  8B1C              mov bx,[si]
000089A5  837F3400          cmp word [bx+0x34],byte +0x0
000089A9  7411              jz 0x89bc
000089AB  B80200            mov ax,0x2
000089AE  50                push ax
000089AF  FF7734            push word [bx+0x34]
000089B2  E81CAC            call 0x35d1
000089B5  EB05              jmp short 0x89bc
000089B7  FF34              push word [si]
000089B9  E8FEEE            call 0x78ba
000089BC  8B1C              mov bx,[si]
000089BE  837F2000          cmp word [bx+0x20],byte +0x0
000089C2  7FF3              jg 0x89b7
000089C4  33C0              xor ax,ax
000089C6  50                push ax
000089C7  53                push bx
000089C8  E808EC            call 0x75d3
000089CB  47                inc di
000089CC  83C602            add si,byte +0x2
000089CF  3B3E0A59          cmp di,[0x590a]
000089D3  7CCE              jl 0x89a3
000089D5  33C0              xor ax,ax
000089D7  5F                pop di
000089D8  5E                pop si
000089D9  C3                ret
000089DA  55                push bp
000089DB  8BEC              mov bp,sp
000089DD  56                push si
000089DE  8B7604            mov si,[bp+0x4]
000089E1  0BF6              or si,si
000089E3  750E              jnz 0x89f3
000089E5  B82400            mov ax,0x24
000089E8  50                push ax
000089E9  E83DF1            call 0x7b29
000089EC  59                pop cx
000089ED  8BF0              mov si,ax
000089EF  0BC0              or ax,ax
000089F1  7438              jz 0x8a2b
000089F3  C744140000        mov word [si+0x14],0x0
000089F8  C744160800        mov word [si+0x16],0x8
000089FD  C744180000        mov word [si+0x18],0x0
00008A02  C7441A0000        mov word [si+0x1a],0x0
00008A07  C7441C0000        mov word [si+0x1c],0x0
00008A0C  C7441E0000        mov word [si+0x1e],0x0
00008A11  C744020000        mov word [si+0x2],0x0
00008A16  C744040000        mov word [si+0x4],0x0
00008A1B  C744080000        mov word [si+0x8],0x0
00008A20  8BC6              mov ax,si
00008A22  050800            add ax,0x8
00008A25  8C5C10            mov [si+0x10],ds
00008A28  89440E            mov [si+0xe],ax
00008A2B  8BC6              mov ax,si
00008A2D  5E                pop si
00008A2E  5D                pop bp
00008A2F  C20200            ret 0x2
00008A32  50                push ax
00008A33  53                push bx
00008A34  51                push cx
00008A35  52                push dx
00008A36  56                push si
00008A37  57                push di
00008A38  1E                push ds
00008A39  06                push es
00008A3A  55                push bp
00008A3B  0E                push cs
00008A3C  1F                pop ds
00008A3D  A34C58            mov [0x584c],ax
00008A40  A30D00            mov [0xd],ax
00008A43  89161000          mov [0x10],dx
00008A47  890E0B00          mov [0xb],cx
00008A4B  BF4859            mov di,0x5948
00008A4E  033E0B00          add di,[0xb]
00008A52  7303              jnc 0x8a57
00008A54  E9AA01            jmp 0x8c01
00008A57  033E3457          add di,[0x5734]
00008A5B  7303              jnc 0x8a60
00008A5D  E9A101            jmp 0x8c01
00008A60  BB6264            mov bx,0x6462
00008A63  81C30002          add bx,0x200
00008A67  3BFB              cmp di,bx
00008A69  7302              jnc 0x8a6d
00008A6B  8BFB              mov di,bx
00008A6D  B104              mov cl,0x4
00008A6F  D3EF              shr di,cl
00008A71  47                inc di
00008A72  1E                push ds
00008A73  57                push di
00008A74  B402              mov ah,0x2
00008A76  CD16              int 0x16
00008A78  240C              and al,0xc
00008A7A  3C0C              cmp al,0xc
00008A7C  7519              jnz 0x8a97
00008A7E  B400              mov ah,0x0
00008A80  CD16              int 0x16
00008A82  80FC30            cmp ah,0x30
00008A85  7505              jnz 0x8a8c
00008A87  5F                pop di
00008A88  1F                pop ds
00008A89  E97501            jmp 0x8c01
00008A8C  80FC20            cmp ah,0x20
00008A8F  7506              jnz 0x8a97
00008A91  C70611570100      mov word [0x5711],0x1
00008A97  5F                pop di
00008A98  1F                pop ds
00008A99  33C0              xor ax,ax
00008A9B  8EC0              mov es,ax
00008A9D  FA                cli
00008A9E  26A11304          mov ax,[es:0x413]
00008AA2  B106              mov cl,0x6
00008AA4  D3E0              shl ax,cl
00008AA6  2BC7              sub ax,di
00008AA8  8BD0              mov dx,ax
00008AAA  D3E8              shr ax,cl
00008AAC  26A31304          mov [es:0x413],ax
00008AB0  FB                sti
00008AB1  57                push di
00008AB2  8EC2              mov es,dx
00008AB4  33F6              xor si,si
00008AB6  33FF              xor di,di
00008AB8  B96264            mov cx,0x6462
00008ABB  FC                cld
00008ABC  F3A4              rep movsb
00008ABE  5F                pop di
00008ABF  8CC0              mov ax,es
00008AC1  8ED8              mov ds,ax
00008AC3  8C1E2C57          mov [0x572c],ds
00008AC7  C7062A57D162      mov word [0x572a],0x62d1
00008ACD  FF2E2A57          jmp far [0x572a]
00008AD1  B104              mov cl,0x4
00008AD3  D3E7              shl di,cl
00008AD5  8C161A57          mov [0x571a],ss
00008AD9  89261C57          mov [0x571c],sp
00008ADD  FA                cli
00008ADE  8ED2              mov ss,dx
00008AE0  8BE7              mov sp,di
00008AE2  FB                sti
00008AE3  33DB              xor bx,bx
00008AE5  891EF956          mov [0x56f9],bx
00008AE9  891EF756          mov [0x56f7],bx
00008AED  891EF356          mov [0x56f3],bx
00008AF1  891EF156          mov [0x56f1],bx
00008AF5  891EF556          mov [0x56f5],bx
00008AF9  8CD8              mov ax,ds
00008AFB  8EC0              mov es,ax
00008AFD  33C0              xor ax,ax
00008AFF  BFF258            mov di,0x58f2
00008B02  B94859            mov cx,0x5948
00008B05  2BCF              sub cx,di
00008B07  FC                cld
00008B08  F3AA              rep stosb
00008B0A  2E8A1E0A00        mov bl,[cs:0xa]
00008B0F  881E3857          mov [0x5738],bl
00008B13  2E8B1E0B00        mov bx,[cs:0xb]
00008B18  891E3657          mov [0x5736],bx
00008B1C  2E8B1E0D00        mov bx,[cs:0xd]
00008B21  891E3B57          mov [0x573b],bx
00008B25  8B1E3D57          mov bx,[0x573d]
00008B29  2E891E1400        mov [cs:0x14],bx
00008B2E  B400              mov ah,0x0
00008B30  CD1A              int 0x1a
00008B32  8916FD56          mov [0x56fd],dx
00008B36  890EFF56          mov [0x56ff],cx
00008B3A  0AC0              or al,al
00008B3C  740C              jz 0x8b4a
00008B3E  B84000            mov ax,0x40
00008B41  8EC0              mov es,ax
00008B43  BB7000            mov bx,0x70
00008B46  26C60701          mov byte [es:bx],0x1
00008B4A  33ED              xor bp,bp
00008B4C  8CD8              mov ax,ds
00008B4E  8EC0              mov es,ax
00008B50  BEE058            mov si,0x58e0
00008B53  BFF258            mov di,0x58f2
00008B56  E8B200            call 0x8c0b
00008B59  50                push ax
00008B5A  8C161657          mov [0x5716],ss
00008B5E  89261857          mov [0x5718],sp
00008B62  B440              mov ah,0x40
00008B64  CD1A              int 0x1a
00008B66  721A              jc 0x8b82
00008B68  81F95353          cmp cx,0x5353
00008B6C  7514              jnz 0x8b82
00008B6E  98                cbw
00008B6F  48                dec ax
00008B70  A21557            mov [0x5715],al
00008B73  FF361157          push word [0x5711]
00008B77  50                push ax
00008B78  E814A1            call 0x2c8f
00008B7B  3D0000            cmp ax,0x0
00008B7E  7502              jnz 0x8b82
00008B80  EB02              jmp short 0x8b84
00008B82  EB73              jmp short 0x8bf7
00008B84  A03957            mov al,[0x5739]
00008B87  A21200            mov [0x12],al
00008B8A  A03A57            mov al,[0x573a]
00008B8D  A21300            mov [0x13],al
00008B90  B80000            mov ax,0x0
00008B93  8EC0              mov es,ax
00008B95  26A12400          mov ax,[es:0x24]
00008B99  A31E57            mov [0x571e],ax
00008B9C  26A12600          mov ax,[es:0x26]
00008BA0  A32057            mov [0x5720],ax
00008BA3  FA                cli
00008BA4  26C70624001A00    mov word [es:0x24],0x1a
00008BAB  268C0E2600        mov [es:0x26],cs
00008BB0  FB                sti
00008BB1  2EF6060A0008      test byte [cs:0xa],0x8
00008BB7  751C              jnz 0x8bd5
00008BB9  26A15400          mov ax,[es:0x54]
00008BBD  A32657            mov [0x5726],ax
00008BC0  26A15600          mov ax,[es:0x56]
00008BC4  A32857            mov [0x5728],ax
00008BC7  FA                cli
00008BC8  26C7065400AD01    mov word [es:0x54],0x1ad
00008BCF  268C0E5600        mov [es:0x56],cs
00008BD4  FB                sti
00008BD5  26A14C00          mov ax,[es:0x4c]
00008BD9  A32257            mov [0x5722],ax
00008BDC  A3E700            mov [0xe7],ax
00008BDF  26A14E00          mov ax,[es:0x4e]
00008BE3  A32457            mov [0x5724],ax
00008BE6  A3E900            mov [0xe9],ax
00008BE9  FA                cli
00008BEA  26C7064C00D400    mov word [es:0x4c],0xd4
00008BF1  268C0E4E00        mov [es:0x4e],cs
00008BF6  FB                sti
00008BF7  FA                cli
00008BF8  8E161A57          mov ss,[0x571a]
00008BFC  8B261C57          mov sp,[0x571c]
00008C00  FB                sti
00008C01  5D                pop bp
00008C02  07                pop es
00008C03  1F                pop ds
00008C04  5F                pop di
00008C05  5E                pop si
00008C06  5A                pop dx
00008C07  59                pop cx
00008C08  5B                pop bx
00008C09  58                pop ax
00008C0A  CB                retf
00008C0B  81FEE058          cmp si,0x58e0
00008C0F  7404              jz 0x8c15
00008C11  32E4              xor ah,ah
00008C13  EB02              jmp short 0x8c17
00008C15  B4FF              mov ah,0xff
00008C17  8BD7              mov dx,di
00008C19  8BDE              mov bx,si
00008C1B  3BDF              cmp bx,di
00008C1D  7423              jz 0x8c42
00008C1F  26803FFF          cmp byte [es:bx],0xff
00008C23  7418              jz 0x8c3d
00008C25  81FEE058          cmp si,0x58e0
00008C29  7406              jz 0x8c31
00008C2B  263A6701          cmp ah,[es:bx+0x1]
00008C2F  EB04              jmp short 0x8c35
00008C31  26386701          cmp [es:bx+0x1],ah
00008C35  7706              ja 0x8c3d
00008C37  268A6701          mov ah,[es:bx+0x1]
00008C3B  8BD3              mov dx,bx
00008C3D  83C306            add bx,byte +0x6
00008C40  EBD9              jmp short 0x8c1b
00008C42  3BD7              cmp dx,di
00008C44  741B              jz 0x8c61
00008C46  8BDA              mov bx,dx
00008C48  26803F00          cmp byte [es:bx],0x0
00008C4C  26C607FF          mov byte [es:bx],0xff
00008C50  06                push es
00008C51  7407              jz 0x8c5a
00008C53  26FF5F02          call far [es:bx+0x2]
00008C57  07                pop es
00008C58  EBB1              jmp short 0x8c0b
00008C5A  26FF5702          call near [es:bx+0x2]
00008C5E  07                pop es
00008C5F  EBAA              jmp short 0x8c0b
00008C61  C3                ret
00008C62  0000              add [bx+si],al
00008C64  0000              add [bx+si],al
00008C66  0000              add [bx+si],al
00008C68  0000              add [bx+si],al
00008C6A  0000              add [bx+si],al
00008C6C  0000              add [bx+si],al
00008C6E  0000              add [bx+si],al
00008C70  0000              add [bx+si],al
00008C72  0000              add [bx+si],al
00008C74  0000              add [bx+si],al
00008C76  0000              add [bx+si],al
00008C78  0000              add [bx+si],al
00008C7A  0000              add [bx+si],al
00008C7C  0000              add [bx+si],al
00008C7E  0000              add [bx+si],al
00008C80  0000              add [bx+si],al
00008C82  0000              add [bx+si],al
00008C84  0000              add [bx+si],al
00008C86  0000              add [bx+si],al
00008C88  0000              add [bx+si],al
00008C8A  0000              add [bx+si],al
00008C8C  0000              add [bx+si],al
00008C8E  0000              add [bx+si],al
00008C90  0000              add [bx+si],al
00008C92  0000              add [bx+si],al
00008C94  0000              add [bx+si],al
00008C96  0000              add [bx+si],al
00008C98  0000              add [bx+si],al
00008C9A  0000              add [bx+si],al
00008C9C  0000              add [bx+si],al
00008C9E  0000              add [bx+si],al
00008CA0  0000              add [bx+si],al
00008CA2  0000              add [bx+si],al
00008CA4  0000              add [bx+si],al
00008CA6  0000              add [bx+si],al
00008CA8  0000              add [bx+si],al
00008CAA  0000              add [bx+si],al
00008CAC  0000              add [bx+si],al
00008CAE  0000              add [bx+si],al
00008CB0  0000              add [bx+si],al
00008CB2  0000              add [bx+si],al
00008CB4  0000              add [bx+si],al
00008CB6  0000              add [bx+si],al
00008CB8  0000              add [bx+si],al
00008CBA  0000              add [bx+si],al
00008CBC  0000              add [bx+si],al
00008CBE  0000              add [bx+si],al
00008CC0  0000              add [bx+si],al
00008CC2  0000              add [bx+si],al
00008CC4  0000              add [bx+si],al
00008CC6  0000              add [bx+si],al
00008CC8  0000              add [bx+si],al
00008CCA  0000              add [bx+si],al
00008CCC  0000              add [bx+si],al
00008CCE  0000              add [bx+si],al
00008CD0  0000              add [bx+si],al
00008CD2  0000              add [bx+si],al
00008CD4  0000              add [bx+si],al
00008CD6  0000              add [bx+si],al
00008CD8  0000              add [bx+si],al
00008CDA  0000              add [bx+si],al
00008CDC  0000              add [bx+si],al
00008CDE  0000              add [bx+si],al
00008CE0  0000              add [bx+si],al
00008CE2  0000              add [bx+si],al
00008CE4  0000              add [bx+si],al
00008CE6  0000              add [bx+si],al
00008CE8  0000              add [bx+si],al
00008CEA  0000              add [bx+si],al
00008CEC  0000              add [bx+si],al
00008CEE  0000              add [bx+si],al
00008CF0  0000              add [bx+si],al
00008CF2  0000              add [bx+si],al
00008CF4  0000              add [bx+si],al
00008CF6  0000              add [bx+si],al
00008CF8  0000              add [bx+si],al
00008CFA  0000              add [bx+si],al
00008CFC  0000              add [bx+si],al
00008CFE  0000              add [bx+si],al
00008D00  0000              add [bx+si],al
00008D02  0000              add [bx+si],al
00008D04  0000              add [bx+si],al
00008D06  0000              add [bx+si],al
00008D08  0000              add [bx+si],al
00008D0A  0000              add [bx+si],al
00008D0C  0000              add [bx+si],al
00008D0E  0000              add [bx+si],al
00008D10  0000              add [bx+si],al
00008D12  0000              add [bx+si],al
00008D14  0000              add [bx+si],al
00008D16  0000              add [bx+si],al
00008D18  0000              add [bx+si],al
00008D1A  0000              add [bx+si],al
00008D1C  0000              add [bx+si],al
00008D1E  0000              add [bx+si],al
00008D20  0000              add [bx+si],al
00008D22  0000              add [bx+si],al
00008D24  0000              add [bx+si],al
00008D26  0000              add [bx+si],al
00008D28  0000              add [bx+si],al
00008D2A  0000              add [bx+si],al
00008D2C  0000              add [bx+si],al
00008D2E  0000              add [bx+si],al
00008D30  0000              add [bx+si],al
00008D32  0000              add [bx+si],al
00008D34  0000              add [bx+si],al
00008D36  0000              add [bx+si],al
00008D38  0000              add [bx+si],al
00008D3A  0000              add [bx+si],al
00008D3C  0000              add [bx+si],al
00008D3E  0000              add [bx+si],al
00008D40  0000              add [bx+si],al
00008D42  0000              add [bx+si],al
00008D44  0000              add [bx+si],al
00008D46  0000              add [bx+si],al
00008D48  0000              add [bx+si],al
00008D4A  0000              add [bx+si],al
00008D4C  0000              add [bx+si],al
00008D4E  0000              add [bx+si],al
00008D50  0000              add [bx+si],al
00008D52  0000              add [bx+si],al
00008D54  0000              add [bx+si],al
00008D56  0000              add [bx+si],al
00008D58  0000              add [bx+si],al
00008D5A  0000              add [bx+si],al
00008D5C  0000              add [bx+si],al
00008D5E  0000              add [bx+si],al
00008D60  0000              add [bx+si],al
00008D62  0000              add [bx+si],al
00008D64  0000              add [bx+si],al
00008D66  0000              add [bx+si],al
00008D68  0000              add [bx+si],al
00008D6A  0000              add [bx+si],al
00008D6C  0000              add [bx+si],al
00008D6E  0000              add [bx+si],al
00008D70  0000              add [bx+si],al
00008D72  0000              add [bx+si],al
00008D74  0000              add [bx+si],al
00008D76  0000              add [bx+si],al
00008D78  0000              add [bx+si],al
00008D7A  0000              add [bx+si],al
00008D7C  0000              add [bx+si],al
00008D7E  0000              add [bx+si],al
00008D80  0000              add [bx+si],al
00008D82  0000              add [bx+si],al
00008D84  0000              add [bx+si],al
00008D86  0000              add [bx+si],al
00008D88  0000              add [bx+si],al
00008D8A  0000              add [bx+si],al
00008D8C  0000              add [bx+si],al
00008D8E  0000              add [bx+si],al
00008D90  0000              add [bx+si],al
00008D92  0000              add [bx+si],al
00008D94  0000              add [bx+si],al
00008D96  0000              add [bx+si],al
00008D98  0000              add [bx+si],al
00008D9A  0000              add [bx+si],al
00008D9C  0000              add [bx+si],al
00008D9E  0000              add [bx+si],al
00008DA0  0000              add [bx+si],al
00008DA2  0000              add [bx+si],al
00008DA4  0000              add [bx+si],al
00008DA6  0000              add [bx+si],al
00008DA8  0000              add [bx+si],al
00008DAA  0000              add [bx+si],al
00008DAC  0000              add [bx+si],al
00008DAE  0000              add [bx+si],al
00008DB0  0000              add [bx+si],al
00008DB2  0000              add [bx+si],al
00008DB4  0000              add [bx+si],al
00008DB6  0000              add [bx+si],al
00008DB8  0000              add [bx+si],al
00008DBA  0000              add [bx+si],al
00008DBC  0000              add [bx+si],al
00008DBE  0000              add [bx+si],al
00008DC0  0000              add [bx+si],al
00008DC2  0000              add [bx+si],al
00008DC4  0000              add [bx+si],al
00008DC6  0000              add [bx+si],al
00008DC8  0000              add [bx+si],al
00008DCA  0000              add [bx+si],al
00008DCC  0000              add [bx+si],al
00008DCE  0000              add [bx+si],al
00008DD0  0000              add [bx+si],al
00008DD2  0000              add [bx+si],al
00008DD4  0000              add [bx+si],al
00008DD6  0000              add [bx+si],al
00008DD8  0000              add [bx+si],al
00008DDA  0000              add [bx+si],al
00008DDC  0000              add [bx+si],al
00008DDE  0000              add [bx+si],al
00008DE0  0000              add [bx+si],al
00008DE2  0000              add [bx+si],al
00008DE4  0000              add [bx+si],al
00008DE6  0000              add [bx+si],al
00008DE8  0000              add [bx+si],al
00008DEA  0000              add [bx+si],al
00008DEC  0000              add [bx+si],al
00008DEE  0000              add [bx+si],al
00008DF0  0000              add [bx+si],al
00008DF2  0000              add [bx+si],al
00008DF4  0000              add [bx+si],al
00008DF6  0000              add [bx+si],al
00008DF8  0000              add [bx+si],al
00008DFA  0000              add [bx+si],al
00008DFC  0000              add [bx+si],al
00008DFE  0000              add [bx+si],al
00008E00  0000              add [bx+si],al
00008E02  0000              add [bx+si],al
00008E04  0000              add [bx+si],al
00008E06  0000              add [bx+si],al
00008E08  0000              add [bx+si],al
00008E0A  0000              add [bx+si],al
00008E0C  0000              add [bx+si],al
00008E0E  0000              add [bx+si],al
00008E10  0000              add [bx+si],al
00008E12  0000              add [bx+si],al
00008E14  0000              add [bx+si],al
00008E16  0000              add [bx+si],al
00008E18  0000              add [bx+si],al
00008E1A  0000              add [bx+si],al
00008E1C  0000              add [bx+si],al
00008E1E  0000              add [bx+si],al
00008E20  0000              add [bx+si],al
00008E22  0000              add [bx+si],al
00008E24  0000              add [bx+si],al
00008E26  0000              add [bx+si],al
00008E28  0000              add [bx+si],al
00008E2A  0000              add [bx+si],al
00008E2C  0000              add [bx+si],al
00008E2E  0000              add [bx+si],al
00008E30  0000              add [bx+si],al
00008E32  0000              add [bx+si],al
00008E34  0000              add [bx+si],al
00008E36  0000              add [bx+si],al
00008E38  0000              add [bx+si],al
00008E3A  0000              add [bx+si],al
00008E3C  0000              add [bx+si],al
00008E3E  0000              add [bx+si],al
00008E40  0000              add [bx+si],al
00008E42  0000              add [bx+si],al
00008E44  0000              add [bx+si],al
00008E46  0000              add [bx+si],al
00008E48  0000              add [bx+si],al
00008E4A  0000              add [bx+si],al
00008E4C  0000              add [bx+si],al
00008E4E  0000              add [bx+si],al
00008E50  0000              add [bx+si],al
00008E52  0000              add [bx+si],al
00008E54  0000              add [bx+si],al
00008E56  0000              add [bx+si],al
00008E58  0000              add [bx+si],al
00008E5A  0000              add [bx+si],al
00008E5C  0000              add [bx+si],al
00008E5E  0000              add [bx+si],al
00008E60  0000              add [bx+si],al
00008E62  0000              add [bx+si],al
00008E64  0000              add [bx+si],al
00008E66  0000              add [bx+si],al
00008E68  0000              add [bx+si],al
00008E6A  0000              add [bx+si],al
00008E6C  0000              add [bx+si],al
00008E6E  0000              add [bx+si],al
00008E70  0000              add [bx+si],al
00008E72  0000              add [bx+si],al
00008E74  0000              add [bx+si],al
00008E76  0000              add [bx+si],al
00008E78  0000              add [bx+si],al
00008E7A  0000              add [bx+si],al
00008E7C  0000              add [bx+si],al
00008E7E  0000              add [bx+si],al
00008E80  0000              add [bx+si],al
00008E82  0000              add [bx+si],al
00008E84  0000              add [bx+si],al
00008E86  0000              add [bx+si],al
00008E88  0000              add [bx+si],al
00008E8A  0000              add [bx+si],al
00008E8C  0000              add [bx+si],al
00008E8E  0000              add [bx+si],al
00008E90  0000              add [bx+si],al
00008E92  0000              add [bx+si],al
00008E94  0000              add [bx+si],al
00008E96  0000              add [bx+si],al
00008E98  0000              add [bx+si],al
00008E9A  0000              add [bx+si],al
00008E9C  0000              add [bx+si],al
00008E9E  0000              add [bx+si],al
00008EA0  0000              add [bx+si],al
00008EA2  0000              add [bx+si],al
00008EA4  0000              add [bx+si],al
00008EA6  0000              add [bx+si],al
00008EA8  0000              add [bx+si],al
00008EAA  0000              add [bx+si],al
00008EAC  0000              add [bx+si],al
00008EAE  0000              add [bx+si],al
00008EB0  0000              add [bx+si],al
00008EB2  0000              add [bx+si],al
00008EB4  0000              add [bx+si],al
00008EB6  0000              add [bx+si],al
00008EB8  0000              add [bx+si],al
00008EBA  0000              add [bx+si],al
00008EBC  0000              add [bx+si],al
00008EBE  0000              add [bx+si],al
00008EC0  0000              add [bx+si],al
00008EC2  0000              add [bx+si],al
00008EC4  0000              add [bx+si],al
00008EC6  0000              add [bx+si],al
00008EC8  0000              add [bx+si],al
00008ECA  0000              add [bx+si],al
00008ECC  0000              add [bx+si],al
00008ECE  0000              add [bx+si],al
00008ED0  0000              add [bx+si],al
00008ED2  0000              add [bx+si],al
00008ED4  0000              add [bx+si],al
00008ED6  0000              add [bx+si],al
00008ED8  0000              add [bx+si],al
00008EDA  0000              add [bx+si],al
00008EDC  0000              add [bx+si],al
00008EDE  0000              add [bx+si],al
00008EE0  0000              add [bx+si],al
00008EE2  0000              add [bx+si],al
00008EE4  0000              add [bx+si],al
00008EE6  0000              add [bx+si],al
00008EE8  0000              add [bx+si],al
00008EEA  0000              add [bx+si],al
00008EEC  0000              add [bx+si],al
00008EEE  0000              add [bx+si],al
00008EF0  0000              add [bx+si],al
00008EF2  0000              add [bx+si],al
00008EF4  0000              add [bx+si],al
00008EF6  0000              add [bx+si],al
00008EF8  0000              add [bx+si],al
00008EFA  0000              add [bx+si],al
00008EFC  0000              add [bx+si],al
00008EFE  0000              add [bx+si],al
00008F00  0000              add [bx+si],al
00008F02  0000              add [bx+si],al
00008F04  0000              add [bx+si],al
00008F06  0000              add [bx+si],al
00008F08  0000              add [bx+si],al
00008F0A  0000              add [bx+si],al
00008F0C  0000              add [bx+si],al
00008F0E  0000              add [bx+si],al
00008F10  0000              add [bx+si],al
00008F12  0000              add [bx+si],al
00008F14  0000              add [bx+si],al
00008F16  0000              add [bx+si],al
00008F18  0000              add [bx+si],al
00008F1A  0000              add [bx+si],al
00008F1C  0000              add [bx+si],al
00008F1E  0000              add [bx+si],al
00008F20  0000              add [bx+si],al
00008F22  0000              add [bx+si],al
00008F24  0000              add [bx+si],al
00008F26  0000              add [bx+si],al
00008F28  0000              add [bx+si],al
00008F2A  0000              add [bx+si],al
00008F2C  0000              add [bx+si],al
00008F2E  0000              add [bx+si],al
00008F30  0000              add [bx+si],al
00008F32  0000              add [bx+si],al
00008F34  0000              add [bx+si],al
00008F36  0000              add [bx+si],al
00008F38  0000              add [bx+si],al
00008F3A  0000              add [bx+si],al
00008F3C  0000              add [bx+si],al
00008F3E  0000              add [bx+si],al
00008F40  0000              add [bx+si],al
00008F42  0000              add [bx+si],al
00008F44  0000              add [bx+si],al
00008F46  0000              add [bx+si],al
00008F48  0000              add [bx+si],al
00008F4A  0000              add [bx+si],al
00008F4C  0000              add [bx+si],al
00008F4E  0000              add [bx+si],al
00008F50  0000              add [bx+si],al
00008F52  0000              add [bx+si],al
00008F54  0000              add [bx+si],al
00008F56  0000              add [bx+si],al
00008F58  0000              add [bx+si],al
00008F5A  0000              add [bx+si],al
00008F5C  0000              add [bx+si],al
00008F5E  0000              add [bx+si],al
00008F60  0000              add [bx+si],al
00008F62  0000              add [bx+si],al
00008F64  0000              add [bx+si],al
00008F66  0000              add [bx+si],al
00008F68  0000              add [bx+si],al
00008F6A  0000              add [bx+si],al
00008F6C  0000              add [bx+si],al
00008F6E  0000              add [bx+si],al
00008F70  0000              add [bx+si],al
00008F72  0000              add [bx+si],al
00008F74  0000              add [bx+si],al
00008F76  0000              add [bx+si],al
00008F78  0000              add [bx+si],al
00008F7A  0000              add [bx+si],al
00008F7C  0000              add [bx+si],al
00008F7E  0000              add [bx+si],al
00008F80  0000              add [bx+si],al
00008F82  0000              add [bx+si],al
00008F84  0000              add [bx+si],al
00008F86  0000              add [bx+si],al
00008F88  0000              add [bx+si],al
00008F8A  0000              add [bx+si],al
00008F8C  0000              add [bx+si],al
00008F8E  0000              add [bx+si],al
00008F90  0000              add [bx+si],al
00008F92  0000              add [bx+si],al
00008F94  0000              add [bx+si],al
00008F96  0000              add [bx+si],al
00008F98  0000              add [bx+si],al
00008F9A  0000              add [bx+si],al
00008F9C  0000              add [bx+si],al
00008F9E  0000              add [bx+si],al
00008FA0  0000              add [bx+si],al
00008FA2  0000              add [bx+si],al
00008FA4  0000              add [bx+si],al
00008FA6  0000              add [bx+si],al
00008FA8  0000              add [bx+si],al
00008FAA  0000              add [bx+si],al
00008FAC  0000              add [bx+si],al
00008FAE  0000              add [bx+si],al
00008FB0  0000              add [bx+si],al
00008FB2  0000              add [bx+si],al
00008FB4  0000              add [bx+si],al
00008FB6  0000              add [bx+si],al
00008FB8  0000              add [bx+si],al
00008FBA  0000              add [bx+si],al
00008FBC  0000              add [bx+si],al
00008FBE  0000              add [bx+si],al
00008FC0  0000              add [bx+si],al
00008FC2  0000              add [bx+si],al
00008FC4  0000              add [bx+si],al
00008FC6  0000              add [bx+si],al
00008FC8  0000              add [bx+si],al
00008FCA  0000              add [bx+si],al
00008FCC  0000              add [bx+si],al
00008FCE  0000              add [bx+si],al
00008FD0  0000              add [bx+si],al
00008FD2  0000              add [bx+si],al
00008FD4  0000              add [bx+si],al
00008FD6  0000              add [bx+si],al
00008FD8  0000              add [bx+si],al
00008FDA  0000              add [bx+si],al
00008FDC  0000              add [bx+si],al
00008FDE  0000              add [bx+si],al
00008FE0  0000              add [bx+si],al
00008FE2  0000              add [bx+si],al
00008FE4  0000              add [bx+si],al
00008FE6  0000              add [bx+si],al
00008FE8  0000              add [bx+si],al
00008FEA  0000              add [bx+si],al
00008FEC  0000              add [bx+si],al
00008FEE  0000              add [bx+si],al
00008FF0  0000              add [bx+si],al
00008FF2  0000              add [bx+si],al
00008FF4  0000              add [bx+si],al
00008FF6  0000              add [bx+si],al
00008FF8  0000              add [bx+si],al
00008FFA  0000              add [bx+si],al
00008FFC  0000              add [bx+si],al
00008FFE  00B155AA          add [bx+di+0xaa55],dh
00009002  10CB              adc bl,cl
00009004  90                nop
00009005  90                nop
00009006  90                nop
00009007  90                nop
00009008  90                nop
00009009  90                nop
0000900A  90                nop
0000900B  90                nop
0000900C  90                nop
0000900D  90                nop
0000900E  90                nop
0000900F  90                nop
00009010  90                nop
00009011  90                nop
00009012  90                nop
00009013  90                nop
00009014  90                nop
00009015  90                nop
00009016  90                nop
00009017  90                nop
00009018  90                nop
00009019  90                nop
0000901A  90                nop
0000901B  90                nop
0000901C  90                nop
0000901D  90                nop
0000901E  90                nop
0000901F  90                nop
00009020  90                nop
00009021  90                nop
00009022  90                nop
00009023  90                nop
00009024  90                nop
00009025  90                nop
00009026  90                nop
00009027  90                nop
00009028  90                nop
00009029  90                nop
0000902A  90                nop
0000902B  90                nop
0000902C  90                nop
0000902D  90                nop
0000902E  90                nop
0000902F  90                nop
00009030  90                nop
00009031  90                nop
00009032  90                nop
00009033  90                nop
00009034  90                nop
00009035  90                nop
00009036  90                nop
00009037  90                nop
00009038  90                nop
00009039  90                nop
0000903A  90                nop
0000903B  90                nop
0000903C  90                nop
0000903D  90                nop
0000903E  90                nop
0000903F  90                nop
00009040  90                nop
00009041  90                nop
00009042  90                nop
00009043  90                nop
00009044  90                nop
00009045  90                nop
00009046  90                nop
00009047  90                nop
00009048  90                nop
00009049  90                nop
0000904A  90                nop
0000904B  90                nop
0000904C  90                nop
0000904D  90                nop
0000904E  90                nop
0000904F  90                nop
00009050  90                nop
00009051  90                nop
00009052  90                nop
00009053  90                nop
00009054  90                nop
00009055  90                nop
00009056  90                nop
00009057  90                nop
00009058  90                nop
00009059  90                nop
0000905A  90                nop
0000905B  90                nop
0000905C  90                nop
0000905D  90                nop
0000905E  90                nop
0000905F  90                nop
00009060  90                nop
00009061  90                nop
00009062  90                nop
00009063  90                nop
00009064  90                nop
00009065  90                nop
00009066  90                nop
00009067  90                nop
00009068  90                nop
00009069  90                nop
0000906A  90                nop
0000906B  90                nop
0000906C  90                nop
0000906D  90                nop
0000906E  90                nop
0000906F  90                nop
00009070  90                nop
00009071  90                nop
00009072  90                nop
00009073  90                nop
00009074  90                nop
00009075  90                nop
00009076  90                nop
00009077  90                nop
00009078  90                nop
00009079  90                nop
0000907A  90                nop
0000907B  90                nop
0000907C  90                nop
0000907D  90                nop
0000907E  90                nop
0000907F  90                nop
00009080  90                nop
00009081  90                nop
00009082  90                nop
00009083  90                nop
00009084  90                nop
00009085  90                nop
00009086  90                nop
00009087  90                nop
00009088  90                nop
00009089  90                nop
0000908A  90                nop
0000908B  90                nop
0000908C  90                nop
0000908D  90                nop
0000908E  90                nop
0000908F  90                nop
00009090  90                nop
00009091  90                nop
00009092  90                nop
00009093  90                nop
00009094  90                nop
00009095  90                nop
00009096  90                nop
00009097  90                nop
00009098  90                nop
00009099  90                nop
0000909A  90                nop
0000909B  90                nop
0000909C  90                nop
0000909D  90                nop
0000909E  90                nop
0000909F  90                nop
000090A0  90                nop
000090A1  90                nop
000090A2  90                nop
000090A3  90                nop
000090A4  90                nop
000090A5  90                nop
000090A6  90                nop
000090A7  90                nop
000090A8  90                nop
000090A9  90                nop
000090AA  90                nop
000090AB  90                nop
000090AC  90                nop
000090AD  90                nop
000090AE  90                nop
000090AF  90                nop
000090B0  90                nop
000090B1  90                nop
000090B2  90                nop
000090B3  90                nop
000090B4  90                nop
000090B5  90                nop
000090B6  90                nop
000090B7  90                nop
000090B8  90                nop
000090B9  90                nop
000090BA  90                nop
000090BB  90                nop
000090BC  90                nop
000090BD  90                nop
000090BE  90                nop
000090BF  90                nop
000090C0  90                nop
000090C1  90                nop
000090C2  90                nop
000090C3  90                nop
000090C4  90                nop
000090C5  90                nop
000090C6  90                nop
000090C7  90                nop
000090C8  90                nop
000090C9  90                nop
000090CA  90                nop
000090CB  90                nop
000090CC  90                nop
000090CD  90                nop
000090CE  90                nop
000090CF  90                nop
000090D0  90                nop
000090D1  90                nop
000090D2  90                nop
000090D3  90                nop
000090D4  90                nop
000090D5  90                nop
000090D6  90                nop
000090D7  90                nop
000090D8  90                nop
000090D9  90                nop
000090DA  90                nop
000090DB  90                nop
000090DC  90                nop
000090DD  90                nop
000090DE  90                nop
000090DF  90                nop
000090E0  90                nop
000090E1  90                nop
000090E2  90                nop
000090E3  90                nop
000090E4  90                nop
000090E5  90                nop
000090E6  90                nop
000090E7  90                nop
000090E8  90                nop
000090E9  90                nop
000090EA  90                nop
000090EB  90                nop
000090EC  90                nop
000090ED  90                nop
000090EE  90                nop
000090EF  90                nop
000090F0  90                nop
000090F1  90                nop
000090F2  90                nop
000090F3  90                nop
000090F4  90                nop
000090F5  90                nop
000090F6  90                nop
000090F7  90                nop
000090F8  90                nop
000090F9  90                nop
000090FA  90                nop
000090FB  90                nop
000090FC  90                nop
000090FD  90                nop
000090FE  90                nop
000090FF  90                nop
00009100  90                nop
00009101  90                nop
00009102  90                nop
00009103  90                nop
00009104  90                nop
00009105  90                nop
00009106  90                nop
00009107  90                nop
00009108  90                nop
00009109  90                nop
0000910A  90                nop
0000910B  90                nop
0000910C  90                nop
0000910D  90                nop
0000910E  90                nop
0000910F  90                nop
00009110  90                nop
00009111  90                nop
00009112  90                nop
00009113  90                nop
00009114  90                nop
00009115  90                nop
00009116  90                nop
00009117  90                nop
00009118  90                nop
00009119  90                nop
0000911A  90                nop
0000911B  90                nop
0000911C  90                nop
0000911D  90                nop
0000911E  90                nop
0000911F  90                nop
00009120  90                nop
00009121  90                nop
00009122  90                nop
00009123  90                nop
00009124  90                nop
00009125  90                nop
00009126  90                nop
00009127  90                nop
00009128  90                nop
00009129  90                nop
0000912A  90                nop
0000912B  90                nop
0000912C  90                nop
0000912D  90                nop
0000912E  90                nop
0000912F  90                nop
00009130  90                nop
00009131  90                nop
00009132  90                nop
00009133  90                nop
00009134  90                nop
00009135  90                nop
00009136  90                nop
00009137  90                nop
00009138  90                nop
00009139  90                nop
0000913A  90                nop
0000913B  90                nop
0000913C  90                nop
0000913D  90                nop
0000913E  90                nop
0000913F  90                nop
00009140  90                nop
00009141  90                nop
00009142  90                nop
00009143  90                nop
00009144  90                nop
00009145  90                nop
00009146  90                nop
00009147  90                nop
00009148  90                nop
00009149  90                nop
0000914A  90                nop
0000914B  90                nop
0000914C  90                nop
0000914D  90                nop
0000914E  90                nop
0000914F  90                nop
00009150  90                nop
00009151  90                nop
00009152  90                nop
00009153  90                nop
00009154  90                nop
00009155  90                nop
00009156  90                nop
00009157  90                nop
00009158  90                nop
00009159  90                nop
0000915A  90                nop
0000915B  90                nop
0000915C  90                nop
0000915D  90                nop
0000915E  90                nop
0000915F  90                nop
00009160  90                nop
00009161  90                nop
00009162  90                nop
00009163  90                nop
00009164  90                nop
00009165  90                nop
00009166  90                nop
00009167  90                nop
00009168  90                nop
00009169  90                nop
0000916A  90                nop
0000916B  90                nop
0000916C  90                nop
0000916D  90                nop
0000916E  90                nop
0000916F  90                nop
00009170  90                nop
00009171  90                nop
00009172  90                nop
00009173  90                nop
00009174  90                nop
00009175  90                nop
00009176  90                nop
00009177  90                nop
00009178  90                nop
00009179  90                nop
0000917A  90                nop
0000917B  90                nop
0000917C  90                nop
0000917D  90                nop
0000917E  90                nop
0000917F  90                nop
00009180  90                nop
00009181  90                nop
00009182  90                nop
00009183  90                nop
00009184  90                nop
00009185  90                nop
00009186  90                nop
00009187  90                nop
00009188  90                nop
00009189  90                nop
0000918A  90                nop
0000918B  90                nop
0000918C  90                nop
0000918D  90                nop
0000918E  90                nop
0000918F  90                nop
00009190  90                nop
00009191  90                nop
00009192  90                nop
00009193  90                nop
00009194  90                nop
00009195  90                nop
00009196  90                nop
00009197  90                nop
00009198  90                nop
00009199  90                nop
0000919A  90                nop
0000919B  90                nop
0000919C  90                nop
0000919D  90                nop
0000919E  90                nop
0000919F  90                nop
000091A0  90                nop
000091A1  90                nop
000091A2  90                nop
000091A3  90                nop
000091A4  90                nop
000091A5  90                nop
000091A6  90                nop
000091A7  90                nop
000091A8  90                nop
000091A9  90                nop
000091AA  90                nop
000091AB  90                nop
000091AC  90                nop
000091AD  90                nop
000091AE  90                nop
000091AF  90                nop
000091B0  90                nop
000091B1  90                nop
000091B2  90                nop
000091B3  90                nop
000091B4  90                nop
000091B5  90                nop
000091B6  90                nop
000091B7  90                nop
000091B8  90                nop
000091B9  90                nop
000091BA  90                nop
000091BB  90                nop
000091BC  90                nop
000091BD  90                nop
000091BE  90                nop
000091BF  90                nop
000091C0  90                nop
000091C1  90                nop
000091C2  90                nop
000091C3  90                nop
000091C4  90                nop
000091C5  90                nop
000091C6  90                nop
000091C7  90                nop
000091C8  90                nop
000091C9  90                nop
000091CA  90                nop
000091CB  90                nop
000091CC  90                nop
000091CD  90                nop
000091CE  90                nop
000091CF  90                nop
000091D0  90                nop
000091D1  90                nop
000091D2  90                nop
000091D3  90                nop
000091D4  90                nop
000091D5  90                nop
000091D6  90                nop
000091D7  90                nop
000091D8  90                nop
000091D9  90                nop
000091DA  90                nop
000091DB  90                nop
000091DC  90                nop
000091DD  90                nop
000091DE  90                nop
000091DF  90                nop
000091E0  90                nop
000091E1  90                nop
000091E2  90                nop
000091E3  90                nop
000091E4  90                nop
000091E5  90                nop
000091E6  90                nop
000091E7  90                nop
000091E8  90                nop
000091E9  90                nop
000091EA  90                nop
000091EB  90                nop
000091EC  90                nop
000091ED  90                nop
000091EE  90                nop
000091EF  90                nop
000091F0  90                nop
000091F1  90                nop
000091F2  90                nop
000091F3  90                nop
000091F4  90                nop
000091F5  90                nop
000091F6  90                nop
000091F7  90                nop
000091F8  90                nop
000091F9  90                nop
000091FA  90                nop
000091FB  90                nop
000091FC  90                nop
000091FD  90                nop
000091FE  90                nop
000091FF  90                nop
00009200  90                nop
00009201  90                nop
00009202  90                nop
00009203  90                nop
00009204  90                nop
00009205  90                nop
00009206  90                nop
00009207  90                nop
00009208  90                nop
00009209  90                nop
0000920A  90                nop
0000920B  90                nop
0000920C  90                nop
0000920D  90                nop
0000920E  90                nop
0000920F  90                nop
00009210  90                nop
00009211  90                nop
00009212  90                nop
00009213  90                nop
00009214  90                nop
00009215  90                nop
00009216  90                nop
00009217  90                nop
00009218  90                nop
00009219  90                nop
0000921A  90                nop
0000921B  90                nop
0000921C  90                nop
0000921D  90                nop
0000921E  90                nop
0000921F  90                nop
00009220  90                nop
00009221  90                nop
00009222  90                nop
00009223  90                nop
00009224  90                nop
00009225  90                nop
00009226  90                nop
00009227  90                nop
00009228  90                nop
00009229  90                nop
0000922A  90                nop
0000922B  90                nop
0000922C  90                nop
0000922D  90                nop
0000922E  90                nop
0000922F  90                nop
00009230  90                nop
00009231  90                nop
00009232  90                nop
00009233  90                nop
00009234  90                nop
00009235  90                nop
00009236  90                nop
00009237  90                nop
00009238  90                nop
00009239  90                nop
0000923A  90                nop
0000923B  90                nop
0000923C  90                nop
0000923D  90                nop
0000923E  90                nop
0000923F  90                nop
00009240  90                nop
00009241  90                nop
00009242  90                nop
00009243  90                nop
00009244  90                nop
00009245  90                nop
00009246  90                nop
00009247  90                nop
00009248  90                nop
00009249  90                nop
0000924A  90                nop
0000924B  90                nop
0000924C  90                nop
0000924D  90                nop
0000924E  90                nop
0000924F  90                nop
00009250  90                nop
00009251  90                nop
00009252  90                nop
00009253  90                nop
00009254  90                nop
00009255  90                nop
00009256  90                nop
00009257  90                nop
00009258  90                nop
00009259  90                nop
0000925A  90                nop
0000925B  90                nop
0000925C  90                nop
0000925D  90                nop
0000925E  90                nop
0000925F  90                nop
00009260  90                nop
00009261  90                nop
00009262  90                nop
00009263  90                nop
00009264  90                nop
00009265  90                nop
00009266  90                nop
00009267  90                nop
00009268  90                nop
00009269  90                nop
0000926A  90                nop
0000926B  90                nop
0000926C  90                nop
0000926D  90                nop
0000926E  90                nop
0000926F  90                nop
00009270  90                nop
00009271  90                nop
00009272  90                nop
00009273  90                nop
00009274  90                nop
00009275  90                nop
00009276  90                nop
00009277  90                nop
00009278  90                nop
00009279  90                nop
0000927A  90                nop
0000927B  90                nop
0000927C  90                nop
0000927D  90                nop
0000927E  90                nop
0000927F  90                nop
00009280  90                nop
00009281  90                nop
00009282  90                nop
00009283  90                nop
00009284  90                nop
00009285  90                nop
00009286  90                nop
00009287  90                nop
00009288  90                nop
00009289  90                nop
0000928A  90                nop
0000928B  90                nop
0000928C  90                nop
0000928D  90                nop
0000928E  90                nop
0000928F  90                nop
00009290  90                nop
00009291  90                nop
00009292  90                nop
00009293  90                nop
00009294  90                nop
00009295  90                nop
00009296  90                nop
00009297  90                nop
00009298  90                nop
00009299  90                nop
0000929A  90                nop
0000929B  90                nop
0000929C  90                nop
0000929D  90                nop
0000929E  90                nop
0000929F  90                nop
000092A0  90                nop
000092A1  90                nop
000092A2  90                nop
000092A3  90                nop
000092A4  90                nop
000092A5  90                nop
000092A6  90                nop
000092A7  90                nop
000092A8  90                nop
000092A9  90                nop
000092AA  90                nop
000092AB  90                nop
000092AC  90                nop
000092AD  90                nop
000092AE  90                nop
000092AF  90                nop
000092B0  90                nop
000092B1  90                nop
000092B2  90                nop
000092B3  90                nop
000092B4  90                nop
000092B5  90                nop
000092B6  90                nop
000092B7  90                nop
000092B8  90                nop
000092B9  90                nop
000092BA  90                nop
000092BB  90                nop
000092BC  90                nop
000092BD  90                nop
000092BE  90                nop
000092BF  90                nop
000092C0  90                nop
000092C1  90                nop
000092C2  90                nop
000092C3  90                nop
000092C4  90                nop
000092C5  90                nop
000092C6  90                nop
000092C7  90                nop
000092C8  90                nop
000092C9  90                nop
000092CA  90                nop
000092CB  90                nop
000092CC  90                nop
000092CD  90                nop
000092CE  90                nop
000092CF  90                nop
000092D0  90                nop
000092D1  90                nop
000092D2  90                nop
000092D3  90                nop
000092D4  90                nop
000092D5  90                nop
000092D6  90                nop
000092D7  90                nop
000092D8  90                nop
000092D9  90                nop
000092DA  90                nop
000092DB  90                nop
000092DC  90                nop
000092DD  90                nop
000092DE  90                nop
000092DF  90                nop
000092E0  90                nop
000092E1  90                nop
000092E2  90                nop
000092E3  90                nop
000092E4  90                nop
000092E5  90                nop
000092E6  90                nop
000092E7  90                nop
000092E8  90                nop
000092E9  90                nop
000092EA  90                nop
000092EB  90                nop
000092EC  90                nop
000092ED  90                nop
000092EE  90                nop
000092EF  90                nop
000092F0  90                nop
000092F1  90                nop
000092F2  90                nop
000092F3  90                nop
000092F4  90                nop
000092F5  90                nop
000092F6  90                nop
000092F7  90                nop
000092F8  90                nop
000092F9  90                nop
000092FA  90                nop
000092FB  90                nop
000092FC  90                nop
000092FD  90                nop
000092FE  90                nop
000092FF  90                nop
00009300  90                nop
00009301  90                nop
00009302  90                nop
00009303  90                nop
00009304  90                nop
00009305  90                nop
00009306  90                nop
00009307  90                nop
00009308  90                nop
00009309  90                nop
0000930A  90                nop
0000930B  90                nop
0000930C  90                nop
0000930D  90                nop
0000930E  90                nop
0000930F  90                nop
00009310  90                nop
00009311  90                nop
00009312  90                nop
00009313  90                nop
00009314  90                nop
00009315  90                nop
00009316  90                nop
00009317  90                nop
00009318  90                nop
00009319  90                nop
0000931A  90                nop
0000931B  90                nop
0000931C  90                nop
0000931D  90                nop
0000931E  90                nop
0000931F  90                nop
00009320  90                nop
00009321  90                nop
00009322  90                nop
00009323  90                nop
00009324  90                nop
00009325  90                nop
00009326  90                nop
00009327  90                nop
00009328  90                nop
00009329  90                nop
0000932A  90                nop
0000932B  90                nop
0000932C  90                nop
0000932D  90                nop
0000932E  90                nop
0000932F  90                nop
00009330  90                nop
00009331  90                nop
00009332  90                nop
00009333  90                nop
00009334  90                nop
00009335  90                nop
00009336  90                nop
00009337  90                nop
00009338  90                nop
00009339  90                nop
0000933A  90                nop
0000933B  90                nop
0000933C  90                nop
0000933D  90                nop
0000933E  90                nop
0000933F  90                nop
00009340  90                nop
00009341  90                nop
00009342  90                nop
00009343  90                nop
00009344  90                nop
00009345  90                nop
00009346  90                nop
00009347  90                nop
00009348  90                nop
00009349  90                nop
0000934A  90                nop
0000934B  90                nop
0000934C  90                nop
0000934D  90                nop
0000934E  90                nop
0000934F  90                nop
00009350  90                nop
00009351  90                nop
00009352  90                nop
00009353  90                nop
00009354  90                nop
00009355  90                nop
00009356  90                nop
00009357  90                nop
00009358  90                nop
00009359  90                nop
0000935A  90                nop
0000935B  90                nop
0000935C  90                nop
0000935D  90                nop
0000935E  90                nop
0000935F  90                nop
00009360  90                nop
00009361  90                nop
00009362  90                nop
00009363  90                nop
00009364  90                nop
00009365  90                nop
00009366  90                nop
00009367  90                nop
00009368  90                nop
00009369  90                nop
0000936A  90                nop
0000936B  90                nop
0000936C  90                nop
0000936D  90                nop
0000936E  90                nop
0000936F  90                nop
00009370  90                nop
00009371  90                nop
00009372  90                nop
00009373  90                nop
00009374  90                nop
00009375  90                nop
00009376  90                nop
00009377  90                nop
00009378  90                nop
00009379  90                nop
0000937A  90                nop
0000937B  90                nop
0000937C  90                nop
0000937D  90                nop
0000937E  90                nop
0000937F  90                nop
00009380  90                nop
00009381  90                nop
00009382  90                nop
00009383  90                nop
00009384  90                nop
00009385  90                nop
00009386  90                nop
00009387  90                nop
00009388  90                nop
00009389  90                nop
0000938A  90                nop
0000938B  90                nop
0000938C  90                nop
0000938D  90                nop
0000938E  90                nop
0000938F  90                nop
00009390  90                nop
00009391  90                nop
00009392  90                nop
00009393  90                nop
00009394  90                nop
00009395  90                nop
00009396  90                nop
00009397  90                nop
00009398  90                nop
00009399  90                nop
0000939A  90                nop
0000939B  90                nop
0000939C  90                nop
0000939D  90                nop
0000939E  90                nop
0000939F  90                nop
000093A0  90                nop
000093A1  90                nop
000093A2  90                nop
000093A3  90                nop
000093A4  90                nop
000093A5  90                nop
000093A6  90                nop
000093A7  90                nop
000093A8  90                nop
000093A9  90                nop
000093AA  90                nop
000093AB  90                nop
000093AC  90                nop
000093AD  90                nop
000093AE  90                nop
000093AF  90                nop
000093B0  90                nop
000093B1  90                nop
000093B2  90                nop
000093B3  90                nop
000093B4  90                nop
000093B5  90                nop
000093B6  90                nop
000093B7  90                nop
000093B8  90                nop
000093B9  90                nop
000093BA  90                nop
000093BB  90                nop
000093BC  90                nop
000093BD  90                nop
000093BE  90                nop
000093BF  90                nop
000093C0  90                nop
000093C1  90                nop
000093C2  90                nop
000093C3  90                nop
000093C4  90                nop
000093C5  90                nop
000093C6  90                nop
000093C7  90                nop
000093C8  90                nop
000093C9  90                nop
000093CA  90                nop
000093CB  90                nop
000093CC  90                nop
000093CD  90                nop
000093CE  90                nop
000093CF  90                nop
000093D0  90                nop
000093D1  90                nop
000093D2  90                nop
000093D3  90                nop
000093D4  90                nop
000093D5  90                nop
000093D6  90                nop
000093D7  90                nop
000093D8  90                nop
000093D9  90                nop
000093DA  90                nop
000093DB  90                nop
000093DC  90                nop
000093DD  90                nop
000093DE  90                nop
000093DF  90                nop
000093E0  90                nop
000093E1  90                nop
000093E2  90                nop
000093E3  90                nop
000093E4  90                nop
000093E5  90                nop
000093E6  90                nop
000093E7  90                nop
000093E8  90                nop
000093E9  90                nop
000093EA  90                nop
000093EB  90                nop
000093EC  90                nop
000093ED  90                nop
000093EE  90                nop
000093EF  90                nop
000093F0  90                nop
000093F1  90                nop
000093F2  90                nop
000093F3  90                nop
000093F4  90                nop
000093F5  90                nop
000093F6  90                nop
000093F7  90                nop
000093F8  90                nop
000093F9  90                nop
000093FA  90                nop
000093FB  90                nop
000093FC  90                nop
000093FD  90                nop
000093FE  90                nop
000093FF  90                nop
00009400  90                nop
00009401  90                nop
00009402  90                nop
00009403  90                nop
00009404  90                nop
00009405  90                nop
00009406  90                nop
00009407  90                nop
00009408  90                nop
00009409  90                nop
0000940A  90                nop
0000940B  90                nop
0000940C  90                nop
0000940D  90                nop
0000940E  90                nop
0000940F  90                nop
00009410  90                nop
00009411  90                nop
00009412  90                nop
00009413  90                nop
00009414  90                nop
00009415  90                nop
00009416  90                nop
00009417  90                nop
00009418  90                nop
00009419  90                nop
0000941A  90                nop
0000941B  90                nop
0000941C  90                nop
0000941D  90                nop
0000941E  90                nop
0000941F  90                nop
00009420  90                nop
00009421  90                nop
00009422  90                nop
00009423  90                nop
00009424  90                nop
00009425  90                nop
00009426  90                nop
00009427  90                nop
00009428  90                nop
00009429  90                nop
0000942A  90                nop
0000942B  90                nop
0000942C  90                nop
0000942D  90                nop
0000942E  90                nop
0000942F  90                nop
00009430  90                nop
00009431  90                nop
00009432  90                nop
00009433  90                nop
00009434  90                nop
00009435  90                nop
00009436  90                nop
00009437  90                nop
00009438  90                nop
00009439  90                nop
0000943A  90                nop
0000943B  90                nop
0000943C  90                nop
0000943D  90                nop
0000943E  90                nop
0000943F  90                nop
00009440  90                nop
00009441  90                nop
00009442  90                nop
00009443  90                nop
00009444  90                nop
00009445  90                nop
00009446  90                nop
00009447  90                nop
00009448  90                nop
00009449  90                nop
0000944A  90                nop
0000944B  90                nop
0000944C  90                nop
0000944D  90                nop
0000944E  90                nop
0000944F  90                nop
00009450  90                nop
00009451  90                nop
00009452  90                nop
00009453  90                nop
00009454  90                nop
00009455  90                nop
00009456  90                nop
00009457  90                nop
00009458  90                nop
00009459  90                nop
0000945A  90                nop
0000945B  90                nop
0000945C  90                nop
0000945D  90                nop
0000945E  90                nop
0000945F  90                nop
00009460  90                nop
00009461  90                nop
00009462  90                nop
00009463  90                nop
00009464  90                nop
00009465  90                nop
00009466  90                nop
00009467  90                nop
00009468  90                nop
00009469  90                nop
0000946A  90                nop
0000946B  90                nop
0000946C  90                nop
0000946D  90                nop
0000946E  90                nop
0000946F  90                nop
00009470  90                nop
00009471  90                nop
00009472  90                nop
00009473  90                nop
00009474  90                nop
00009475  90                nop
00009476  90                nop
00009477  90                nop
00009478  90                nop
00009479  90                nop
0000947A  90                nop
0000947B  90                nop
0000947C  90                nop
0000947D  90                nop
0000947E  90                nop
0000947F  90                nop
00009480  90                nop
00009481  90                nop
00009482  90                nop
00009483  90                nop
00009484  90                nop
00009485  90                nop
00009486  90                nop
00009487  90                nop
00009488  90                nop
00009489  90                nop
0000948A  90                nop
0000948B  90                nop
0000948C  90                nop
0000948D  90                nop
0000948E  90                nop
0000948F  90                nop
00009490  90                nop
00009491  90                nop
00009492  90                nop
00009493  90                nop
00009494  90                nop
00009495  90                nop
00009496  90                nop
00009497  90                nop
00009498  90                nop
00009499  90                nop
0000949A  90                nop
0000949B  90                nop
0000949C  90                nop
0000949D  90                nop
0000949E  90                nop
0000949F  90                nop
000094A0  90                nop
000094A1  90                nop
000094A2  90                nop
000094A3  90                nop
000094A4  90                nop
000094A5  90                nop
000094A6  90                nop
000094A7  90                nop
000094A8  90                nop
000094A9  90                nop
000094AA  90                nop
000094AB  90                nop
000094AC  90                nop
000094AD  90                nop
000094AE  90                nop
000094AF  90                nop
000094B0  90                nop
000094B1  90                nop
000094B2  90                nop
000094B3  90                nop
000094B4  90                nop
000094B5  90                nop
000094B6  90                nop
000094B7  90                nop
000094B8  90                nop
000094B9  90                nop
000094BA  90                nop
000094BB  90                nop
000094BC  90                nop
000094BD  90                nop
000094BE  90                nop
000094BF  90                nop
000094C0  90                nop
000094C1  90                nop
000094C2  90                nop
000094C3  90                nop
000094C4  90                nop
000094C5  90                nop
000094C6  90                nop
000094C7  90                nop
000094C8  90                nop
000094C9  90                nop
000094CA  90                nop
000094CB  90                nop
000094CC  90                nop
000094CD  90                nop
000094CE  90                nop
000094CF  90                nop
000094D0  90                nop
000094D1  90                nop
000094D2  90                nop
000094D3  90                nop
000094D4  90                nop
000094D5  90                nop
000094D6  90                nop
000094D7  90                nop
000094D8  90                nop
000094D9  90                nop
000094DA  90                nop
000094DB  90                nop
000094DC  90                nop
000094DD  90                nop
000094DE  90                nop
000094DF  90                nop
000094E0  90                nop
000094E1  90                nop
000094E2  90                nop
000094E3  90                nop
000094E4  90                nop
000094E5  90                nop
000094E6  90                nop
000094E7  90                nop
000094E8  90                nop
000094E9  90                nop
000094EA  90                nop
000094EB  90                nop
000094EC  90                nop
000094ED  90                nop
000094EE  90                nop
000094EF  90                nop
000094F0  90                nop
000094F1  90                nop
000094F2  90                nop
000094F3  90                nop
000094F4  90                nop
000094F5  90                nop
000094F6  90                nop
000094F7  90                nop
000094F8  90                nop
000094F9  90                nop
000094FA  90                nop
000094FB  90                nop
000094FC  90                nop
000094FD  90                nop
000094FE  90                nop
000094FF  90                nop
00009500  90                nop
00009501  90                nop
00009502  90                nop
00009503  90                nop
00009504  90                nop
00009505  90                nop
00009506  90                nop
00009507  90                nop
00009508  90                nop
00009509  90                nop
0000950A  90                nop
0000950B  90                nop
0000950C  90                nop
0000950D  90                nop
0000950E  90                nop
0000950F  90                nop
00009510  90                nop
00009511  90                nop
00009512  90                nop
00009513  90                nop
00009514  90                nop
00009515  90                nop
00009516  90                nop
00009517  90                nop
00009518  90                nop
00009519  90                nop
0000951A  90                nop
0000951B  90                nop
0000951C  90                nop
0000951D  90                nop
0000951E  90                nop
0000951F  90                nop
00009520  90                nop
00009521  90                nop
00009522  90                nop
00009523  90                nop
00009524  90                nop
00009525  90                nop
00009526  90                nop
00009527  90                nop
00009528  90                nop
00009529  90                nop
0000952A  90                nop
0000952B  90                nop
0000952C  90                nop
0000952D  90                nop
0000952E  90                nop
0000952F  90                nop
00009530  90                nop
00009531  90                nop
00009532  90                nop
00009533  90                nop
00009534  90                nop
00009535  90                nop
00009536  90                nop
00009537  90                nop
00009538  90                nop
00009539  90                nop
0000953A  90                nop
0000953B  90                nop
0000953C  90                nop
0000953D  90                nop
0000953E  90                nop
0000953F  90                nop
00009540  90                nop
00009541  90                nop
00009542  90                nop
00009543  90                nop
00009544  90                nop
00009545  90                nop
00009546  90                nop
00009547  90                nop
00009548  90                nop
00009549  90                nop
0000954A  90                nop
0000954B  90                nop
0000954C  90                nop
0000954D  90                nop
0000954E  90                nop
0000954F  90                nop
00009550  90                nop
00009551  90                nop
00009552  90                nop
00009553  90                nop
00009554  90                nop
00009555  90                nop
00009556  90                nop
00009557  90                nop
00009558  90                nop
00009559  90                nop
0000955A  90                nop
0000955B  90                nop
0000955C  90                nop
0000955D  90                nop
0000955E  90                nop
0000955F  90                nop
00009560  90                nop
00009561  90                nop
00009562  90                nop
00009563  90                nop
00009564  90                nop
00009565  90                nop
00009566  90                nop
00009567  90                nop
00009568  90                nop
00009569  90                nop
0000956A  90                nop
0000956B  90                nop
0000956C  90                nop
0000956D  90                nop
0000956E  90                nop
0000956F  90                nop
00009570  90                nop
00009571  90                nop
00009572  90                nop
00009573  90                nop
00009574  90                nop
00009575  90                nop
00009576  90                nop
00009577  90                nop
00009578  90                nop
00009579  90                nop
0000957A  90                nop
0000957B  90                nop
0000957C  90                nop
0000957D  90                nop
0000957E  90                nop
0000957F  90                nop
00009580  90                nop
00009581  90                nop
00009582  90                nop
00009583  90                nop
00009584  90                nop
00009585  90                nop
00009586  90                nop
00009587  90                nop
00009588  90                nop
00009589  90                nop
0000958A  90                nop
0000958B  90                nop
0000958C  90                nop
0000958D  90                nop
0000958E  90                nop
0000958F  90                nop
00009590  90                nop
00009591  90                nop
00009592  90                nop
00009593  90                nop
00009594  90                nop
00009595  90                nop
00009596  90                nop
00009597  90                nop
00009598  90                nop
00009599  90                nop
0000959A  90                nop
0000959B  90                nop
0000959C  90                nop
0000959D  90                nop
0000959E  90                nop
0000959F  90                nop
000095A0  90                nop
000095A1  90                nop
000095A2  90                nop
000095A3  90                nop
000095A4  90                nop
000095A5  90                nop
000095A6  90                nop
000095A7  90                nop
000095A8  90                nop
000095A9  90                nop
000095AA  90                nop
000095AB  90                nop
000095AC  90                nop
000095AD  90                nop
000095AE  90                nop
000095AF  90                nop
000095B0  90                nop
000095B1  90                nop
000095B2  90                nop
000095B3  90                nop
000095B4  90                nop
000095B5  90                nop
000095B6  90                nop
000095B7  90                nop
000095B8  90                nop
000095B9  90                nop
000095BA  90                nop
000095BB  90                nop
000095BC  90                nop
000095BD  90                nop
000095BE  90                nop
000095BF  90                nop
000095C0  90                nop
000095C1  90                nop
000095C2  90                nop
000095C3  90                nop
000095C4  90                nop
000095C5  90                nop
000095C6  90                nop
000095C7  90                nop
000095C8  90                nop
000095C9  90                nop
000095CA  90                nop
000095CB  90                nop
000095CC  90                nop
000095CD  90                nop
000095CE  90                nop
000095CF  90                nop
000095D0  90                nop
000095D1  90                nop
000095D2  90                nop
000095D3  90                nop
000095D4  90                nop
000095D5  90                nop
000095D6  90                nop
000095D7  90                nop
000095D8  90                nop
000095D9  90                nop
000095DA  90                nop
000095DB  90                nop
000095DC  90                nop
000095DD  90                nop
000095DE  90                nop
000095DF  90                nop
000095E0  90                nop
000095E1  90                nop
000095E2  90                nop
000095E3  90                nop
000095E4  90                nop
000095E5  90                nop
000095E6  90                nop
000095E7  90                nop
000095E8  90                nop
000095E9  90                nop
000095EA  90                nop
000095EB  90                nop
000095EC  90                nop
000095ED  90                nop
000095EE  90                nop
000095EF  90                nop
000095F0  90                nop
000095F1  90                nop
000095F2  90                nop
000095F3  90                nop
000095F4  90                nop
000095F5  90                nop
000095F6  90                nop
000095F7  90                nop
000095F8  90                nop
000095F9  90                nop
000095FA  90                nop
000095FB  90                nop
000095FC  90                nop
000095FD  90                nop
000095FE  90                nop
000095FF  90                nop
00009600  90                nop
00009601  90                nop
00009602  90                nop
00009603  90                nop
00009604  90                nop
00009605  90                nop
00009606  90                nop
00009607  90                nop
00009608  90                nop
00009609  90                nop
0000960A  90                nop
0000960B  90                nop
0000960C  90                nop
0000960D  90                nop
0000960E  90                nop
0000960F  90                nop
00009610  90                nop
00009611  90                nop
00009612  90                nop
00009613  90                nop
00009614  90                nop
00009615  90                nop
00009616  90                nop
00009617  90                nop
00009618  90                nop
00009619  90                nop
0000961A  90                nop
0000961B  90                nop
0000961C  90                nop
0000961D  90                nop
0000961E  90                nop
0000961F  90                nop
00009620  90                nop
00009621  90                nop
00009622  90                nop
00009623  90                nop
00009624  90                nop
00009625  90                nop
00009626  90                nop
00009627  90                nop
00009628  90                nop
00009629  90                nop
0000962A  90                nop
0000962B  90                nop
0000962C  90                nop
0000962D  90                nop
0000962E  90                nop
0000962F  90                nop
00009630  90                nop
00009631  90                nop
00009632  90                nop
00009633  90                nop
00009634  90                nop
00009635  90                nop
00009636  90                nop
00009637  90                nop
00009638  90                nop
00009639  90                nop
0000963A  90                nop
0000963B  90                nop
0000963C  90                nop
0000963D  90                nop
0000963E  90                nop
0000963F  90                nop
00009640  90                nop
00009641  90                nop
00009642  90                nop
00009643  90                nop
00009644  90                nop
00009645  90                nop
00009646  90                nop
00009647  90                nop
00009648  90                nop
00009649  90                nop
0000964A  90                nop
0000964B  90                nop
0000964C  90                nop
0000964D  90                nop
0000964E  90                nop
0000964F  90                nop
00009650  90                nop
00009651  90                nop
00009652  90                nop
00009653  90                nop
00009654  90                nop
00009655  90                nop
00009656  90                nop
00009657  90                nop
00009658  90                nop
00009659  90                nop
0000965A  90                nop
0000965B  90                nop
0000965C  90                nop
0000965D  90                nop
0000965E  90                nop
0000965F  90                nop
00009660  90                nop
00009661  90                nop
00009662  90                nop
00009663  90                nop
00009664  90                nop
00009665  90                nop
00009666  90                nop
00009667  90                nop
00009668  90                nop
00009669  90                nop
0000966A  90                nop
0000966B  90                nop
0000966C  90                nop
0000966D  90                nop
0000966E  90                nop
0000966F  90                nop
00009670  90                nop
00009671  90                nop
00009672  90                nop
00009673  90                nop
00009674  90                nop
00009675  90                nop
00009676  90                nop
00009677  90                nop
00009678  90                nop
00009679  90                nop
0000967A  90                nop
0000967B  90                nop
0000967C  90                nop
0000967D  90                nop
0000967E  90                nop
0000967F  90                nop
00009680  90                nop
00009681  90                nop
00009682  90                nop
00009683  90                nop
00009684  90                nop
00009685  90                nop
00009686  90                nop
00009687  90                nop
00009688  90                nop
00009689  90                nop
0000968A  90                nop
0000968B  90                nop
0000968C  90                nop
0000968D  90                nop
0000968E  90                nop
0000968F  90                nop
00009690  90                nop
00009691  90                nop
00009692  90                nop
00009693  90                nop
00009694  90                nop
00009695  90                nop
00009696  90                nop
00009697  90                nop
00009698  90                nop
00009699  90                nop
0000969A  90                nop
0000969B  90                nop
0000969C  90                nop
0000969D  90                nop
0000969E  90                nop
0000969F  90                nop
000096A0  90                nop
000096A1  90                nop
000096A2  90                nop
000096A3  90                nop
000096A4  90                nop
000096A5  90                nop
000096A6  90                nop
000096A7  90                nop
000096A8  90                nop
000096A9  90                nop
000096AA  90                nop
000096AB  90                nop
000096AC  90                nop
000096AD  90                nop
000096AE  90                nop
000096AF  90                nop
000096B0  90                nop
000096B1  90                nop
000096B2  90                nop
000096B3  90                nop
000096B4  90                nop
000096B5  90                nop
000096B6  90                nop
000096B7  90                nop
000096B8  90                nop
000096B9  90                nop
000096BA  90                nop
000096BB  90                nop
000096BC  90                nop
000096BD  90                nop
000096BE  90                nop
000096BF  90                nop
000096C0  90                nop
000096C1  90                nop
000096C2  90                nop
000096C3  90                nop
000096C4  90                nop
000096C5  90                nop
000096C6  90                nop
000096C7  90                nop
000096C8  90                nop
000096C9  90                nop
000096CA  90                nop
000096CB  90                nop
000096CC  90                nop
000096CD  90                nop
000096CE  90                nop
000096CF  90                nop
000096D0  90                nop
000096D1  90                nop
000096D2  90                nop
000096D3  90                nop
000096D4  90                nop
000096D5  90                nop
000096D6  90                nop
000096D7  90                nop
000096D8  90                nop
000096D9  90                nop
000096DA  90                nop
000096DB  90                nop
000096DC  90                nop
000096DD  90                nop
000096DE  90                nop
000096DF  90                nop
000096E0  90                nop
000096E1  90                nop
000096E2  90                nop
000096E3  90                nop
000096E4  90                nop
000096E5  90                nop
000096E6  90                nop
000096E7  90                nop
000096E8  90                nop
000096E9  90                nop
000096EA  90                nop
000096EB  90                nop
000096EC  90                nop
000096ED  90                nop
000096EE  90                nop
000096EF  90                nop
000096F0  90                nop
000096F1  90                nop
000096F2  90                nop
000096F3  90                nop
000096F4  90                nop
000096F5  90                nop
000096F6  90                nop
000096F7  90                nop
000096F8  90                nop
000096F9  90                nop
000096FA  90                nop
000096FB  90                nop
000096FC  90                nop
000096FD  90                nop
000096FE  90                nop
000096FF  90                nop
00009700  90                nop
00009701  90                nop
00009702  90                nop
00009703  90                nop
00009704  90                nop
00009705  90                nop
00009706  90                nop
00009707  90                nop
00009708  90                nop
00009709  90                nop
0000970A  90                nop
0000970B  90                nop
0000970C  90                nop
0000970D  90                nop
0000970E  90                nop
0000970F  90                nop
00009710  90                nop
00009711  90                nop
00009712  90                nop
00009713  90                nop
00009714  90                nop
00009715  90                nop
00009716  90                nop
00009717  90                nop
00009718  90                nop
00009719  90                nop
0000971A  90                nop
0000971B  90                nop
0000971C  90                nop
0000971D  90                nop
0000971E  90                nop
0000971F  90                nop
00009720  90                nop
00009721  90                nop
00009722  90                nop
00009723  90                nop
00009724  90                nop
00009725  90                nop
00009726  90                nop
00009727  90                nop
00009728  90                nop
00009729  90                nop
0000972A  90                nop
0000972B  90                nop
0000972C  90                nop
0000972D  90                nop
0000972E  90                nop
0000972F  90                nop
00009730  90                nop
00009731  90                nop
00009732  90                nop
00009733  90                nop
00009734  90                nop
00009735  90                nop
00009736  90                nop
00009737  90                nop
00009738  90                nop
00009739  90                nop
0000973A  90                nop
0000973B  90                nop
0000973C  90                nop
0000973D  90                nop
0000973E  90                nop
0000973F  90                nop
00009740  90                nop
00009741  90                nop
00009742  90                nop
00009743  90                nop
00009744  90                nop
00009745  90                nop
00009746  90                nop
00009747  90                nop
00009748  90                nop
00009749  90                nop
0000974A  90                nop
0000974B  90                nop
0000974C  90                nop
0000974D  90                nop
0000974E  90                nop
0000974F  90                nop
00009750  90                nop
00009751  90                nop
00009752  90                nop
00009753  90                nop
00009754  90                nop
00009755  90                nop
00009756  90                nop
00009757  90                nop
00009758  90                nop
00009759  90                nop
0000975A  90                nop
0000975B  90                nop
0000975C  90                nop
0000975D  90                nop
0000975E  90                nop
0000975F  90                nop
00009760  90                nop
00009761  90                nop
00009762  90                nop
00009763  90                nop
00009764  90                nop
00009765  90                nop
00009766  90                nop
00009767  90                nop
00009768  90                nop
00009769  90                nop
0000976A  90                nop
0000976B  90                nop
0000976C  90                nop
0000976D  90                nop
0000976E  90                nop
0000976F  90                nop
00009770  90                nop
00009771  90                nop
00009772  90                nop
00009773  90                nop
00009774  90                nop
00009775  90                nop
00009776  90                nop
00009777  90                nop
00009778  90                nop
00009779  90                nop
0000977A  90                nop
0000977B  90                nop
0000977C  90                nop
0000977D  90                nop
0000977E  90                nop
0000977F  90                nop
00009780  90                nop
00009781  90                nop
00009782  90                nop
00009783  90                nop
00009784  90                nop
00009785  90                nop
00009786  90                nop
00009787  90                nop
00009788  90                nop
00009789  90                nop
0000978A  90                nop
0000978B  90                nop
0000978C  90                nop
0000978D  90                nop
0000978E  90                nop
0000978F  90                nop
00009790  90                nop
00009791  90                nop
00009792  90                nop
00009793  90                nop
00009794  90                nop
00009795  90                nop
00009796  90                nop
00009797  90                nop
00009798  90                nop
00009799  90                nop
0000979A  90                nop
0000979B  90                nop
0000979C  90                nop
0000979D  90                nop
0000979E  90                nop
0000979F  90                nop
000097A0  90                nop
000097A1  90                nop
000097A2  90                nop
000097A3  90                nop
000097A4  90                nop
000097A5  90                nop
000097A6  90                nop
000097A7  90                nop
000097A8  90                nop
000097A9  90                nop
000097AA  90                nop
000097AB  90                nop
000097AC  90                nop
000097AD  90                nop
000097AE  90                nop
000097AF  90                nop
000097B0  90                nop
000097B1  90                nop
000097B2  90                nop
000097B3  90                nop
000097B4  90                nop
000097B5  90                nop
000097B6  90                nop
000097B7  90                nop
000097B8  90                nop
000097B9  90                nop
000097BA  90                nop
000097BB  90                nop
000097BC  90                nop
000097BD  90                nop
000097BE  90                nop
000097BF  90                nop
000097C0  90                nop
000097C1  90                nop
000097C2  90                nop
000097C3  90                nop
000097C4  90                nop
000097C5  90                nop
000097C6  90                nop
000097C7  90                nop
000097C8  90                nop
000097C9  90                nop
000097CA  90                nop
000097CB  90                nop
000097CC  90                nop
000097CD  90                nop
000097CE  90                nop
000097CF  90                nop
000097D0  90                nop
000097D1  90                nop
000097D2  90                nop
000097D3  90                nop
000097D4  90                nop
000097D5  90                nop
000097D6  90                nop
000097D7  90                nop
000097D8  90                nop
000097D9  90                nop
000097DA  90                nop
000097DB  90                nop
000097DC  90                nop
000097DD  90                nop
000097DE  90                nop
000097DF  90                nop
000097E0  90                nop
000097E1  90                nop
000097E2  90                nop
000097E3  90                nop
000097E4  90                nop
000097E5  90                nop
000097E6  90                nop
000097E7  90                nop
000097E8  90                nop
000097E9  90                nop
000097EA  90                nop
000097EB  90                nop
000097EC  90                nop
000097ED  90                nop
000097EE  90                nop
000097EF  90                nop
000097F0  90                nop
000097F1  90                nop
000097F2  90                nop
000097F3  90                nop
000097F4  90                nop
000097F5  90                nop
000097F6  90                nop
000097F7  90                nop
000097F8  90                nop
000097F9  90                nop
000097FA  90                nop
000097FB  90                nop
000097FC  90                nop
000097FD  90                nop
000097FE  90                nop
000097FF  90                nop
00009800  90                nop
00009801  90                nop
00009802  90                nop
00009803  90                nop
00009804  90                nop
00009805  90                nop
00009806  90                nop
00009807  90                nop
00009808  90                nop
00009809  90                nop
0000980A  90                nop
0000980B  90                nop
0000980C  90                nop
0000980D  90                nop
0000980E  90                nop
0000980F  90                nop
00009810  90                nop
00009811  90                nop
00009812  90                nop
00009813  90                nop
00009814  90                nop
00009815  90                nop
00009816  90                nop
00009817  90                nop
00009818  90                nop
00009819  90                nop
0000981A  90                nop
0000981B  90                nop
0000981C  90                nop
0000981D  90                nop
0000981E  90                nop
0000981F  90                nop
00009820  90                nop
00009821  90                nop
00009822  90                nop
00009823  90                nop
00009824  90                nop
00009825  90                nop
00009826  90                nop
00009827  90                nop
00009828  90                nop
00009829  90                nop
0000982A  90                nop
0000982B  90                nop
0000982C  90                nop
0000982D  90                nop
0000982E  90                nop
0000982F  90                nop
00009830  90                nop
00009831  90                nop
00009832  90                nop
00009833  90                nop
00009834  90                nop
00009835  90                nop
00009836  90                nop
00009837  90                nop
00009838  90                nop
00009839  90                nop
0000983A  90                nop
0000983B  90                nop
0000983C  90                nop
0000983D  90                nop
0000983E  90                nop
0000983F  90                nop
00009840  90                nop
00009841  90                nop
00009842  90                nop
00009843  90                nop
00009844  90                nop
00009845  90                nop
00009846  90                nop
00009847  90                nop
00009848  90                nop
00009849  90                nop
0000984A  90                nop
0000984B  90                nop
0000984C  90                nop
0000984D  90                nop
0000984E  90                nop
0000984F  90                nop
00009850  90                nop
00009851  90                nop
00009852  90                nop
00009853  90                nop
00009854  90                nop
00009855  90                nop
00009856  90                nop
00009857  90                nop
00009858  90                nop
00009859  90                nop
0000985A  90                nop
0000985B  90                nop
0000985C  90                nop
0000985D  90                nop
0000985E  90                nop
0000985F  90                nop
00009860  90                nop
00009861  90                nop
00009862  90                nop
00009863  90                nop
00009864  90                nop
00009865  90                nop
00009866  90                nop
00009867  90                nop
00009868  90                nop
00009869  90                nop
0000986A  90                nop
0000986B  90                nop
0000986C  90                nop
0000986D  90                nop
0000986E  90                nop
0000986F  90                nop
00009870  90                nop
00009871  90                nop
00009872  90                nop
00009873  90                nop
00009874  90                nop
00009875  90                nop
00009876  90                nop
00009877  90                nop
00009878  90                nop
00009879  90                nop
0000987A  90                nop
0000987B  90                nop
0000987C  90                nop
0000987D  90                nop
0000987E  90                nop
0000987F  90                nop
00009880  90                nop
00009881  90                nop
00009882  90                nop
00009883  90                nop
00009884  90                nop
00009885  90                nop
00009886  90                nop
00009887  90                nop
00009888  90                nop
00009889  90                nop
0000988A  90                nop
0000988B  90                nop
0000988C  90                nop
0000988D  90                nop
0000988E  90                nop
0000988F  90                nop
00009890  90                nop
00009891  90                nop
00009892  90                nop
00009893  90                nop
00009894  90                nop
00009895  90                nop
00009896  90                nop
00009897  90                nop
00009898  90                nop
00009899  90                nop
0000989A  90                nop
0000989B  90                nop
0000989C  90                nop
0000989D  90                nop
0000989E  90                nop
0000989F  90                nop
000098A0  90                nop
000098A1  90                nop
000098A2  90                nop
000098A3  90                nop
000098A4  90                nop
000098A5  90                nop
000098A6  90                nop
000098A7  90                nop
000098A8  90                nop
000098A9  90                nop
000098AA  90                nop
000098AB  90                nop
000098AC  90                nop
000098AD  90                nop
000098AE  90                nop
000098AF  90                nop
000098B0  90                nop
000098B1  90                nop
000098B2  90                nop
000098B3  90                nop
000098B4  90                nop
000098B5  90                nop
000098B6  90                nop
000098B7  90                nop
000098B8  90                nop
000098B9  90                nop
000098BA  90                nop
000098BB  90                nop
000098BC  90                nop
000098BD  90                nop
000098BE  90                nop
000098BF  90                nop
000098C0  90                nop
000098C1  90                nop
000098C2  90                nop
000098C3  90                nop
000098C4  90                nop
000098C5  90                nop
000098C6  90                nop
000098C7  90                nop
000098C8  90                nop
000098C9  90                nop
000098CA  90                nop
000098CB  90                nop
000098CC  90                nop
000098CD  90                nop
000098CE  90                nop
000098CF  90                nop
000098D0  90                nop
000098D1  90                nop
000098D2  90                nop
000098D3  90                nop
000098D4  90                nop
000098D5  90                nop
000098D6  90                nop
000098D7  90                nop
000098D8  90                nop
000098D9  90                nop
000098DA  90                nop
000098DB  90                nop
000098DC  90                nop
000098DD  90                nop
000098DE  90                nop
000098DF  90                nop
000098E0  90                nop
000098E1  90                nop
000098E2  90                nop
000098E3  90                nop
000098E4  90                nop
000098E5  90                nop
000098E6  90                nop
000098E7  90                nop
000098E8  90                nop
000098E9  90                nop
000098EA  90                nop
000098EB  90                nop
000098EC  90                nop
000098ED  90                nop
000098EE  90                nop
000098EF  90                nop
000098F0  90                nop
000098F1  90                nop
000098F2  90                nop
000098F3  90                nop
000098F4  90                nop
000098F5  90                nop
000098F6  90                nop
000098F7  90                nop
000098F8  90                nop
000098F9  90                nop
000098FA  90                nop
000098FB  90                nop
000098FC  90                nop
000098FD  90                nop
000098FE  90                nop
000098FF  90                nop
00009900  90                nop
00009901  90                nop
00009902  90                nop
00009903  90                nop
00009904  90                nop
00009905  90                nop
00009906  90                nop
00009907  90                nop
00009908  90                nop
00009909  90                nop
0000990A  90                nop
0000990B  90                nop
0000990C  90                nop
0000990D  90                nop
0000990E  90                nop
0000990F  90                nop
00009910  90                nop
00009911  90                nop
00009912  90                nop
00009913  90                nop
00009914  90                nop
00009915  90                nop
00009916  90                nop
00009917  90                nop
00009918  90                nop
00009919  90                nop
0000991A  90                nop
0000991B  90                nop
0000991C  90                nop
0000991D  90                nop
0000991E  90                nop
0000991F  90                nop
00009920  90                nop
00009921  90                nop
00009922  90                nop
00009923  90                nop
00009924  90                nop
00009925  90                nop
00009926  90                nop
00009927  90                nop
00009928  90                nop
00009929  90                nop
0000992A  90                nop
0000992B  90                nop
0000992C  90                nop
0000992D  90                nop
0000992E  90                nop
0000992F  90                nop
00009930  90                nop
00009931  90                nop
00009932  90                nop
00009933  90                nop
00009934  90                nop
00009935  90                nop
00009936  90                nop
00009937  90                nop
00009938  90                nop
00009939  90                nop
0000993A  90                nop
0000993B  90                nop
0000993C  90                nop
0000993D  90                nop
0000993E  90                nop
0000993F  90                nop
00009940  90                nop
00009941  90                nop
00009942  90                nop
00009943  90                nop
00009944  90                nop
00009945  90                nop
00009946  90                nop
00009947  90                nop
00009948  90                nop
00009949  90                nop
0000994A  90                nop
0000994B  90                nop
0000994C  90                nop
0000994D  90                nop
0000994E  90                nop
0000994F  90                nop
00009950  90                nop
00009951  90                nop
00009952  90                nop
00009953  90                nop
00009954  90                nop
00009955  90                nop
00009956  90                nop
00009957  90                nop
00009958  90                nop
00009959  90                nop
0000995A  90                nop
0000995B  90                nop
0000995C  90                nop
0000995D  90                nop
0000995E  90                nop
0000995F  90                nop
00009960  90                nop
00009961  90                nop
00009962  90                nop
00009963  90                nop
00009964  90                nop
00009965  90                nop
00009966  90                nop
00009967  90                nop
00009968  90                nop
00009969  90                nop
0000996A  90                nop
0000996B  90                nop
0000996C  90                nop
0000996D  90                nop
0000996E  90                nop
0000996F  90                nop
00009970  90                nop
00009971  90                nop
00009972  90                nop
00009973  90                nop
00009974  90                nop
00009975  90                nop
00009976  90                nop
00009977  90                nop
00009978  90                nop
00009979  90                nop
0000997A  90                nop
0000997B  90                nop
0000997C  90                nop
0000997D  90                nop
0000997E  90                nop
0000997F  90                nop
00009980  90                nop
00009981  90                nop
00009982  90                nop
00009983  90                nop
00009984  90                nop
00009985  90                nop
00009986  90                nop
00009987  90                nop
00009988  90                nop
00009989  90                nop
0000998A  90                nop
0000998B  90                nop
0000998C  90                nop
0000998D  90                nop
0000998E  90                nop
0000998F  90                nop
00009990  90                nop
00009991  90                nop
00009992  90                nop
00009993  90                nop
00009994  90                nop
00009995  90                nop
00009996  90                nop
00009997  90                nop
00009998  90                nop
00009999  90                nop
0000999A  90                nop
0000999B  90                nop
0000999C  90                nop
0000999D  90                nop
0000999E  90                nop
0000999F  90                nop
000099A0  90                nop
000099A1  90                nop
000099A2  90                nop
000099A3  90                nop
000099A4  90                nop
000099A5  90                nop
000099A6  90                nop
000099A7  90                nop
000099A8  90                nop
000099A9  90                nop
000099AA  90                nop
000099AB  90                nop
000099AC  90                nop
000099AD  90                nop
000099AE  90                nop
000099AF  90                nop
000099B0  90                nop
000099B1  90                nop
000099B2  90                nop
000099B3  90                nop
000099B4  90                nop
000099B5  90                nop
000099B6  90                nop
000099B7  90                nop
000099B8  90                nop
000099B9  90                nop
000099BA  90                nop
000099BB  90                nop
000099BC  90                nop
000099BD  90                nop
000099BE  90                nop
000099BF  90                nop
000099C0  90                nop
000099C1  90                nop
000099C2  90                nop
000099C3  90                nop
000099C4  90                nop
000099C5  90                nop
000099C6  90                nop
000099C7  90                nop
000099C8  90                nop
000099C9  90                nop
000099CA  90                nop
000099CB  90                nop
000099CC  90                nop
000099CD  90                nop
000099CE  90                nop
000099CF  90                nop
000099D0  90                nop
000099D1  90                nop
000099D2  90                nop
000099D3  90                nop
000099D4  90                nop
000099D5  90                nop
000099D6  90                nop
000099D7  90                nop
000099D8  90                nop
000099D9  90                nop
000099DA  90                nop
000099DB  90                nop
000099DC  90                nop
000099DD  90                nop
000099DE  90                nop
000099DF  90                nop
000099E0  90                nop
000099E1  90                nop
000099E2  90                nop
000099E3  90                nop
000099E4  90                nop
000099E5  90                nop
000099E6  90                nop
000099E7  90                nop
000099E8  90                nop
000099E9  90                nop
000099EA  90                nop
000099EB  90                nop
000099EC  90                nop
000099ED  90                nop
000099EE  90                nop
000099EF  90                nop
000099F0  90                nop
000099F1  90                nop
000099F2  90                nop
000099F3  90                nop
000099F4  90                nop
000099F5  90                nop
000099F6  90                nop
000099F7  90                nop
000099F8  90                nop
000099F9  90                nop
000099FA  90                nop
000099FB  90                nop
000099FC  90                nop
000099FD  90                nop
000099FE  90                nop
000099FF  90                nop
00009A00  90                nop
00009A01  90                nop
00009A02  90                nop
00009A03  90                nop
00009A04  90                nop
00009A05  90                nop
00009A06  90                nop
00009A07  90                nop
00009A08  90                nop
00009A09  90                nop
00009A0A  90                nop
00009A0B  90                nop
00009A0C  90                nop
00009A0D  90                nop
00009A0E  90                nop
00009A0F  90                nop
00009A10  90                nop
00009A11  90                nop
00009A12  90                nop
00009A13  90                nop
00009A14  90                nop
00009A15  90                nop
00009A16  90                nop
00009A17  90                nop
00009A18  90                nop
00009A19  90                nop
00009A1A  90                nop
00009A1B  90                nop
00009A1C  90                nop
00009A1D  90                nop
00009A1E  90                nop
00009A1F  90                nop
00009A20  90                nop
00009A21  90                nop
00009A22  90                nop
00009A23  90                nop
00009A24  90                nop
00009A25  90                nop
00009A26  90                nop
00009A27  90                nop
00009A28  90                nop
00009A29  90                nop
00009A2A  90                nop
00009A2B  90                nop
00009A2C  90                nop
00009A2D  90                nop
00009A2E  90                nop
00009A2F  90                nop
00009A30  90                nop
00009A31  90                nop
00009A32  90                nop
00009A33  90                nop
00009A34  90                nop
00009A35  90                nop
00009A36  90                nop
00009A37  90                nop
00009A38  90                nop
00009A39  90                nop
00009A3A  90                nop
00009A3B  90                nop
00009A3C  90                nop
00009A3D  90                nop
00009A3E  90                nop
00009A3F  90                nop
00009A40  90                nop
00009A41  90                nop
00009A42  90                nop
00009A43  90                nop
00009A44  90                nop
00009A45  90                nop
00009A46  90                nop
00009A47  90                nop
00009A48  90                nop
00009A49  90                nop
00009A4A  90                nop
00009A4B  90                nop
00009A4C  90                nop
00009A4D  90                nop
00009A4E  90                nop
00009A4F  90                nop
00009A50  90                nop
00009A51  90                nop
00009A52  90                nop
00009A53  90                nop
00009A54  90                nop
00009A55  90                nop
00009A56  90                nop
00009A57  90                nop
00009A58  90                nop
00009A59  90                nop
00009A5A  90                nop
00009A5B  90                nop
00009A5C  90                nop
00009A5D  90                nop
00009A5E  90                nop
00009A5F  90                nop
00009A60  90                nop
00009A61  90                nop
00009A62  90                nop
00009A63  90                nop
00009A64  90                nop
00009A65  90                nop
00009A66  90                nop
00009A67  90                nop
00009A68  90                nop
00009A69  90                nop
00009A6A  90                nop
00009A6B  90                nop
00009A6C  90                nop
00009A6D  90                nop
00009A6E  90                nop
00009A6F  90                nop
00009A70  90                nop
00009A71  90                nop
00009A72  90                nop
00009A73  90                nop
00009A74  90                nop
00009A75  90                nop
00009A76  90                nop
00009A77  90                nop
00009A78  90                nop
00009A79  90                nop
00009A7A  90                nop
00009A7B  90                nop
00009A7C  90                nop
00009A7D  90                nop
00009A7E  90                nop
00009A7F  90                nop
00009A80  90                nop
00009A81  90                nop
00009A82  90                nop
00009A83  90                nop
00009A84  90                nop
00009A85  90                nop
00009A86  90                nop
00009A87  90                nop
00009A88  90                nop
00009A89  90                nop
00009A8A  90                nop
00009A8B  90                nop
00009A8C  90                nop
00009A8D  90                nop
00009A8E  90                nop
00009A8F  90                nop
00009A90  90                nop
00009A91  90                nop
00009A92  90                nop
00009A93  90                nop
00009A94  90                nop
00009A95  90                nop
00009A96  90                nop
00009A97  90                nop
00009A98  90                nop
00009A99  90                nop
00009A9A  90                nop
00009A9B  90                nop
00009A9C  90                nop
00009A9D  90                nop
00009A9E  90                nop
00009A9F  90                nop
00009AA0  90                nop
00009AA1  90                nop
00009AA2  90                nop
00009AA3  90                nop
00009AA4  90                nop
00009AA5  90                nop
00009AA6  90                nop
00009AA7  90                nop
00009AA8  90                nop
00009AA9  90                nop
00009AAA  90                nop
00009AAB  90                nop
00009AAC  90                nop
00009AAD  90                nop
00009AAE  90                nop
00009AAF  90                nop
00009AB0  90                nop
00009AB1  90                nop
00009AB2  90                nop
00009AB3  90                nop
00009AB4  90                nop
00009AB5  90                nop
00009AB6  90                nop
00009AB7  90                nop
00009AB8  90                nop
00009AB9  90                nop
00009ABA  90                nop
00009ABB  90                nop
00009ABC  90                nop
00009ABD  90                nop
00009ABE  90                nop
00009ABF  90                nop
00009AC0  90                nop
00009AC1  90                nop
00009AC2  90                nop
00009AC3  90                nop
00009AC4  90                nop
00009AC5  90                nop
00009AC6  90                nop
00009AC7  90                nop
00009AC8  90                nop
00009AC9  90                nop
00009ACA  90                nop
00009ACB  90                nop
00009ACC  90                nop
00009ACD  90                nop
00009ACE  90                nop
00009ACF  90                nop
00009AD0  90                nop
00009AD1  90                nop
00009AD2  90                nop
00009AD3  90                nop
00009AD4  90                nop
00009AD5  90                nop
00009AD6  90                nop
00009AD7  90                nop
00009AD8  90                nop
00009AD9  90                nop
00009ADA  90                nop
00009ADB  90                nop
00009ADC  90                nop
00009ADD  90                nop
00009ADE  90                nop
00009ADF  90                nop
00009AE0  90                nop
00009AE1  90                nop
00009AE2  90                nop
00009AE3  90                nop
00009AE4  90                nop
00009AE5  90                nop
00009AE6  90                nop
00009AE7  90                nop
00009AE8  90                nop
00009AE9  90                nop
00009AEA  90                nop
00009AEB  90                nop
00009AEC  90                nop
00009AED  90                nop
00009AEE  90                nop
00009AEF  90                nop
00009AF0  90                nop
00009AF1  90                nop
00009AF2  90                nop
00009AF3  90                nop
00009AF4  90                nop
00009AF5  90                nop
00009AF6  90                nop
00009AF7  90                nop
00009AF8  90                nop
00009AF9  90                nop
00009AFA  90                nop
00009AFB  90                nop
00009AFC  90                nop
00009AFD  90                nop
00009AFE  90                nop
00009AFF  90                nop
00009B00  90                nop
00009B01  90                nop
00009B02  90                nop
00009B03  90                nop
00009B04  90                nop
00009B05  90                nop
00009B06  90                nop
00009B07  90                nop
00009B08  90                nop
00009B09  90                nop
00009B0A  90                nop
00009B0B  90                nop
00009B0C  90                nop
00009B0D  90                nop
00009B0E  90                nop
00009B0F  90                nop
00009B10  90                nop
00009B11  90                nop
00009B12  90                nop
00009B13  90                nop
00009B14  90                nop
00009B15  90                nop
00009B16  90                nop
00009B17  90                nop
00009B18  90                nop
00009B19  90                nop
00009B1A  90                nop
00009B1B  90                nop
00009B1C  90                nop
00009B1D  90                nop
00009B1E  90                nop
00009B1F  90                nop
00009B20  90                nop
00009B21  90                nop
00009B22  90                nop
00009B23  90                nop
00009B24  90                nop
00009B25  90                nop
00009B26  90                nop
00009B27  90                nop
00009B28  90                nop
00009B29  90                nop
00009B2A  90                nop
00009B2B  90                nop
00009B2C  90                nop
00009B2D  90                nop
00009B2E  90                nop
00009B2F  90                nop
00009B30  90                nop
00009B31  90                nop
00009B32  90                nop
00009B33  90                nop
00009B34  90                nop
00009B35  90                nop
00009B36  90                nop
00009B37  90                nop
00009B38  90                nop
00009B39  90                nop
00009B3A  90                nop
00009B3B  90                nop
00009B3C  90                nop
00009B3D  90                nop
00009B3E  90                nop
00009B3F  90                nop
00009B40  90                nop
00009B41  90                nop
00009B42  90                nop
00009B43  90                nop
00009B44  90                nop
00009B45  90                nop
00009B46  90                nop
00009B47  90                nop
00009B48  90                nop
00009B49  90                nop
00009B4A  90                nop
00009B4B  90                nop
00009B4C  90                nop
00009B4D  90                nop
00009B4E  90                nop
00009B4F  90                nop
00009B50  90                nop
00009B51  90                nop
00009B52  90                nop
00009B53  90                nop
00009B54  90                nop
00009B55  90                nop
00009B56  90                nop
00009B57  90                nop
00009B58  90                nop
00009B59  90                nop
00009B5A  90                nop
00009B5B  90                nop
00009B5C  90                nop
00009B5D  90                nop
00009B5E  90                nop
00009B5F  90                nop
00009B60  90                nop
00009B61  90                nop
00009B62  90                nop
00009B63  90                nop
00009B64  90                nop
00009B65  90                nop
00009B66  90                nop
00009B67  90                nop
00009B68  90                nop
00009B69  90                nop
00009B6A  90                nop
00009B6B  90                nop
00009B6C  90                nop
00009B6D  90                nop
00009B6E  90                nop
00009B6F  90                nop
00009B70  90                nop
00009B71  90                nop
00009B72  90                nop
00009B73  90                nop
00009B74  90                nop
00009B75  90                nop
00009B76  90                nop
00009B77  90                nop
00009B78  90                nop
00009B79  90                nop
00009B7A  90                nop
00009B7B  90                nop
00009B7C  90                nop
00009B7D  90                nop
00009B7E  90                nop
00009B7F  90                nop
00009B80  90                nop
00009B81  90                nop
00009B82  90                nop
00009B83  90                nop
00009B84  90                nop
00009B85  90                nop
00009B86  90                nop
00009B87  90                nop
00009B88  90                nop
00009B89  90                nop
00009B8A  90                nop
00009B8B  90                nop
00009B8C  90                nop
00009B8D  90                nop
00009B8E  90                nop
00009B8F  90                nop
00009B90  90                nop
00009B91  90                nop
00009B92  90                nop
00009B93  90                nop
00009B94  90                nop
00009B95  90                nop
00009B96  90                nop
00009B97  90                nop
00009B98  90                nop
00009B99  90                nop
00009B9A  90                nop
00009B9B  90                nop
00009B9C  90                nop
00009B9D  90                nop
00009B9E  90                nop
00009B9F  90                nop
00009BA0  90                nop
00009BA1  90                nop
00009BA2  90                nop
00009BA3  90                nop
00009BA4  90                nop
00009BA5  90                nop
00009BA6  90                nop
00009BA7  90                nop
00009BA8  90                nop
00009BA9  90                nop
00009BAA  90                nop
00009BAB  90                nop
00009BAC  90                nop
00009BAD  90                nop
00009BAE  90                nop
00009BAF  90                nop
00009BB0  90                nop
00009BB1  90                nop
00009BB2  90                nop
00009BB3  90                nop
00009BB4  90                nop
00009BB5  90                nop
00009BB6  90                nop
00009BB7  90                nop
00009BB8  90                nop
00009BB9  90                nop
00009BBA  90                nop
00009BBB  90                nop
00009BBC  90                nop
00009BBD  90                nop
00009BBE  90                nop
00009BBF  90                nop
00009BC0  90                nop
00009BC1  90                nop
00009BC2  90                nop
00009BC3  90                nop
00009BC4  90                nop
00009BC5  90                nop
00009BC6  90                nop
00009BC7  90                nop
00009BC8  90                nop
00009BC9  90                nop
00009BCA  90                nop
00009BCB  90                nop
00009BCC  90                nop
00009BCD  90                nop
00009BCE  90                nop
00009BCF  90                nop
00009BD0  90                nop
00009BD1  90                nop
00009BD2  90                nop
00009BD3  90                nop
00009BD4  90                nop
00009BD5  90                nop
00009BD6  90                nop
00009BD7  90                nop
00009BD8  90                nop
00009BD9  90                nop
00009BDA  90                nop
00009BDB  90                nop
00009BDC  90                nop
00009BDD  90                nop
00009BDE  90                nop
00009BDF  90                nop
00009BE0  90                nop
00009BE1  90                nop
00009BE2  90                nop
00009BE3  90                nop
00009BE4  90                nop
00009BE5  90                nop
00009BE6  90                nop
00009BE7  90                nop
00009BE8  90                nop
00009BE9  90                nop
00009BEA  90                nop
00009BEB  90                nop
00009BEC  90                nop
00009BED  90                nop
00009BEE  90                nop
00009BEF  90                nop
00009BF0  90                nop
00009BF1  90                nop
00009BF2  90                nop
00009BF3  90                nop
00009BF4  90                nop
00009BF5  90                nop
00009BF6  90                nop
00009BF7  90                nop
00009BF8  90                nop
00009BF9  90                nop
00009BFA  90                nop
00009BFB  90                nop
00009BFC  90                nop
00009BFD  90                nop
00009BFE  90                nop
00009BFF  90                nop
00009C00  90                nop
00009C01  90                nop
00009C02  90                nop
00009C03  90                nop
00009C04  90                nop
00009C05  90                nop
00009C06  90                nop
00009C07  90                nop
00009C08  90                nop
00009C09  90                nop
00009C0A  90                nop
00009C0B  90                nop
00009C0C  90                nop
00009C0D  90                nop
00009C0E  90                nop
00009C0F  90                nop
00009C10  90                nop
00009C11  90                nop
00009C12  90                nop
00009C13  90                nop
00009C14  90                nop
00009C15  90                nop
00009C16  90                nop
00009C17  90                nop
00009C18  90                nop
00009C19  90                nop
00009C1A  90                nop
00009C1B  90                nop
00009C1C  90                nop
00009C1D  90                nop
00009C1E  90                nop
00009C1F  90                nop
00009C20  90                nop
00009C21  90                nop
00009C22  90                nop
00009C23  90                nop
00009C24  90                nop
00009C25  90                nop
00009C26  90                nop
00009C27  90                nop
00009C28  90                nop
00009C29  90                nop
00009C2A  90                nop
00009C2B  90                nop
00009C2C  90                nop
00009C2D  90                nop
00009C2E  90                nop
00009C2F  90                nop
00009C30  90                nop
00009C31  90                nop
00009C32  90                nop
00009C33  90                nop
00009C34  90                nop
00009C35  90                nop
00009C36  90                nop
00009C37  90                nop
00009C38  90                nop
00009C39  90                nop
00009C3A  90                nop
00009C3B  90                nop
00009C3C  90                nop
00009C3D  90                nop
00009C3E  90                nop
00009C3F  90                nop
00009C40  90                nop
00009C41  90                nop
00009C42  90                nop
00009C43  90                nop
00009C44  90                nop
00009C45  90                nop
00009C46  90                nop
00009C47  90                nop
00009C48  90                nop
00009C49  90                nop
00009C4A  90                nop
00009C4B  90                nop
00009C4C  90                nop
00009C4D  90                nop
00009C4E  90                nop
00009C4F  90                nop
00009C50  90                nop
00009C51  90                nop
00009C52  90                nop
00009C53  90                nop
00009C54  90                nop
00009C55  90                nop
00009C56  90                nop
00009C57  90                nop
00009C58  90                nop
00009C59  90                nop
00009C5A  90                nop
00009C5B  90                nop
00009C5C  90                nop
00009C5D  90                nop
00009C5E  90                nop
00009C5F  90                nop
00009C60  90                nop
00009C61  90                nop
00009C62  90                nop
00009C63  90                nop
00009C64  90                nop
00009C65  90                nop
00009C66  90                nop
00009C67  90                nop
00009C68  90                nop
00009C69  90                nop
00009C6A  90                nop
00009C6B  90                nop
00009C6C  90                nop
00009C6D  90                nop
00009C6E  90                nop
00009C6F  90                nop
00009C70  90                nop
00009C71  90                nop
00009C72  90                nop
00009C73  90                nop
00009C74  90                nop
00009C75  90                nop
00009C76  90                nop
00009C77  90                nop
00009C78  90                nop
00009C79  90                nop
00009C7A  90                nop
00009C7B  90                nop
00009C7C  90                nop
00009C7D  90                nop
00009C7E  90                nop
00009C7F  90                nop
00009C80  90                nop
00009C81  90                nop
00009C82  90                nop
00009C83  90                nop
00009C84  90                nop
00009C85  90                nop
00009C86  90                nop
00009C87  90                nop
00009C88  90                nop
00009C89  90                nop
00009C8A  90                nop
00009C8B  90                nop
00009C8C  90                nop
00009C8D  90                nop
00009C8E  90                nop
00009C8F  90                nop
00009C90  90                nop
00009C91  90                nop
00009C92  90                nop
00009C93  90                nop
00009C94  90                nop
00009C95  90                nop
00009C96  90                nop
00009C97  90                nop
00009C98  90                nop
00009C99  90                nop
00009C9A  90                nop
00009C9B  90                nop
00009C9C  90                nop
00009C9D  90                nop
00009C9E  90                nop
00009C9F  90                nop
00009CA0  90                nop
00009CA1  90                nop
00009CA2  90                nop
00009CA3  90                nop
00009CA4  90                nop
00009CA5  90                nop
00009CA6  90                nop
00009CA7  90                nop
00009CA8  90                nop
00009CA9  90                nop
00009CAA  90                nop
00009CAB  90                nop
00009CAC  90                nop
00009CAD  90                nop
00009CAE  90                nop
00009CAF  90                nop
00009CB0  90                nop
00009CB1  90                nop
00009CB2  90                nop
00009CB3  90                nop
00009CB4  90                nop
00009CB5  90                nop
00009CB6  90                nop
00009CB7  90                nop
00009CB8  90                nop
00009CB9  90                nop
00009CBA  90                nop
00009CBB  90                nop
00009CBC  90                nop
00009CBD  90                nop
00009CBE  90                nop
00009CBF  90                nop
00009CC0  90                nop
00009CC1  90                nop
00009CC2  90                nop
00009CC3  90                nop
00009CC4  90                nop
00009CC5  90                nop
00009CC6  90                nop
00009CC7  90                nop
00009CC8  90                nop
00009CC9  90                nop
00009CCA  90                nop
00009CCB  90                nop
00009CCC  90                nop
00009CCD  90                nop
00009CCE  90                nop
00009CCF  90                nop
00009CD0  90                nop
00009CD1  90                nop
00009CD2  90                nop
00009CD3  90                nop
00009CD4  90                nop
00009CD5  90                nop
00009CD6  90                nop
00009CD7  90                nop
00009CD8  90                nop
00009CD9  90                nop
00009CDA  90                nop
00009CDB  90                nop
00009CDC  90                nop
00009CDD  90                nop
00009CDE  90                nop
00009CDF  90                nop
00009CE0  90                nop
00009CE1  90                nop
00009CE2  90                nop
00009CE3  90                nop
00009CE4  90                nop
00009CE5  90                nop
00009CE6  90                nop
00009CE7  90                nop
00009CE8  90                nop
00009CE9  90                nop
00009CEA  90                nop
00009CEB  90                nop
00009CEC  90                nop
00009CED  90                nop
00009CEE  90                nop
00009CEF  90                nop
00009CF0  90                nop
00009CF1  90                nop
00009CF2  90                nop
00009CF3  90                nop
00009CF4  90                nop
00009CF5  90                nop
00009CF6  90                nop
00009CF7  90                nop
00009CF8  90                nop
00009CF9  90                nop
00009CFA  90                nop
00009CFB  90                nop
00009CFC  90                nop
00009CFD  90                nop
00009CFE  90                nop
00009CFF  90                nop
00009D00  90                nop
00009D01  90                nop
00009D02  90                nop
00009D03  90                nop
00009D04  90                nop
00009D05  90                nop
00009D06  90                nop
00009D07  90                nop
00009D08  90                nop
00009D09  90                nop
00009D0A  90                nop
00009D0B  90                nop
00009D0C  90                nop
00009D0D  90                nop
00009D0E  90                nop
00009D0F  90                nop
00009D10  90                nop
00009D11  90                nop
00009D12  90                nop
00009D13  90                nop
00009D14  90                nop
00009D15  90                nop
00009D16  90                nop
00009D17  90                nop
00009D18  90                nop
00009D19  90                nop
00009D1A  90                nop
00009D1B  90                nop
00009D1C  90                nop
00009D1D  90                nop
00009D1E  90                nop
00009D1F  90                nop
00009D20  90                nop
00009D21  90                nop
00009D22  90                nop
00009D23  90                nop
00009D24  90                nop
00009D25  90                nop
00009D26  90                nop
00009D27  90                nop
00009D28  90                nop
00009D29  90                nop
00009D2A  90                nop
00009D2B  90                nop
00009D2C  90                nop
00009D2D  90                nop
00009D2E  90                nop
00009D2F  90                nop
00009D30  90                nop
00009D31  90                nop
00009D32  90                nop
00009D33  90                nop
00009D34  90                nop
00009D35  90                nop
00009D36  90                nop
00009D37  90                nop
00009D38  90                nop
00009D39  90                nop
00009D3A  90                nop
00009D3B  90                nop
00009D3C  90                nop
00009D3D  90                nop
00009D3E  90                nop
00009D3F  90                nop
00009D40  90                nop
00009D41  90                nop
00009D42  90                nop
00009D43  90                nop
00009D44  90                nop
00009D45  90                nop
00009D46  90                nop
00009D47  90                nop
00009D48  90                nop
00009D49  90                nop
00009D4A  90                nop
00009D4B  90                nop
00009D4C  90                nop
00009D4D  90                nop
00009D4E  90                nop
00009D4F  90                nop
00009D50  90                nop
00009D51  90                nop
00009D52  90                nop
00009D53  90                nop
00009D54  90                nop
00009D55  90                nop
00009D56  90                nop
00009D57  90                nop
00009D58  90                nop
00009D59  90                nop
00009D5A  90                nop
00009D5B  90                nop
00009D5C  90                nop
00009D5D  90                nop
00009D5E  90                nop
00009D5F  90                nop
00009D60  90                nop
00009D61  90                nop
00009D62  90                nop
00009D63  90                nop
00009D64  90                nop
00009D65  90                nop
00009D66  90                nop
00009D67  90                nop
00009D68  90                nop
00009D69  90                nop
00009D6A  90                nop
00009D6B  90                nop
00009D6C  90                nop
00009D6D  90                nop
00009D6E  90                nop
00009D6F  90                nop
00009D70  90                nop
00009D71  90                nop
00009D72  90                nop
00009D73  90                nop
00009D74  90                nop
00009D75  90                nop
00009D76  90                nop
00009D77  90                nop
00009D78  90                nop
00009D79  90                nop
00009D7A  90                nop
00009D7B  90                nop
00009D7C  90                nop
00009D7D  90                nop
00009D7E  90                nop
00009D7F  90                nop
00009D80  90                nop
00009D81  90                nop
00009D82  90                nop
00009D83  90                nop
00009D84  90                nop
00009D85  90                nop
00009D86  90                nop
00009D87  90                nop
00009D88  90                nop
00009D89  90                nop
00009D8A  90                nop
00009D8B  90                nop
00009D8C  90                nop
00009D8D  90                nop
00009D8E  90                nop
00009D8F  90                nop
00009D90  90                nop
00009D91  90                nop
00009D92  90                nop
00009D93  90                nop
00009D94  90                nop
00009D95  90                nop
00009D96  90                nop
00009D97  90                nop
00009D98  90                nop
00009D99  90                nop
00009D9A  90                nop
00009D9B  90                nop
00009D9C  90                nop
00009D9D  90                nop
00009D9E  90                nop
00009D9F  90                nop
00009DA0  90                nop
00009DA1  90                nop
00009DA2  90                nop
00009DA3  90                nop
00009DA4  90                nop
00009DA5  90                nop
00009DA6  90                nop
00009DA7  90                nop
00009DA8  90                nop
00009DA9  90                nop
00009DAA  90                nop
00009DAB  90                nop
00009DAC  90                nop
00009DAD  90                nop
00009DAE  90                nop
00009DAF  90                nop
00009DB0  90                nop
00009DB1  90                nop
00009DB2  90                nop
00009DB3  90                nop
00009DB4  90                nop
00009DB5  90                nop
00009DB6  90                nop
00009DB7  90                nop
00009DB8  90                nop
00009DB9  90                nop
00009DBA  90                nop
00009DBB  90                nop
00009DBC  90                nop
00009DBD  90                nop
00009DBE  90                nop
00009DBF  90                nop
00009DC0  90                nop
00009DC1  90                nop
00009DC2  90                nop
00009DC3  90                nop
00009DC4  90                nop
00009DC5  90                nop
00009DC6  90                nop
00009DC7  90                nop
00009DC8  90                nop
00009DC9  90                nop
00009DCA  90                nop
00009DCB  90                nop
00009DCC  90                nop
00009DCD  90                nop
00009DCE  90                nop
00009DCF  90                nop
00009DD0  90                nop
00009DD1  90                nop
00009DD2  90                nop
00009DD3  90                nop
00009DD4  90                nop
00009DD5  90                nop
00009DD6  90                nop
00009DD7  90                nop
00009DD8  90                nop
00009DD9  90                nop
00009DDA  90                nop
00009DDB  90                nop
00009DDC  90                nop
00009DDD  90                nop
00009DDE  90                nop
00009DDF  90                nop
00009DE0  90                nop
00009DE1  90                nop
00009DE2  90                nop
00009DE3  90                nop
00009DE4  90                nop
00009DE5  90                nop
00009DE6  90                nop
00009DE7  90                nop
00009DE8  90                nop
00009DE9  90                nop
00009DEA  90                nop
00009DEB  90                nop
00009DEC  90                nop
00009DED  90                nop
00009DEE  90                nop
00009DEF  90                nop
00009DF0  90                nop
00009DF1  90                nop
00009DF2  90                nop
00009DF3  90                nop
00009DF4  90                nop
00009DF5  90                nop
00009DF6  90                nop
00009DF7  90                nop
00009DF8  90                nop
00009DF9  90                nop
00009DFA  90                nop
00009DFB  90                nop
00009DFC  90                nop
00009DFD  90                nop
00009DFE  90                nop
00009DFF  90                nop
00009E00  90                nop
00009E01  90                nop
00009E02  90                nop
00009E03  90                nop
00009E04  90                nop
00009E05  90                nop
00009E06  90                nop
00009E07  90                nop
00009E08  90                nop
00009E09  90                nop
00009E0A  90                nop
00009E0B  90                nop
00009E0C  90                nop
00009E0D  90                nop
00009E0E  90                nop
00009E0F  90                nop
00009E10  90                nop
00009E11  90                nop
00009E12  90                nop
00009E13  90                nop
00009E14  90                nop
00009E15  90                nop
00009E16  90                nop
00009E17  90                nop
00009E18  90                nop
00009E19  90                nop
00009E1A  90                nop
00009E1B  90                nop
00009E1C  90                nop
00009E1D  90                nop
00009E1E  90                nop
00009E1F  90                nop
00009E20  90                nop
00009E21  90                nop
00009E22  90                nop
00009E23  90                nop
00009E24  90                nop
00009E25  90                nop
00009E26  90                nop
00009E27  90                nop
00009E28  90                nop
00009E29  90                nop
00009E2A  90                nop
00009E2B  90                nop
00009E2C  90                nop
00009E2D  90                nop
00009E2E  90                nop
00009E2F  90                nop
00009E30  90                nop
00009E31  90                nop
00009E32  90                nop
00009E33  90                nop
00009E34  90                nop
00009E35  90                nop
00009E36  90                nop
00009E37  90                nop
00009E38  90                nop
00009E39  90                nop
00009E3A  90                nop
00009E3B  90                nop
00009E3C  90                nop
00009E3D  90                nop
00009E3E  90                nop
00009E3F  90                nop
00009E40  90                nop
00009E41  90                nop
00009E42  90                nop
00009E43  90                nop
00009E44  90                nop
00009E45  90                nop
00009E46  90                nop
00009E47  90                nop
00009E48  90                nop
00009E49  90                nop
00009E4A  90                nop
00009E4B  90                nop
00009E4C  90                nop
00009E4D  90                nop
00009E4E  90                nop
00009E4F  90                nop
00009E50  90                nop
00009E51  90                nop
00009E52  90                nop
00009E53  90                nop
00009E54  90                nop
00009E55  90                nop
00009E56  90                nop
00009E57  90                nop
00009E58  90                nop
00009E59  90                nop
00009E5A  90                nop
00009E5B  90                nop
00009E5C  90                nop
00009E5D  90                nop
00009E5E  90                nop
00009E5F  90                nop
00009E60  90                nop
00009E61  90                nop
00009E62  90                nop
00009E63  90                nop
00009E64  90                nop
00009E65  90                nop
00009E66  90                nop
00009E67  90                nop
00009E68  90                nop
00009E69  90                nop
00009E6A  90                nop
00009E6B  90                nop
00009E6C  90                nop
00009E6D  90                nop
00009E6E  90                nop
00009E6F  90                nop
00009E70  90                nop
00009E71  90                nop
00009E72  90                nop
00009E73  90                nop
00009E74  90                nop
00009E75  90                nop
00009E76  90                nop
00009E77  90                nop
00009E78  90                nop
00009E79  90                nop
00009E7A  90                nop
00009E7B  90                nop
00009E7C  90                nop
00009E7D  90                nop
00009E7E  90                nop
00009E7F  90                nop
00009E80  90                nop
00009E81  90                nop
00009E82  90                nop
00009E83  90                nop
00009E84  90                nop
00009E85  90                nop
00009E86  90                nop
00009E87  90                nop
00009E88  90                nop
00009E89  90                nop
00009E8A  90                nop
00009E8B  90                nop
00009E8C  90                nop
00009E8D  90                nop
00009E8E  90                nop
00009E8F  90                nop
00009E90  90                nop
00009E91  90                nop
00009E92  90                nop
00009E93  90                nop
00009E94  90                nop
00009E95  90                nop
00009E96  90                nop
00009E97  90                nop
00009E98  90                nop
00009E99  90                nop
00009E9A  90                nop
00009E9B  90                nop
00009E9C  90                nop
00009E9D  90                nop
00009E9E  90                nop
00009E9F  90                nop
00009EA0  90                nop
00009EA1  90                nop
00009EA2  90                nop
00009EA3  90                nop
00009EA4  90                nop
00009EA5  90                nop
00009EA6  90                nop
00009EA7  90                nop
00009EA8  90                nop
00009EA9  90                nop
00009EAA  90                nop
00009EAB  90                nop
00009EAC  90                nop
00009EAD  90                nop
00009EAE  90                nop
00009EAF  90                nop
00009EB0  90                nop
00009EB1  90                nop
00009EB2  90                nop
00009EB3  90                nop
00009EB4  90                nop
00009EB5  90                nop
00009EB6  90                nop
00009EB7  90                nop
00009EB8  90                nop
00009EB9  90                nop
00009EBA  90                nop
00009EBB  90                nop
00009EBC  90                nop
00009EBD  90                nop
00009EBE  90                nop
00009EBF  90                nop
00009EC0  90                nop
00009EC1  90                nop
00009EC2  90                nop
00009EC3  90                nop
00009EC4  90                nop
00009EC5  90                nop
00009EC6  90                nop
00009EC7  90                nop
00009EC8  90                nop
00009EC9  90                nop
00009ECA  90                nop
00009ECB  90                nop
00009ECC  90                nop
00009ECD  90                nop
00009ECE  90                nop
00009ECF  90                nop
00009ED0  90                nop
00009ED1  90                nop
00009ED2  90                nop
00009ED3  90                nop
00009ED4  90                nop
00009ED5  90                nop
00009ED6  90                nop
00009ED7  90                nop
00009ED8  90                nop
00009ED9  90                nop
00009EDA  90                nop
00009EDB  90                nop
00009EDC  90                nop
00009EDD  90                nop
00009EDE  90                nop
00009EDF  90                nop
00009EE0  90                nop
00009EE1  90                nop
00009EE2  90                nop
00009EE3  90                nop
00009EE4  90                nop
00009EE5  90                nop
00009EE6  90                nop
00009EE7  90                nop
00009EE8  90                nop
00009EE9  90                nop
00009EEA  90                nop
00009EEB  90                nop
00009EEC  90                nop
00009EED  90                nop
00009EEE  90                nop
00009EEF  90                nop
00009EF0  90                nop
00009EF1  90                nop
00009EF2  90                nop
00009EF3  90                nop
00009EF4  90                nop
00009EF5  90                nop
00009EF6  90                nop
00009EF7  90                nop
00009EF8  90                nop
00009EF9  90                nop
00009EFA  90                nop
00009EFB  90                nop
00009EFC  90                nop
00009EFD  90                nop
00009EFE  90                nop
00009EFF  90                nop
00009F00  90                nop
00009F01  90                nop
00009F02  90                nop
00009F03  90                nop
00009F04  90                nop
00009F05  90                nop
00009F06  90                nop
00009F07  90                nop
00009F08  90                nop
00009F09  90                nop
00009F0A  90                nop
00009F0B  90                nop
00009F0C  90                nop
00009F0D  90                nop
00009F0E  90                nop
00009F0F  90                nop
00009F10  90                nop
00009F11  90                nop
00009F12  90                nop
00009F13  90                nop
00009F14  90                nop
00009F15  90                nop
00009F16  90                nop
00009F17  90                nop
00009F18  90                nop
00009F19  90                nop
00009F1A  90                nop
00009F1B  90                nop
00009F1C  90                nop
00009F1D  90                nop
00009F1E  90                nop
00009F1F  90                nop
00009F20  90                nop
00009F21  90                nop
00009F22  90                nop
00009F23  90                nop
00009F24  90                nop
00009F25  90                nop
00009F26  90                nop
00009F27  90                nop
00009F28  90                nop
00009F29  90                nop
00009F2A  90                nop
00009F2B  90                nop
00009F2C  90                nop
00009F2D  90                nop
00009F2E  90                nop
00009F2F  90                nop
00009F30  90                nop
00009F31  90                nop
00009F32  90                nop
00009F33  90                nop
00009F34  90                nop
00009F35  90                nop
00009F36  90                nop
00009F37  90                nop
00009F38  90                nop
00009F39  90                nop
00009F3A  90                nop
00009F3B  90                nop
00009F3C  90                nop
00009F3D  90                nop
00009F3E  90                nop
00009F3F  90                nop
00009F40  90                nop
00009F41  90                nop
00009F42  90                nop
00009F43  90                nop
00009F44  90                nop
00009F45  90                nop
00009F46  90                nop
00009F47  90                nop
00009F48  90                nop
00009F49  90                nop
00009F4A  90                nop
00009F4B  90                nop
00009F4C  90                nop
00009F4D  90                nop
00009F4E  90                nop
00009F4F  90                nop
00009F50  90                nop
00009F51  90                nop
00009F52  90                nop
00009F53  90                nop
00009F54  90                nop
00009F55  90                nop
00009F56  90                nop
00009F57  90                nop
00009F58  90                nop
00009F59  90                nop
00009F5A  90                nop
00009F5B  90                nop
00009F5C  90                nop
00009F5D  90                nop
00009F5E  90                nop
00009F5F  90                nop
00009F60  90                nop
00009F61  90                nop
00009F62  90                nop
00009F63  90                nop
00009F64  90                nop
00009F65  90                nop
00009F66  90                nop
00009F67  90                nop
00009F68  90                nop
00009F69  90                nop
00009F6A  90                nop
00009F6B  90                nop
00009F6C  90                nop
00009F6D  90                nop
00009F6E  90                nop
00009F6F  90                nop
00009F70  90                nop
00009F71  90                nop
00009F72  90                nop
00009F73  90                nop
00009F74  90                nop
00009F75  90                nop
00009F76  90                nop
00009F77  90                nop
00009F78  90                nop
00009F79  90                nop
00009F7A  90                nop
00009F7B  90                nop
00009F7C  90                nop
00009F7D  90                nop
00009F7E  90                nop
00009F7F  90                nop
00009F80  90                nop
00009F81  90                nop
00009F82  90                nop
00009F83  90                nop
00009F84  90                nop
00009F85  90                nop
00009F86  90                nop
00009F87  90                nop
00009F88  90                nop
00009F89  90                nop
00009F8A  90                nop
00009F8B  90                nop
00009F8C  90                nop
00009F8D  90                nop
00009F8E  90                nop
00009F8F  90                nop
00009F90  90                nop
00009F91  90                nop
00009F92  90                nop
00009F93  90                nop
00009F94  90                nop
00009F95  90                nop
00009F96  90                nop
00009F97  90                nop
00009F98  90                nop
00009F99  90                nop
00009F9A  90                nop
00009F9B  90                nop
00009F9C  90                nop
00009F9D  90                nop
00009F9E  90                nop
00009F9F  90                nop
00009FA0  90                nop
00009FA1  90                nop
00009FA2  90                nop
00009FA3  90                nop
00009FA4  90                nop
00009FA5  90                nop
00009FA6  90                nop
00009FA7  90                nop
00009FA8  90                nop
00009FA9  90                nop
00009FAA  90                nop
00009FAB  90                nop
00009FAC  90                nop
00009FAD  90                nop
00009FAE  90                nop
00009FAF  90                nop
00009FB0  90                nop
00009FB1  90                nop
00009FB2  90                nop
00009FB3  90                nop
00009FB4  90                nop
00009FB5  90                nop
00009FB6  90                nop
00009FB7  90                nop
00009FB8  90                nop
00009FB9  90                nop
00009FBA  90                nop
00009FBB  90                nop
00009FBC  90                nop
00009FBD  90                nop
00009FBE  90                nop
00009FBF  90                nop
00009FC0  90                nop
00009FC1  90                nop
00009FC2  90                nop
00009FC3  90                nop
00009FC4  90                nop
00009FC5  90                nop
00009FC6  90                nop
00009FC7  90                nop
00009FC8  90                nop
00009FC9  90                nop
00009FCA  90                nop
00009FCB  90                nop
00009FCC  90                nop
00009FCD  90                nop
00009FCE  90                nop
00009FCF  90                nop
00009FD0  90                nop
00009FD1  90                nop
00009FD2  90                nop
00009FD3  90                nop
00009FD4  90                nop
00009FD5  90                nop
00009FD6  90                nop
00009FD7  90                nop
00009FD8  90                nop
00009FD9  90                nop
00009FDA  90                nop
00009FDB  90                nop
00009FDC  90                nop
00009FDD  90                nop
00009FDE  90                nop
00009FDF  90                nop
00009FE0  90                nop
00009FE1  90                nop
00009FE2  90                nop
00009FE3  90                nop
00009FE4  90                nop
00009FE5  90                nop
00009FE6  90                nop
00009FE7  90                nop
00009FE8  90                nop
00009FE9  90                nop
00009FEA  90                nop
00009FEB  90                nop
00009FEC  90                nop
00009FED  90                nop
00009FEE  90                nop
00009FEF  90                nop
00009FF0  90                nop
00009FF1  90                nop
00009FF2  90                nop
00009FF3  90                nop
00009FF4  90                nop
00009FF5  90                nop
00009FF6  90                nop
00009FF7  90                nop
00009FF8  90                nop
00009FF9  90                nop
00009FFA  90                nop
00009FFB  90                nop
00009FFC  90                nop
00009FFD  90                nop
00009FFE  90                nop
00009FFF  90                nop
0000A000  90                nop
0000A001  90                nop
0000A002  90                nop
0000A003  90                nop
0000A004  90                nop
0000A005  90                nop
0000A006  90                nop
0000A007  90                nop
0000A008  90                nop
0000A009  90                nop
0000A00A  90                nop
0000A00B  90                nop
0000A00C  90                nop
0000A00D  90                nop
0000A00E  90                nop
0000A00F  90                nop
0000A010  90                nop
0000A011  90                nop
0000A012  90                nop
0000A013  90                nop
0000A014  90                nop
0000A015  90                nop
0000A016  90                nop
0000A017  90                nop
0000A018  90                nop
0000A019  90                nop
0000A01A  90                nop
0000A01B  90                nop
0000A01C  90                nop
0000A01D  90                nop
0000A01E  90                nop
0000A01F  90                nop
0000A020  90                nop
0000A021  90                nop
0000A022  90                nop
0000A023  90                nop
0000A024  90                nop
0000A025  90                nop
0000A026  90                nop
0000A027  90                nop
0000A028  90                nop
0000A029  90                nop
0000A02A  90                nop
0000A02B  90                nop
0000A02C  90                nop
0000A02D  90                nop
0000A02E  90                nop
0000A02F  90                nop
0000A030  90                nop
0000A031  90                nop
0000A032  90                nop
0000A033  90                nop
0000A034  90                nop
0000A035  90                nop
0000A036  90                nop
0000A037  90                nop
0000A038  90                nop
0000A039  90                nop
0000A03A  90                nop
0000A03B  90                nop
0000A03C  90                nop
0000A03D  90                nop
0000A03E  90                nop
0000A03F  90                nop
0000A040  90                nop
0000A041  90                nop
0000A042  90                nop
0000A043  90                nop
0000A044  90                nop
0000A045  90                nop
0000A046  90                nop
0000A047  90                nop
0000A048  90                nop
0000A049  90                nop
0000A04A  90                nop
0000A04B  90                nop
0000A04C  90                nop
0000A04D  90                nop
0000A04E  90                nop
0000A04F  90                nop
0000A050  90                nop
0000A051  90                nop
0000A052  90                nop
0000A053  90                nop
0000A054  90                nop
0000A055  90                nop
0000A056  90                nop
0000A057  90                nop
0000A058  90                nop
0000A059  90                nop
0000A05A  90                nop
0000A05B  90                nop
0000A05C  90                nop
0000A05D  90                nop
0000A05E  90                nop
0000A05F  90                nop
0000A060  90                nop
0000A061  90                nop
0000A062  90                nop
0000A063  90                nop
0000A064  90                nop
0000A065  90                nop
0000A066  90                nop
0000A067  90                nop
0000A068  90                nop
0000A069  90                nop
0000A06A  90                nop
0000A06B  90                nop
0000A06C  90                nop
0000A06D  90                nop
0000A06E  90                nop
0000A06F  90                nop
0000A070  90                nop
0000A071  90                nop
0000A072  90                nop
0000A073  90                nop
0000A074  90                nop
0000A075  90                nop
0000A076  90                nop
0000A077  90                nop
0000A078  90                nop
0000A079  90                nop
0000A07A  90                nop
0000A07B  90                nop
0000A07C  90                nop
0000A07D  90                nop
0000A07E  90                nop
0000A07F  90                nop
0000A080  90                nop
0000A081  90                nop
0000A082  90                nop
0000A083  90                nop
0000A084  90                nop
0000A085  90                nop
0000A086  90                nop
0000A087  90                nop
0000A088  90                nop
0000A089  90                nop
0000A08A  90                nop
0000A08B  90                nop
0000A08C  90                nop
0000A08D  90                nop
0000A08E  90                nop
0000A08F  90                nop
0000A090  90                nop
0000A091  90                nop
0000A092  90                nop
0000A093  90                nop
0000A094  90                nop
0000A095  90                nop
0000A096  90                nop
0000A097  90                nop
0000A098  90                nop
0000A099  90                nop
0000A09A  90                nop
0000A09B  90                nop
0000A09C  90                nop
0000A09D  90                nop
0000A09E  90                nop
0000A09F  90                nop
0000A0A0  90                nop
0000A0A1  90                nop
0000A0A2  90                nop
0000A0A3  90                nop
0000A0A4  90                nop
0000A0A5  90                nop
0000A0A6  90                nop
0000A0A7  90                nop
0000A0A8  90                nop
0000A0A9  90                nop
0000A0AA  90                nop
0000A0AB  90                nop
0000A0AC  90                nop
0000A0AD  90                nop
0000A0AE  90                nop
0000A0AF  90                nop
0000A0B0  90                nop
0000A0B1  90                nop
0000A0B2  90                nop
0000A0B3  90                nop
0000A0B4  90                nop
0000A0B5  90                nop
0000A0B6  90                nop
0000A0B7  90                nop
0000A0B8  90                nop
0000A0B9  90                nop
0000A0BA  90                nop
0000A0BB  90                nop
0000A0BC  90                nop
0000A0BD  90                nop
0000A0BE  90                nop
0000A0BF  90                nop
0000A0C0  90                nop
0000A0C1  90                nop
0000A0C2  90                nop
0000A0C3  90                nop
0000A0C4  90                nop
0000A0C5  90                nop
0000A0C6  90                nop
0000A0C7  90                nop
0000A0C8  90                nop
0000A0C9  90                nop
0000A0CA  90                nop
0000A0CB  90                nop
0000A0CC  90                nop
0000A0CD  90                nop
0000A0CE  90                nop
0000A0CF  90                nop
0000A0D0  90                nop
0000A0D1  90                nop
0000A0D2  90                nop
0000A0D3  90                nop
0000A0D4  90                nop
0000A0D5  90                nop
0000A0D6  90                nop
0000A0D7  90                nop
0000A0D8  90                nop
0000A0D9  90                nop
0000A0DA  90                nop
0000A0DB  90                nop
0000A0DC  90                nop
0000A0DD  90                nop
0000A0DE  90                nop
0000A0DF  90                nop
0000A0E0  90                nop
0000A0E1  90                nop
0000A0E2  90                nop
0000A0E3  90                nop
0000A0E4  90                nop
0000A0E5  90                nop
0000A0E6  90                nop
0000A0E7  90                nop
0000A0E8  90                nop
0000A0E9  90                nop
0000A0EA  90                nop
0000A0EB  90                nop
0000A0EC  90                nop
0000A0ED  90                nop
0000A0EE  90                nop
0000A0EF  90                nop
0000A0F0  90                nop
0000A0F1  90                nop
0000A0F2  90                nop
0000A0F3  90                nop
0000A0F4  90                nop
0000A0F5  90                nop
0000A0F6  90                nop
0000A0F7  90                nop
0000A0F8  90                nop
0000A0F9  90                nop
0000A0FA  90                nop
0000A0FB  90                nop
0000A0FC  90                nop
0000A0FD  90                nop
0000A0FE  90                nop
0000A0FF  90                nop
0000A100  90                nop
0000A101  90                nop
0000A102  90                nop
0000A103  90                nop
0000A104  90                nop
0000A105  90                nop
0000A106  90                nop
0000A107  90                nop
0000A108  90                nop
0000A109  90                nop
0000A10A  90                nop
0000A10B  90                nop
0000A10C  90                nop
0000A10D  90                nop
0000A10E  90                nop
0000A10F  90                nop
0000A110  90                nop
0000A111  90                nop
0000A112  90                nop
0000A113  90                nop
0000A114  90                nop
0000A115  90                nop
0000A116  90                nop
0000A117  90                nop
0000A118  90                nop
0000A119  90                nop
0000A11A  90                nop
0000A11B  90                nop
0000A11C  90                nop
0000A11D  90                nop
0000A11E  90                nop
0000A11F  90                nop
0000A120  90                nop
0000A121  90                nop
0000A122  90                nop
0000A123  90                nop
0000A124  90                nop
0000A125  90                nop
0000A126  90                nop
0000A127  90                nop
0000A128  90                nop
0000A129  90                nop
0000A12A  90                nop
0000A12B  90                nop
0000A12C  90                nop
0000A12D  90                nop
0000A12E  90                nop
0000A12F  90                nop
0000A130  90                nop
0000A131  90                nop
0000A132  90                nop
0000A133  90                nop
0000A134  90                nop
0000A135  90                nop
0000A136  90                nop
0000A137  90                nop
0000A138  90                nop
0000A139  90                nop
0000A13A  90                nop
0000A13B  90                nop
0000A13C  90                nop
0000A13D  90                nop
0000A13E  90                nop
0000A13F  90                nop
0000A140  90                nop
0000A141  90                nop
0000A142  90                nop
0000A143  90                nop
0000A144  90                nop
0000A145  90                nop
0000A146  90                nop
0000A147  90                nop
0000A148  90                nop
0000A149  90                nop
0000A14A  90                nop
0000A14B  90                nop
0000A14C  90                nop
0000A14D  90                nop
0000A14E  90                nop
0000A14F  90                nop
0000A150  90                nop
0000A151  90                nop
0000A152  90                nop
0000A153  90                nop
0000A154  90                nop
0000A155  90                nop
0000A156  90                nop
0000A157  90                nop
0000A158  90                nop
0000A159  90                nop
0000A15A  90                nop
0000A15B  90                nop
0000A15C  90                nop
0000A15D  90                nop
0000A15E  90                nop
0000A15F  90                nop
0000A160  90                nop
0000A161  90                nop
0000A162  90                nop
0000A163  90                nop
0000A164  90                nop
0000A165  90                nop
0000A166  90                nop
0000A167  90                nop
0000A168  90                nop
0000A169  90                nop
0000A16A  90                nop
0000A16B  90                nop
0000A16C  90                nop
0000A16D  90                nop
0000A16E  90                nop
0000A16F  90                nop
0000A170  90                nop
0000A171  90                nop
0000A172  90                nop
0000A173  90                nop
0000A174  90                nop
0000A175  90                nop
0000A176  90                nop
0000A177  90                nop
0000A178  90                nop
0000A179  90                nop
0000A17A  90                nop
0000A17B  90                nop
0000A17C  90                nop
0000A17D  90                nop
0000A17E  90                nop
0000A17F  90                nop
0000A180  90                nop
0000A181  90                nop
0000A182  90                nop
0000A183  90                nop
0000A184  90                nop
0000A185  90                nop
0000A186  90                nop
0000A187  90                nop
0000A188  90                nop
0000A189  90                nop
0000A18A  90                nop
0000A18B  90                nop
0000A18C  90                nop
0000A18D  90                nop
0000A18E  90                nop
0000A18F  90                nop
0000A190  90                nop
0000A191  90                nop
0000A192  90                nop
0000A193  90                nop
0000A194  90                nop
0000A195  90                nop
0000A196  90                nop
0000A197  90                nop
0000A198  90                nop
0000A199  90                nop
0000A19A  90                nop
0000A19B  90                nop
0000A19C  90                nop
0000A19D  90                nop
0000A19E  90                nop
0000A19F  90                nop
0000A1A0  90                nop
0000A1A1  90                nop
0000A1A2  90                nop
0000A1A3  90                nop
0000A1A4  90                nop
0000A1A5  90                nop
0000A1A6  90                nop
0000A1A7  90                nop
0000A1A8  90                nop
0000A1A9  90                nop
0000A1AA  90                nop
0000A1AB  90                nop
0000A1AC  90                nop
0000A1AD  90                nop
0000A1AE  90                nop
0000A1AF  90                nop
0000A1B0  90                nop
0000A1B1  90                nop
0000A1B2  90                nop
0000A1B3  90                nop
0000A1B4  90                nop
0000A1B5  90                nop
0000A1B6  90                nop
0000A1B7  90                nop
0000A1B8  90                nop
0000A1B9  90                nop
0000A1BA  90                nop
0000A1BB  90                nop
0000A1BC  90                nop
0000A1BD  90                nop
0000A1BE  90                nop
0000A1BF  90                nop
0000A1C0  90                nop
0000A1C1  90                nop
0000A1C2  90                nop
0000A1C3  90                nop
0000A1C4  90                nop
0000A1C5  90                nop
0000A1C6  90                nop
0000A1C7  90                nop
0000A1C8  90                nop
0000A1C9  90                nop
0000A1CA  90                nop
0000A1CB  90                nop
0000A1CC  90                nop
0000A1CD  90                nop
0000A1CE  90                nop
0000A1CF  90                nop
0000A1D0  90                nop
0000A1D1  90                nop
0000A1D2  90                nop
0000A1D3  90                nop
0000A1D4  90                nop
0000A1D5  90                nop
0000A1D6  90                nop
0000A1D7  90                nop
0000A1D8  90                nop
0000A1D9  90                nop
0000A1DA  90                nop
0000A1DB  90                nop
0000A1DC  90                nop
0000A1DD  90                nop
0000A1DE  90                nop
0000A1DF  90                nop
0000A1E0  90                nop
0000A1E1  90                nop
0000A1E2  90                nop
0000A1E3  90                nop
0000A1E4  90                nop
0000A1E5  90                nop
0000A1E6  90                nop
0000A1E7  90                nop
0000A1E8  90                nop
0000A1E9  90                nop
0000A1EA  90                nop
0000A1EB  90                nop
0000A1EC  90                nop
0000A1ED  90                nop
0000A1EE  90                nop
0000A1EF  90                nop
0000A1F0  90                nop
0000A1F1  90                nop
0000A1F2  90                nop
0000A1F3  90                nop
0000A1F4  90                nop
0000A1F5  90                nop
0000A1F6  90                nop
0000A1F7  90                nop
0000A1F8  90                nop
0000A1F9  90                nop
0000A1FA  90                nop
0000A1FB  90                nop
0000A1FC  90                nop
0000A1FD  90                nop
0000A1FE  90                nop
0000A1FF  90                nop
0000A200  90                nop
0000A201  90                nop
0000A202  90                nop
0000A203  90                nop
0000A204  90                nop
0000A205  90                nop
0000A206  90                nop
0000A207  90                nop
0000A208  90                nop
0000A209  90                nop
0000A20A  90                nop
0000A20B  90                nop
0000A20C  90                nop
0000A20D  90                nop
0000A20E  90                nop
0000A20F  90                nop
0000A210  90                nop
0000A211  90                nop
0000A212  90                nop
0000A213  90                nop
0000A214  90                nop
0000A215  90                nop
0000A216  90                nop
0000A217  90                nop
0000A218  90                nop
0000A219  90                nop
0000A21A  90                nop
0000A21B  90                nop
0000A21C  90                nop
0000A21D  90                nop
0000A21E  90                nop
0000A21F  90                nop
0000A220  90                nop
0000A221  90                nop
0000A222  90                nop
0000A223  90                nop
0000A224  90                nop
0000A225  90                nop
0000A226  90                nop
0000A227  90                nop
0000A228  90                nop
0000A229  90                nop
0000A22A  90                nop
0000A22B  90                nop
0000A22C  90                nop
0000A22D  90                nop
0000A22E  90                nop
0000A22F  90                nop
0000A230  90                nop
0000A231  90                nop
0000A232  90                nop
0000A233  90                nop
0000A234  90                nop
0000A235  90                nop
0000A236  90                nop
0000A237  90                nop
0000A238  90                nop
0000A239  90                nop
0000A23A  90                nop
0000A23B  90                nop
0000A23C  90                nop
0000A23D  90                nop
0000A23E  90                nop
0000A23F  90                nop
0000A240  90                nop
0000A241  90                nop
0000A242  90                nop
0000A243  90                nop
0000A244  90                nop
0000A245  90                nop
0000A246  90                nop
0000A247  90                nop
0000A248  90                nop
0000A249  90                nop
0000A24A  90                nop
0000A24B  90                nop
0000A24C  90                nop
0000A24D  90                nop
0000A24E  90                nop
0000A24F  90                nop
0000A250  90                nop
0000A251  90                nop
0000A252  90                nop
0000A253  90                nop
0000A254  90                nop
0000A255  90                nop
0000A256  90                nop
0000A257  90                nop
0000A258  90                nop
0000A259  90                nop
0000A25A  90                nop
0000A25B  90                nop
0000A25C  90                nop
0000A25D  90                nop
0000A25E  90                nop
0000A25F  90                nop
0000A260  90                nop
0000A261  90                nop
0000A262  90                nop
0000A263  90                nop
0000A264  90                nop
0000A265  90                nop
0000A266  90                nop
0000A267  90                nop
0000A268  90                nop
0000A269  90                nop
0000A26A  90                nop
0000A26B  90                nop
0000A26C  90                nop
0000A26D  90                nop
0000A26E  90                nop
0000A26F  90                nop
0000A270  90                nop
0000A271  90                nop
0000A272  90                nop
0000A273  90                nop
0000A274  90                nop
0000A275  90                nop
0000A276  90                nop
0000A277  90                nop
0000A278  90                nop
0000A279  90                nop
0000A27A  90                nop
0000A27B  90                nop
0000A27C  90                nop
0000A27D  90                nop
0000A27E  90                nop
0000A27F  90                nop
0000A280  90                nop
0000A281  90                nop
0000A282  90                nop
0000A283  90                nop
0000A284  90                nop
0000A285  90                nop
0000A286  90                nop
0000A287  90                nop
0000A288  90                nop
0000A289  90                nop
0000A28A  90                nop
0000A28B  90                nop
0000A28C  90                nop
0000A28D  90                nop
0000A28E  90                nop
0000A28F  90                nop
0000A290  90                nop
0000A291  90                nop
0000A292  90                nop
0000A293  90                nop
0000A294  90                nop
0000A295  90                nop
0000A296  90                nop
0000A297  90                nop
0000A298  90                nop
0000A299  90                nop
0000A29A  90                nop
0000A29B  90                nop
0000A29C  90                nop
0000A29D  90                nop
0000A29E  90                nop
0000A29F  90                nop
0000A2A0  90                nop
0000A2A1  90                nop
0000A2A2  90                nop
0000A2A3  90                nop
0000A2A4  90                nop
0000A2A5  90                nop
0000A2A6  90                nop
0000A2A7  90                nop
0000A2A8  90                nop
0000A2A9  90                nop
0000A2AA  90                nop
0000A2AB  90                nop
0000A2AC  90                nop
0000A2AD  90                nop
0000A2AE  90                nop
0000A2AF  90                nop
0000A2B0  90                nop
0000A2B1  90                nop
0000A2B2  90                nop
0000A2B3  90                nop
0000A2B4  90                nop
0000A2B5  90                nop
0000A2B6  90                nop
0000A2B7  90                nop
0000A2B8  90                nop
0000A2B9  90                nop
0000A2BA  90                nop
0000A2BB  90                nop
0000A2BC  90                nop
0000A2BD  90                nop
0000A2BE  90                nop
0000A2BF  90                nop
0000A2C0  90                nop
0000A2C1  90                nop
0000A2C2  90                nop
0000A2C3  90                nop
0000A2C4  90                nop
0000A2C5  90                nop
0000A2C6  90                nop
0000A2C7  90                nop
0000A2C8  90                nop
0000A2C9  90                nop
0000A2CA  90                nop
0000A2CB  90                nop
0000A2CC  90                nop
0000A2CD  90                nop
0000A2CE  90                nop
0000A2CF  90                nop
0000A2D0  90                nop
0000A2D1  90                nop
0000A2D2  90                nop
0000A2D3  90                nop
0000A2D4  90                nop
0000A2D5  90                nop
0000A2D6  90                nop
0000A2D7  90                nop
0000A2D8  90                nop
0000A2D9  90                nop
0000A2DA  90                nop
0000A2DB  90                nop
0000A2DC  90                nop
0000A2DD  90                nop
0000A2DE  90                nop
0000A2DF  90                nop
0000A2E0  90                nop
0000A2E1  90                nop
0000A2E2  90                nop
0000A2E3  90                nop
0000A2E4  90                nop
0000A2E5  90                nop
0000A2E6  90                nop
0000A2E7  90                nop
0000A2E8  90                nop
0000A2E9  90                nop
0000A2EA  90                nop
0000A2EB  90                nop
0000A2EC  90                nop
0000A2ED  90                nop
0000A2EE  90                nop
0000A2EF  90                nop
0000A2F0  90                nop
0000A2F1  90                nop
0000A2F2  90                nop
0000A2F3  90                nop
0000A2F4  90                nop
0000A2F5  90                nop
0000A2F6  90                nop
0000A2F7  90                nop
0000A2F8  90                nop
0000A2F9  90                nop
0000A2FA  90                nop
0000A2FB  90                nop
0000A2FC  90                nop
0000A2FD  90                nop
0000A2FE  90                nop
0000A2FF  90                nop
0000A300  90                nop
0000A301  90                nop
0000A302  90                nop
0000A303  90                nop
0000A304  90                nop
0000A305  90                nop
0000A306  90                nop
0000A307  90                nop
0000A308  90                nop
0000A309  90                nop
0000A30A  90                nop
0000A30B  90                nop
0000A30C  90                nop
0000A30D  90                nop
0000A30E  90                nop
0000A30F  90                nop
0000A310  90                nop
0000A311  90                nop
0000A312  90                nop
0000A313  90                nop
0000A314  90                nop
0000A315  90                nop
0000A316  90                nop
0000A317  90                nop
0000A318  90                nop
0000A319  90                nop
0000A31A  90                nop
0000A31B  90                nop
0000A31C  90                nop
0000A31D  90                nop
0000A31E  90                nop
0000A31F  90                nop
0000A320  90                nop
0000A321  90                nop
0000A322  90                nop
0000A323  90                nop
0000A324  90                nop
0000A325  90                nop
0000A326  90                nop
0000A327  90                nop
0000A328  90                nop
0000A329  90                nop
0000A32A  90                nop
0000A32B  90                nop
0000A32C  90                nop
0000A32D  90                nop
0000A32E  90                nop
0000A32F  90                nop
0000A330  90                nop
0000A331  90                nop
0000A332  90                nop
0000A333  90                nop
0000A334  90                nop
0000A335  90                nop
0000A336  90                nop
0000A337  90                nop
0000A338  90                nop
0000A339  90                nop
0000A33A  90                nop
0000A33B  90                nop
0000A33C  90                nop
0000A33D  90                nop
0000A33E  90                nop
0000A33F  90                nop
0000A340  90                nop
0000A341  90                nop
0000A342  90                nop
0000A343  90                nop
0000A344  90                nop
0000A345  90                nop
0000A346  90                nop
0000A347  90                nop
0000A348  90                nop
0000A349  90                nop
0000A34A  90                nop
0000A34B  90                nop
0000A34C  90                nop
0000A34D  90                nop
0000A34E  90                nop
0000A34F  90                nop
0000A350  90                nop
0000A351  90                nop
0000A352  90                nop
0000A353  90                nop
0000A354  90                nop
0000A355  90                nop
0000A356  90                nop
0000A357  90                nop
0000A358  90                nop
0000A359  90                nop
0000A35A  90                nop
0000A35B  90                nop
0000A35C  90                nop
0000A35D  90                nop
0000A35E  90                nop
0000A35F  90                nop
0000A360  90                nop
0000A361  90                nop
0000A362  90                nop
0000A363  90                nop
0000A364  90                nop
0000A365  90                nop
0000A366  90                nop
0000A367  90                nop
0000A368  90                nop
0000A369  90                nop
0000A36A  90                nop
0000A36B  90                nop
0000A36C  90                nop
0000A36D  90                nop
0000A36E  90                nop
0000A36F  90                nop
0000A370  90                nop
0000A371  90                nop
0000A372  90                nop
0000A373  90                nop
0000A374  90                nop
0000A375  90                nop
0000A376  90                nop
0000A377  90                nop
0000A378  90                nop
0000A379  90                nop
0000A37A  90                nop
0000A37B  90                nop
0000A37C  90                nop
0000A37D  90                nop
0000A37E  90                nop
0000A37F  90                nop
0000A380  90                nop
0000A381  90                nop
0000A382  90                nop
0000A383  90                nop
0000A384  90                nop
0000A385  90                nop
0000A386  90                nop
0000A387  90                nop
0000A388  90                nop
0000A389  90                nop
0000A38A  90                nop
0000A38B  90                nop
0000A38C  90                nop
0000A38D  90                nop
0000A38E  90                nop
0000A38F  90                nop
0000A390  90                nop
0000A391  90                nop
0000A392  90                nop
0000A393  90                nop
0000A394  90                nop
0000A395  90                nop
0000A396  90                nop
0000A397  90                nop
0000A398  90                nop
0000A399  90                nop
0000A39A  90                nop
0000A39B  90                nop
0000A39C  90                nop
0000A39D  90                nop
0000A39E  90                nop
0000A39F  90                nop
0000A3A0  90                nop
0000A3A1  90                nop
0000A3A2  90                nop
0000A3A3  90                nop
0000A3A4  90                nop
0000A3A5  90                nop
0000A3A6  90                nop
0000A3A7  90                nop
0000A3A8  90                nop
0000A3A9  90                nop
0000A3AA  90                nop
0000A3AB  90                nop
0000A3AC  90                nop
0000A3AD  90                nop
0000A3AE  90                nop
0000A3AF  90                nop
0000A3B0  90                nop
0000A3B1  90                nop
0000A3B2  90                nop
0000A3B3  90                nop
0000A3B4  90                nop
0000A3B5  90                nop
0000A3B6  90                nop
0000A3B7  90                nop
0000A3B8  90                nop
0000A3B9  90                nop
0000A3BA  90                nop
0000A3BB  90                nop
0000A3BC  90                nop
0000A3BD  90                nop
0000A3BE  90                nop
0000A3BF  90                nop
0000A3C0  90                nop
0000A3C1  90                nop
0000A3C2  90                nop
0000A3C3  90                nop
0000A3C4  90                nop
0000A3C5  90                nop
0000A3C6  90                nop
0000A3C7  90                nop
0000A3C8  90                nop
0000A3C9  90                nop
0000A3CA  90                nop
0000A3CB  90                nop
0000A3CC  90                nop
0000A3CD  90                nop
0000A3CE  90                nop
0000A3CF  90                nop
0000A3D0  90                nop
0000A3D1  90                nop
0000A3D2  90                nop
0000A3D3  90                nop
0000A3D4  90                nop
0000A3D5  90                nop
0000A3D6  90                nop
0000A3D7  90                nop
0000A3D8  90                nop
0000A3D9  90                nop
0000A3DA  90                nop
0000A3DB  90                nop
0000A3DC  90                nop
0000A3DD  90                nop
0000A3DE  90                nop
0000A3DF  90                nop
0000A3E0  90                nop
0000A3E1  90                nop
0000A3E2  90                nop
0000A3E3  90                nop
0000A3E4  90                nop
0000A3E5  90                nop
0000A3E6  90                nop
0000A3E7  90                nop
0000A3E8  90                nop
0000A3E9  90                nop
0000A3EA  90                nop
0000A3EB  90                nop
0000A3EC  90                nop
0000A3ED  90                nop
0000A3EE  90                nop
0000A3EF  90                nop
0000A3F0  90                nop
0000A3F1  90                nop
0000A3F2  90                nop
0000A3F3  90                nop
0000A3F4  90                nop
0000A3F5  90                nop
0000A3F6  90                nop
0000A3F7  90                nop
0000A3F8  90                nop
0000A3F9  90                nop
0000A3FA  90                nop
0000A3FB  90                nop
0000A3FC  90                nop
0000A3FD  90                nop
0000A3FE  90                nop
0000A3FF  90                nop
0000A400  90                nop
0000A401  90                nop
0000A402  90                nop
0000A403  90                nop
0000A404  90                nop
0000A405  90                nop
0000A406  90                nop
0000A407  90                nop
0000A408  90                nop
0000A409  90                nop
0000A40A  90                nop
0000A40B  90                nop
0000A40C  90                nop
0000A40D  90                nop
0000A40E  90                nop
0000A40F  90                nop
0000A410  90                nop
0000A411  90                nop
0000A412  90                nop
0000A413  90                nop
0000A414  90                nop
0000A415  90                nop
0000A416  90                nop
0000A417  90                nop
0000A418  90                nop
0000A419  90                nop
0000A41A  90                nop
0000A41B  90                nop
0000A41C  90                nop
0000A41D  90                nop
0000A41E  90                nop
0000A41F  90                nop
0000A420  90                nop
0000A421  90                nop
0000A422  90                nop
0000A423  90                nop
0000A424  90                nop
0000A425  90                nop
0000A426  90                nop
0000A427  90                nop
0000A428  90                nop
0000A429  90                nop
0000A42A  90                nop
0000A42B  90                nop
0000A42C  90                nop
0000A42D  90                nop
0000A42E  90                nop
0000A42F  90                nop
0000A430  90                nop
0000A431  90                nop
0000A432  90                nop
0000A433  90                nop
0000A434  90                nop
0000A435  90                nop
0000A436  90                nop
0000A437  90                nop
0000A438  90                nop
0000A439  90                nop
0000A43A  90                nop
0000A43B  90                nop
0000A43C  90                nop
0000A43D  90                nop
0000A43E  90                nop
0000A43F  90                nop
0000A440  90                nop
0000A441  90                nop
0000A442  90                nop
0000A443  90                nop
0000A444  90                nop
0000A445  90                nop
0000A446  90                nop
0000A447  90                nop
0000A448  90                nop
0000A449  90                nop
0000A44A  90                nop
0000A44B  90                nop
0000A44C  90                nop
0000A44D  90                nop
0000A44E  90                nop
0000A44F  90                nop
0000A450  90                nop
0000A451  90                nop
0000A452  90                nop
0000A453  90                nop
0000A454  90                nop
0000A455  90                nop
0000A456  90                nop
0000A457  90                nop
0000A458  90                nop
0000A459  90                nop
0000A45A  90                nop
0000A45B  90                nop
0000A45C  90                nop
0000A45D  90                nop
0000A45E  90                nop
0000A45F  90                nop
0000A460  90                nop
0000A461  90                nop
0000A462  90                nop
0000A463  90                nop
0000A464  90                nop
0000A465  90                nop
0000A466  90                nop
0000A467  90                nop
0000A468  90                nop
0000A469  90                nop
0000A46A  90                nop
0000A46B  90                nop
0000A46C  90                nop
0000A46D  90                nop
0000A46E  90                nop
0000A46F  90                nop
0000A470  90                nop
0000A471  90                nop
0000A472  90                nop
0000A473  90                nop
0000A474  90                nop
0000A475  90                nop
0000A476  90                nop
0000A477  90                nop
0000A478  90                nop
0000A479  90                nop
0000A47A  90                nop
0000A47B  90                nop
0000A47C  90                nop
0000A47D  90                nop
0000A47E  90                nop
0000A47F  90                nop
0000A480  90                nop
0000A481  90                nop
0000A482  90                nop
0000A483  90                nop
0000A484  90                nop
0000A485  90                nop
0000A486  90                nop
0000A487  90                nop
0000A488  90                nop
0000A489  90                nop
0000A48A  90                nop
0000A48B  90                nop
0000A48C  90                nop
0000A48D  90                nop
0000A48E  90                nop
0000A48F  90                nop
0000A490  90                nop
0000A491  90                nop
0000A492  90                nop
0000A493  90                nop
0000A494  90                nop
0000A495  90                nop
0000A496  90                nop
0000A497  90                nop
0000A498  90                nop
0000A499  90                nop
0000A49A  90                nop
0000A49B  90                nop
0000A49C  90                nop
0000A49D  90                nop
0000A49E  90                nop
0000A49F  90                nop
0000A4A0  90                nop
0000A4A1  90                nop
0000A4A2  90                nop
0000A4A3  90                nop
0000A4A4  90                nop
0000A4A5  90                nop
0000A4A6  90                nop
0000A4A7  90                nop
0000A4A8  90                nop
0000A4A9  90                nop
0000A4AA  90                nop
0000A4AB  90                nop
0000A4AC  90                nop
0000A4AD  90                nop
0000A4AE  90                nop
0000A4AF  90                nop
0000A4B0  90                nop
0000A4B1  90                nop
0000A4B2  90                nop
0000A4B3  90                nop
0000A4B4  90                nop
0000A4B5  90                nop
0000A4B6  90                nop
0000A4B7  90                nop
0000A4B8  90                nop
0000A4B9  90                nop
0000A4BA  90                nop
0000A4BB  90                nop
0000A4BC  90                nop
0000A4BD  90                nop
0000A4BE  90                nop
0000A4BF  90                nop
0000A4C0  90                nop
0000A4C1  90                nop
0000A4C2  90                nop
0000A4C3  90                nop
0000A4C4  90                nop
0000A4C5  90                nop
0000A4C6  90                nop
0000A4C7  90                nop
0000A4C8  90                nop
0000A4C9  90                nop
0000A4CA  90                nop
0000A4CB  90                nop
0000A4CC  90                nop
0000A4CD  90                nop
0000A4CE  90                nop
0000A4CF  90                nop
0000A4D0  90                nop
0000A4D1  90                nop
0000A4D2  90                nop
0000A4D3  90                nop
0000A4D4  90                nop
0000A4D5  90                nop
0000A4D6  90                nop
0000A4D7  90                nop
0000A4D8  90                nop
0000A4D9  90                nop
0000A4DA  90                nop
0000A4DB  90                nop
0000A4DC  90                nop
0000A4DD  90                nop
0000A4DE  90                nop
0000A4DF  90                nop
0000A4E0  90                nop
0000A4E1  90                nop
0000A4E2  90                nop
0000A4E3  90                nop
0000A4E4  90                nop
0000A4E5  90                nop
0000A4E6  90                nop
0000A4E7  90                nop
0000A4E8  90                nop
0000A4E9  90                nop
0000A4EA  90                nop
0000A4EB  90                nop
0000A4EC  90                nop
0000A4ED  90                nop
0000A4EE  90                nop
0000A4EF  90                nop
0000A4F0  90                nop
0000A4F1  90                nop
0000A4F2  90                nop
0000A4F3  90                nop
0000A4F4  90                nop
0000A4F5  90                nop
0000A4F6  90                nop
0000A4F7  90                nop
0000A4F8  90                nop
0000A4F9  90                nop
0000A4FA  90                nop
0000A4FB  90                nop
0000A4FC  90                nop
0000A4FD  90                nop
0000A4FE  90                nop
0000A4FF  90                nop
0000A500  90                nop
0000A501  90                nop
0000A502  90                nop
0000A503  90                nop
0000A504  90                nop
0000A505  90                nop
0000A506  90                nop
0000A507  90                nop
0000A508  90                nop
0000A509  90                nop
0000A50A  90                nop
0000A50B  90                nop
0000A50C  90                nop
0000A50D  90                nop
0000A50E  90                nop
0000A50F  90                nop
0000A510  90                nop
0000A511  90                nop
0000A512  90                nop
0000A513  90                nop
0000A514  90                nop
0000A515  90                nop
0000A516  90                nop
0000A517  90                nop
0000A518  90                nop
0000A519  90                nop
0000A51A  90                nop
0000A51B  90                nop
0000A51C  90                nop
0000A51D  90                nop
0000A51E  90                nop
0000A51F  90                nop
0000A520  90                nop
0000A521  90                nop
0000A522  90                nop
0000A523  90                nop
0000A524  90                nop
0000A525  90                nop
0000A526  90                nop
0000A527  90                nop
0000A528  90                nop
0000A529  90                nop
0000A52A  90                nop
0000A52B  90                nop
0000A52C  90                nop
0000A52D  90                nop
0000A52E  90                nop
0000A52F  90                nop
0000A530  90                nop
0000A531  90                nop
0000A532  90                nop
0000A533  90                nop
0000A534  90                nop
0000A535  90                nop
0000A536  90                nop
0000A537  90                nop
0000A538  90                nop
0000A539  90                nop
0000A53A  90                nop
0000A53B  90                nop
0000A53C  90                nop
0000A53D  90                nop
0000A53E  90                nop
0000A53F  90                nop
0000A540  90                nop
0000A541  90                nop
0000A542  90                nop
0000A543  90                nop
0000A544  90                nop
0000A545  90                nop
0000A546  90                nop
0000A547  90                nop
0000A548  90                nop
0000A549  90                nop
0000A54A  90                nop
0000A54B  90                nop
0000A54C  90                nop
0000A54D  90                nop
0000A54E  90                nop
0000A54F  90                nop
0000A550  90                nop
0000A551  90                nop
0000A552  90                nop
0000A553  90                nop
0000A554  90                nop
0000A555  90                nop
0000A556  90                nop
0000A557  90                nop
0000A558  90                nop
0000A559  90                nop
0000A55A  90                nop
0000A55B  90                nop
0000A55C  90                nop
0000A55D  90                nop
0000A55E  90                nop
0000A55F  90                nop
0000A560  90                nop
0000A561  90                nop
0000A562  90                nop
0000A563  90                nop
0000A564  90                nop
0000A565  90                nop
0000A566  90                nop
0000A567  90                nop
0000A568  90                nop
0000A569  90                nop
0000A56A  90                nop
0000A56B  90                nop
0000A56C  90                nop
0000A56D  90                nop
0000A56E  90                nop
0000A56F  90                nop
0000A570  90                nop
0000A571  90                nop
0000A572  90                nop
0000A573  90                nop
0000A574  90                nop
0000A575  90                nop
0000A576  90                nop
0000A577  90                nop
0000A578  90                nop
0000A579  90                nop
0000A57A  90                nop
0000A57B  90                nop
0000A57C  90                nop
0000A57D  90                nop
0000A57E  90                nop
0000A57F  90                nop
0000A580  90                nop
0000A581  90                nop
0000A582  90                nop
0000A583  90                nop
0000A584  90                nop
0000A585  90                nop
0000A586  90                nop
0000A587  90                nop
0000A588  90                nop
0000A589  90                nop
0000A58A  90                nop
0000A58B  90                nop
0000A58C  90                nop
0000A58D  90                nop
0000A58E  90                nop
0000A58F  90                nop
0000A590  90                nop
0000A591  90                nop
0000A592  90                nop
0000A593  90                nop
0000A594  90                nop
0000A595  90                nop
0000A596  90                nop
0000A597  90                nop
0000A598  90                nop
0000A599  90                nop
0000A59A  90                nop
0000A59B  90                nop
0000A59C  90                nop
0000A59D  90                nop
0000A59E  90                nop
0000A59F  90                nop
0000A5A0  90                nop
0000A5A1  90                nop
0000A5A2  90                nop
0000A5A3  90                nop
0000A5A4  90                nop
0000A5A5  90                nop
0000A5A6  90                nop
0000A5A7  90                nop
0000A5A8  90                nop
0000A5A9  90                nop
0000A5AA  90                nop
0000A5AB  90                nop
0000A5AC  90                nop
0000A5AD  90                nop
0000A5AE  90                nop
0000A5AF  90                nop
0000A5B0  90                nop
0000A5B1  90                nop
0000A5B2  90                nop
0000A5B3  90                nop
0000A5B4  90                nop
0000A5B5  90                nop
0000A5B6  90                nop
0000A5B7  90                nop
0000A5B8  90                nop
0000A5B9  90                nop
0000A5BA  90                nop
0000A5BB  90                nop
0000A5BC  90                nop
0000A5BD  90                nop
0000A5BE  90                nop
0000A5BF  90                nop
0000A5C0  90                nop
0000A5C1  90                nop
0000A5C2  90                nop
0000A5C3  90                nop
0000A5C4  90                nop
0000A5C5  90                nop
0000A5C6  90                nop
0000A5C7  90                nop
0000A5C8  90                nop
0000A5C9  90                nop
0000A5CA  90                nop
0000A5CB  90                nop
0000A5CC  90                nop
0000A5CD  90                nop
0000A5CE  90                nop
0000A5CF  90                nop
0000A5D0  90                nop
0000A5D1  90                nop
0000A5D2  90                nop
0000A5D3  90                nop
0000A5D4  90                nop
0000A5D5  90                nop
0000A5D6  90                nop
0000A5D7  90                nop
0000A5D8  90                nop
0000A5D9  90                nop
0000A5DA  90                nop
0000A5DB  90                nop
0000A5DC  90                nop
0000A5DD  90                nop
0000A5DE  90                nop
0000A5DF  90                nop
0000A5E0  90                nop
0000A5E1  90                nop
0000A5E2  90                nop
0000A5E3  90                nop
0000A5E4  90                nop
0000A5E5  90                nop
0000A5E6  90                nop
0000A5E7  90                nop
0000A5E8  90                nop
0000A5E9  90                nop
0000A5EA  90                nop
0000A5EB  90                nop
0000A5EC  90                nop
0000A5ED  90                nop
0000A5EE  90                nop
0000A5EF  90                nop
0000A5F0  90                nop
0000A5F1  90                nop
0000A5F2  90                nop
0000A5F3  90                nop
0000A5F4  90                nop
0000A5F5  90                nop
0000A5F6  90                nop
0000A5F7  90                nop
0000A5F8  90                nop
0000A5F9  90                nop
0000A5FA  90                nop
0000A5FB  90                nop
0000A5FC  90                nop
0000A5FD  90                nop
0000A5FE  90                nop
0000A5FF  90                nop
0000A600  90                nop
0000A601  90                nop
0000A602  90                nop
0000A603  90                nop
0000A604  90                nop
0000A605  90                nop
0000A606  90                nop
0000A607  90                nop
0000A608  90                nop
0000A609  90                nop
0000A60A  90                nop
0000A60B  90                nop
0000A60C  90                nop
0000A60D  90                nop
0000A60E  90                nop
0000A60F  90                nop
0000A610  90                nop
0000A611  90                nop
0000A612  90                nop
0000A613  90                nop
0000A614  90                nop
0000A615  90                nop
0000A616  90                nop
0000A617  90                nop
0000A618  90                nop
0000A619  90                nop
0000A61A  90                nop
0000A61B  90                nop
0000A61C  90                nop
0000A61D  90                nop
0000A61E  90                nop
0000A61F  90                nop
0000A620  90                nop
0000A621  90                nop
0000A622  90                nop
0000A623  90                nop
0000A624  90                nop
0000A625  90                nop
0000A626  90                nop
0000A627  90                nop
0000A628  90                nop
0000A629  90                nop
0000A62A  90                nop
0000A62B  90                nop
0000A62C  90                nop
0000A62D  90                nop
0000A62E  90                nop
0000A62F  90                nop
0000A630  90                nop
0000A631  90                nop
0000A632  90                nop
0000A633  90                nop
0000A634  90                nop
0000A635  90                nop
0000A636  90                nop
0000A637  90                nop
0000A638  90                nop
0000A639  90                nop
0000A63A  90                nop
0000A63B  90                nop
0000A63C  90                nop
0000A63D  90                nop
0000A63E  90                nop
0000A63F  90                nop
0000A640  90                nop
0000A641  90                nop
0000A642  90                nop
0000A643  90                nop
0000A644  90                nop
0000A645  90                nop
0000A646  90                nop
0000A647  90                nop
0000A648  90                nop
0000A649  90                nop
0000A64A  90                nop
0000A64B  90                nop
0000A64C  90                nop
0000A64D  90                nop
0000A64E  90                nop
0000A64F  90                nop
0000A650  90                nop
0000A651  90                nop
0000A652  90                nop
0000A653  90                nop
0000A654  90                nop
0000A655  90                nop
0000A656  90                nop
0000A657  90                nop
0000A658  90                nop
0000A659  90                nop
0000A65A  90                nop
0000A65B  90                nop
0000A65C  90                nop
0000A65D  90                nop
0000A65E  90                nop
0000A65F  90                nop
0000A660  90                nop
0000A661  90                nop
0000A662  90                nop
0000A663  90                nop
0000A664  90                nop
0000A665  90                nop
0000A666  90                nop
0000A667  90                nop
0000A668  90                nop
0000A669  90                nop
0000A66A  90                nop
0000A66B  90                nop
0000A66C  90                nop
0000A66D  90                nop
0000A66E  90                nop
0000A66F  90                nop
0000A670  90                nop
0000A671  90                nop
0000A672  90                nop
0000A673  90                nop
0000A674  90                nop
0000A675  90                nop
0000A676  90                nop
0000A677  90                nop
0000A678  90                nop
0000A679  90                nop
0000A67A  90                nop
0000A67B  90                nop
0000A67C  90                nop
0000A67D  90                nop
0000A67E  90                nop
0000A67F  90                nop
0000A680  90                nop
0000A681  90                nop
0000A682  90                nop
0000A683  90                nop
0000A684  90                nop
0000A685  90                nop
0000A686  90                nop
0000A687  90                nop
0000A688  90                nop
0000A689  90                nop
0000A68A  90                nop
0000A68B  90                nop
0000A68C  90                nop
0000A68D  90                nop
0000A68E  90                nop
0000A68F  90                nop
0000A690  90                nop
0000A691  90                nop
0000A692  90                nop
0000A693  90                nop
0000A694  90                nop
0000A695  90                nop
0000A696  90                nop
0000A697  90                nop
0000A698  90                nop
0000A699  90                nop
0000A69A  90                nop
0000A69B  90                nop
0000A69C  90                nop
0000A69D  90                nop
0000A69E  90                nop
0000A69F  90                nop
0000A6A0  90                nop
0000A6A1  90                nop
0000A6A2  90                nop
0000A6A3  90                nop
0000A6A4  90                nop
0000A6A5  90                nop
0000A6A6  90                nop
0000A6A7  90                nop
0000A6A8  90                nop
0000A6A9  90                nop
0000A6AA  90                nop
0000A6AB  90                nop
0000A6AC  90                nop
0000A6AD  90                nop
0000A6AE  90                nop
0000A6AF  90                nop
0000A6B0  90                nop
0000A6B1  90                nop
0000A6B2  90                nop
0000A6B3  90                nop
0000A6B4  90                nop
0000A6B5  90                nop
0000A6B6  90                nop
0000A6B7  90                nop
0000A6B8  90                nop
0000A6B9  90                nop
0000A6BA  90                nop
0000A6BB  90                nop
0000A6BC  90                nop
0000A6BD  90                nop
0000A6BE  90                nop
0000A6BF  90                nop
0000A6C0  90                nop
0000A6C1  90                nop
0000A6C2  90                nop
0000A6C3  90                nop
0000A6C4  90                nop
0000A6C5  90                nop
0000A6C6  90                nop
0000A6C7  90                nop
0000A6C8  90                nop
0000A6C9  90                nop
0000A6CA  90                nop
0000A6CB  90                nop
0000A6CC  90                nop
0000A6CD  90                nop
0000A6CE  90                nop
0000A6CF  90                nop
0000A6D0  90                nop
0000A6D1  90                nop
0000A6D2  90                nop
0000A6D3  90                nop
0000A6D4  90                nop
0000A6D5  90                nop
0000A6D6  90                nop
0000A6D7  90                nop
0000A6D8  90                nop
0000A6D9  90                nop
0000A6DA  90                nop
0000A6DB  90                nop
0000A6DC  90                nop
0000A6DD  90                nop
0000A6DE  90                nop
0000A6DF  90                nop
0000A6E0  90                nop
0000A6E1  90                nop
0000A6E2  90                nop
0000A6E3  90                nop
0000A6E4  90                nop
0000A6E5  90                nop
0000A6E6  90                nop
0000A6E7  90                nop
0000A6E8  90                nop
0000A6E9  90                nop
0000A6EA  90                nop
0000A6EB  90                nop
0000A6EC  90                nop
0000A6ED  90                nop
0000A6EE  90                nop
0000A6EF  90                nop
0000A6F0  90                nop
0000A6F1  90                nop
0000A6F2  90                nop
0000A6F3  90                nop
0000A6F4  90                nop
0000A6F5  90                nop
0000A6F6  90                nop
0000A6F7  90                nop
0000A6F8  90                nop
0000A6F9  90                nop
0000A6FA  90                nop
0000A6FB  90                nop
0000A6FC  90                nop
0000A6FD  90                nop
0000A6FE  90                nop
0000A6FF  90                nop
0000A700  90                nop
0000A701  90                nop
0000A702  90                nop
0000A703  90                nop
0000A704  90                nop
0000A705  90                nop
0000A706  90                nop
0000A707  90                nop
0000A708  90                nop
0000A709  90                nop
0000A70A  90                nop
0000A70B  90                nop
0000A70C  90                nop
0000A70D  90                nop
0000A70E  90                nop
0000A70F  90                nop
0000A710  90                nop
0000A711  90                nop
0000A712  90                nop
0000A713  90                nop
0000A714  90                nop
0000A715  90                nop
0000A716  90                nop
0000A717  90                nop
0000A718  90                nop
0000A719  90                nop
0000A71A  90                nop
0000A71B  90                nop
0000A71C  90                nop
0000A71D  90                nop
0000A71E  90                nop
0000A71F  90                nop
0000A720  90                nop
0000A721  90                nop
0000A722  90                nop
0000A723  90                nop
0000A724  90                nop
0000A725  90                nop
0000A726  90                nop
0000A727  90                nop
0000A728  90                nop
0000A729  90                nop
0000A72A  90                nop
0000A72B  90                nop
0000A72C  90                nop
0000A72D  90                nop
0000A72E  90                nop
0000A72F  90                nop
0000A730  90                nop
0000A731  90                nop
0000A732  90                nop
0000A733  90                nop
0000A734  90                nop
0000A735  90                nop
0000A736  90                nop
0000A737  90                nop
0000A738  90                nop
0000A739  90                nop
0000A73A  90                nop
0000A73B  90                nop
0000A73C  90                nop
0000A73D  90                nop
0000A73E  90                nop
0000A73F  90                nop
0000A740  90                nop
0000A741  90                nop
0000A742  90                nop
0000A743  90                nop
0000A744  90                nop
0000A745  90                nop
0000A746  90                nop
0000A747  90                nop
0000A748  90                nop
0000A749  90                nop
0000A74A  90                nop
0000A74B  90                nop
0000A74C  90                nop
0000A74D  90                nop
0000A74E  90                nop
0000A74F  90                nop
0000A750  90                nop
0000A751  90                nop
0000A752  90                nop
0000A753  90                nop
0000A754  90                nop
0000A755  90                nop
0000A756  90                nop
0000A757  90                nop
0000A758  90                nop
0000A759  90                nop
0000A75A  90                nop
0000A75B  90                nop
0000A75C  90                nop
0000A75D  90                nop
0000A75E  90                nop
0000A75F  90                nop
0000A760  90                nop
0000A761  90                nop
0000A762  90                nop
0000A763  90                nop
0000A764  90                nop
0000A765  90                nop
0000A766  90                nop
0000A767  90                nop
0000A768  90                nop
0000A769  90                nop
0000A76A  90                nop
0000A76B  90                nop
0000A76C  90                nop
0000A76D  90                nop
0000A76E  90                nop
0000A76F  90                nop
0000A770  90                nop
0000A771  90                nop
0000A772  90                nop
0000A773  90                nop
0000A774  90                nop
0000A775  90                nop
0000A776  90                nop
0000A777  90                nop
0000A778  90                nop
0000A779  90                nop
0000A77A  90                nop
0000A77B  90                nop
0000A77C  90                nop
0000A77D  90                nop
0000A77E  90                nop
0000A77F  90                nop
0000A780  90                nop
0000A781  90                nop
0000A782  90                nop
0000A783  90                nop
0000A784  90                nop
0000A785  90                nop
0000A786  90                nop
0000A787  90                nop
0000A788  90                nop
0000A789  90                nop
0000A78A  90                nop
0000A78B  90                nop
0000A78C  90                nop
0000A78D  90                nop
0000A78E  90                nop
0000A78F  90                nop
0000A790  90                nop
0000A791  90                nop
0000A792  90                nop
0000A793  90                nop
0000A794  90                nop
0000A795  90                nop
0000A796  90                nop
0000A797  90                nop
0000A798  90                nop
0000A799  90                nop
0000A79A  90                nop
0000A79B  90                nop
0000A79C  90                nop
0000A79D  90                nop
0000A79E  90                nop
0000A79F  90                nop
0000A7A0  90                nop
0000A7A1  90                nop
0000A7A2  90                nop
0000A7A3  90                nop
0000A7A4  90                nop
0000A7A5  90                nop
0000A7A6  90                nop
0000A7A7  90                nop
0000A7A8  90                nop
0000A7A9  90                nop
0000A7AA  90                nop
0000A7AB  90                nop
0000A7AC  90                nop
0000A7AD  90                nop
0000A7AE  90                nop
0000A7AF  90                nop
0000A7B0  90                nop
0000A7B1  90                nop
0000A7B2  90                nop
0000A7B3  90                nop
0000A7B4  90                nop
0000A7B5  90                nop
0000A7B6  90                nop
0000A7B7  90                nop
0000A7B8  90                nop
0000A7B9  90                nop
0000A7BA  90                nop
0000A7BB  90                nop
0000A7BC  90                nop
0000A7BD  90                nop
0000A7BE  90                nop
0000A7BF  90                nop
0000A7C0  90                nop
0000A7C1  90                nop
0000A7C2  90                nop
0000A7C3  90                nop
0000A7C4  90                nop
0000A7C5  90                nop
0000A7C6  90                nop
0000A7C7  90                nop
0000A7C8  90                nop
0000A7C9  90                nop
0000A7CA  90                nop
0000A7CB  90                nop
0000A7CC  90                nop
0000A7CD  90                nop
0000A7CE  90                nop
0000A7CF  90                nop
0000A7D0  90                nop
0000A7D1  90                nop
0000A7D2  90                nop
0000A7D3  90                nop
0000A7D4  90                nop
0000A7D5  90                nop
0000A7D6  90                nop
0000A7D7  90                nop
0000A7D8  90                nop
0000A7D9  90                nop
0000A7DA  90                nop
0000A7DB  90                nop
0000A7DC  90                nop
0000A7DD  90                nop
0000A7DE  90                nop
0000A7DF  90                nop
0000A7E0  90                nop
0000A7E1  90                nop
0000A7E2  90                nop
0000A7E3  90                nop
0000A7E4  90                nop
0000A7E5  90                nop
0000A7E6  90                nop
0000A7E7  90                nop
0000A7E8  90                nop
0000A7E9  90                nop
0000A7EA  90                nop
0000A7EB  90                nop
0000A7EC  90                nop
0000A7ED  90                nop
0000A7EE  90                nop
0000A7EF  90                nop
0000A7F0  90                nop
0000A7F1  90                nop
0000A7F2  90                nop
0000A7F3  90                nop
0000A7F4  90                nop
0000A7F5  90                nop
0000A7F6  90                nop
0000A7F7  90                nop
0000A7F8  90                nop
0000A7F9  90                nop
0000A7FA  90                nop
0000A7FB  90                nop
0000A7FC  90                nop
0000A7FD  90                nop
0000A7FE  90                nop
0000A7FF  90                nop
0000A800  90                nop
0000A801  90                nop
0000A802  90                nop
0000A803  90                nop
0000A804  90                nop
0000A805  90                nop
0000A806  90                nop
0000A807  90                nop
0000A808  90                nop
0000A809  90                nop
0000A80A  90                nop
0000A80B  90                nop
0000A80C  90                nop
0000A80D  90                nop
0000A80E  90                nop
0000A80F  90                nop
0000A810  90                nop
0000A811  90                nop
0000A812  90                nop
0000A813  90                nop
0000A814  90                nop
0000A815  90                nop
0000A816  90                nop
0000A817  90                nop
0000A818  90                nop
0000A819  90                nop
0000A81A  90                nop
0000A81B  90                nop
0000A81C  90                nop
0000A81D  90                nop
0000A81E  90                nop
0000A81F  90                nop
0000A820  90                nop
0000A821  90                nop
0000A822  90                nop
0000A823  90                nop
0000A824  90                nop
0000A825  90                nop
0000A826  90                nop
0000A827  90                nop
0000A828  90                nop
0000A829  90                nop
0000A82A  90                nop
0000A82B  90                nop
0000A82C  90                nop
0000A82D  90                nop
0000A82E  90                nop
0000A82F  90                nop
0000A830  90                nop
0000A831  90                nop
0000A832  90                nop
0000A833  90                nop
0000A834  90                nop
0000A835  90                nop
0000A836  90                nop
0000A837  90                nop
0000A838  90                nop
0000A839  90                nop
0000A83A  90                nop
0000A83B  90                nop
0000A83C  90                nop
0000A83D  90                nop
0000A83E  90                nop
0000A83F  90                nop
0000A840  90                nop
0000A841  90                nop
0000A842  90                nop
0000A843  90                nop
0000A844  90                nop
0000A845  90                nop
0000A846  90                nop
0000A847  90                nop
0000A848  90                nop
0000A849  90                nop
0000A84A  90                nop
0000A84B  90                nop
0000A84C  90                nop
0000A84D  90                nop
0000A84E  90                nop
0000A84F  90                nop
0000A850  90                nop
0000A851  90                nop
0000A852  90                nop
0000A853  90                nop
0000A854  90                nop
0000A855  90                nop
0000A856  90                nop
0000A857  90                nop
0000A858  90                nop
0000A859  90                nop
0000A85A  90                nop
0000A85B  90                nop
0000A85C  90                nop
0000A85D  90                nop
0000A85E  90                nop
0000A85F  90                nop
0000A860  90                nop
0000A861  90                nop
0000A862  90                nop
0000A863  90                nop
0000A864  90                nop
0000A865  90                nop
0000A866  90                nop
0000A867  90                nop
0000A868  90                nop
0000A869  90                nop
0000A86A  90                nop
0000A86B  90                nop
0000A86C  90                nop
0000A86D  90                nop
0000A86E  90                nop
0000A86F  90                nop
0000A870  90                nop
0000A871  90                nop
0000A872  90                nop
0000A873  90                nop
0000A874  90                nop
0000A875  90                nop
0000A876  90                nop
0000A877  90                nop
0000A878  90                nop
0000A879  90                nop
0000A87A  90                nop
0000A87B  90                nop
0000A87C  90                nop
0000A87D  90                nop
0000A87E  90                nop
0000A87F  90                nop
0000A880  90                nop
0000A881  90                nop
0000A882  90                nop
0000A883  90                nop
0000A884  90                nop
0000A885  90                nop
0000A886  90                nop
0000A887  90                nop
0000A888  90                nop
0000A889  90                nop
0000A88A  90                nop
0000A88B  90                nop
0000A88C  90                nop
0000A88D  90                nop
0000A88E  90                nop
0000A88F  90                nop
0000A890  90                nop
0000A891  90                nop
0000A892  90                nop
0000A893  90                nop
0000A894  90                nop
0000A895  90                nop
0000A896  90                nop
0000A897  90                nop
0000A898  90                nop
0000A899  90                nop
0000A89A  90                nop
0000A89B  90                nop
0000A89C  90                nop
0000A89D  90                nop
0000A89E  90                nop
0000A89F  90                nop
0000A8A0  90                nop
0000A8A1  90                nop
0000A8A2  90                nop
0000A8A3  90                nop
0000A8A4  90                nop
0000A8A5  90                nop
0000A8A6  90                nop
0000A8A7  90                nop
0000A8A8  90                nop
0000A8A9  90                nop
0000A8AA  90                nop
0000A8AB  90                nop
0000A8AC  90                nop
0000A8AD  90                nop
0000A8AE  90                nop
0000A8AF  90                nop
0000A8B0  90                nop
0000A8B1  90                nop
0000A8B2  90                nop
0000A8B3  90                nop
0000A8B4  90                nop
0000A8B5  90                nop
0000A8B6  90                nop
0000A8B7  90                nop
0000A8B8  90                nop
0000A8B9  90                nop
0000A8BA  90                nop
0000A8BB  90                nop
0000A8BC  90                nop
0000A8BD  90                nop
0000A8BE  90                nop
0000A8BF  90                nop
0000A8C0  90                nop
0000A8C1  90                nop
0000A8C2  90                nop
0000A8C3  90                nop
0000A8C4  90                nop
0000A8C5  90                nop
0000A8C6  90                nop
0000A8C7  90                nop
0000A8C8  90                nop
0000A8C9  90                nop
0000A8CA  90                nop
0000A8CB  90                nop
0000A8CC  90                nop
0000A8CD  90                nop
0000A8CE  90                nop
0000A8CF  90                nop
0000A8D0  90                nop
0000A8D1  90                nop
0000A8D2  90                nop
0000A8D3  90                nop
0000A8D4  90                nop
0000A8D5  90                nop
0000A8D6  90                nop
0000A8D7  90                nop
0000A8D8  90                nop
0000A8D9  90                nop
0000A8DA  90                nop
0000A8DB  90                nop
0000A8DC  90                nop
0000A8DD  90                nop
0000A8DE  90                nop
0000A8DF  90                nop
0000A8E0  90                nop
0000A8E1  90                nop
0000A8E2  90                nop
0000A8E3  90                nop
0000A8E4  90                nop
0000A8E5  90                nop
0000A8E6  90                nop
0000A8E7  90                nop
0000A8E8  90                nop
0000A8E9  90                nop
0000A8EA  90                nop
0000A8EB  90                nop
0000A8EC  90                nop
0000A8ED  90                nop
0000A8EE  90                nop
0000A8EF  90                nop
0000A8F0  90                nop
0000A8F1  90                nop
0000A8F2  90                nop
0000A8F3  90                nop
0000A8F4  90                nop
0000A8F5  90                nop
0000A8F6  90                nop
0000A8F7  90                nop
0000A8F8  90                nop
0000A8F9  90                nop
0000A8FA  90                nop
0000A8FB  90                nop
0000A8FC  90                nop
0000A8FD  90                nop
0000A8FE  90                nop
0000A8FF  90                nop
0000A900  90                nop
0000A901  90                nop
0000A902  90                nop
0000A903  90                nop
0000A904  90                nop
0000A905  90                nop
0000A906  90                nop
0000A907  90                nop
0000A908  90                nop
0000A909  90                nop
0000A90A  90                nop
0000A90B  90                nop
0000A90C  90                nop
0000A90D  90                nop
0000A90E  90                nop
0000A90F  90                nop
0000A910  90                nop
0000A911  90                nop
0000A912  90                nop
0000A913  90                nop
0000A914  90                nop
0000A915  90                nop
0000A916  90                nop
0000A917  90                nop
0000A918  90                nop
0000A919  90                nop
0000A91A  90                nop
0000A91B  90                nop
0000A91C  90                nop
0000A91D  90                nop
0000A91E  90                nop
0000A91F  90                nop
0000A920  90                nop
0000A921  90                nop
0000A922  90                nop
0000A923  90                nop
0000A924  90                nop
0000A925  90                nop
0000A926  90                nop
0000A927  90                nop
0000A928  90                nop
0000A929  90                nop
0000A92A  90                nop
0000A92B  90                nop
0000A92C  90                nop
0000A92D  90                nop
0000A92E  90                nop
0000A92F  90                nop
0000A930  90                nop
0000A931  90                nop
0000A932  90                nop
0000A933  90                nop
0000A934  90                nop
0000A935  90                nop
0000A936  90                nop
0000A937  90                nop
0000A938  90                nop
0000A939  90                nop
0000A93A  90                nop
0000A93B  90                nop
0000A93C  90                nop
0000A93D  90                nop
0000A93E  90                nop
0000A93F  90                nop
0000A940  90                nop
0000A941  90                nop
0000A942  90                nop
0000A943  90                nop
0000A944  90                nop
0000A945  90                nop
0000A946  90                nop
0000A947  90                nop
0000A948  90                nop
0000A949  90                nop
0000A94A  90                nop
0000A94B  90                nop
0000A94C  90                nop
0000A94D  90                nop
0000A94E  90                nop
0000A94F  90                nop
0000A950  90                nop
0000A951  90                nop
0000A952  90                nop
0000A953  90                nop
0000A954  90                nop
0000A955  90                nop
0000A956  90                nop
0000A957  90                nop
0000A958  90                nop
0000A959  90                nop
0000A95A  90                nop
0000A95B  90                nop
0000A95C  90                nop
0000A95D  90                nop
0000A95E  90                nop
0000A95F  90                nop
0000A960  90                nop
0000A961  90                nop
0000A962  90                nop
0000A963  90                nop
0000A964  90                nop
0000A965  90                nop
0000A966  90                nop
0000A967  90                nop
0000A968  90                nop
0000A969  90                nop
0000A96A  90                nop
0000A96B  90                nop
0000A96C  90                nop
0000A96D  90                nop
0000A96E  90                nop
0000A96F  90                nop
0000A970  90                nop
0000A971  90                nop
0000A972  90                nop
0000A973  90                nop
0000A974  90                nop
0000A975  90                nop
0000A976  90                nop
0000A977  90                nop
0000A978  90                nop
0000A979  90                nop
0000A97A  90                nop
0000A97B  90                nop
0000A97C  90                nop
0000A97D  90                nop
0000A97E  90                nop
0000A97F  90                nop
0000A980  90                nop
0000A981  90                nop
0000A982  90                nop
0000A983  90                nop
0000A984  90                nop
0000A985  90                nop
0000A986  90                nop
0000A987  90                nop
0000A988  90                nop
0000A989  90                nop
0000A98A  90                nop
0000A98B  90                nop
0000A98C  90                nop
0000A98D  90                nop
0000A98E  90                nop
0000A98F  90                nop
0000A990  90                nop
0000A991  90                nop
0000A992  90                nop
0000A993  90                nop
0000A994  90                nop
0000A995  90                nop
0000A996  90                nop
0000A997  90                nop
0000A998  90                nop
0000A999  90                nop
0000A99A  90                nop
0000A99B  90                nop
0000A99C  90                nop
0000A99D  90                nop
0000A99E  90                nop
0000A99F  90                nop
0000A9A0  90                nop
0000A9A1  90                nop
0000A9A2  90                nop
0000A9A3  90                nop
0000A9A4  90                nop
0000A9A5  90                nop
0000A9A6  90                nop
0000A9A7  90                nop
0000A9A8  90                nop
0000A9A9  90                nop
0000A9AA  90                nop
0000A9AB  90                nop
0000A9AC  90                nop
0000A9AD  90                nop
0000A9AE  90                nop
0000A9AF  90                nop
0000A9B0  90                nop
0000A9B1  90                nop
0000A9B2  90                nop
0000A9B3  90                nop
0000A9B4  90                nop
0000A9B5  90                nop
0000A9B6  90                nop
0000A9B7  90                nop
0000A9B8  90                nop
0000A9B9  90                nop
0000A9BA  90                nop
0000A9BB  90                nop
0000A9BC  90                nop
0000A9BD  90                nop
0000A9BE  90                nop
0000A9BF  90                nop
0000A9C0  90                nop
0000A9C1  90                nop
0000A9C2  90                nop
0000A9C3  90                nop
0000A9C4  90                nop
0000A9C5  90                nop
0000A9C6  90                nop
0000A9C7  90                nop
0000A9C8  90                nop
0000A9C9  90                nop
0000A9CA  90                nop
0000A9CB  90                nop
0000A9CC  90                nop
0000A9CD  90                nop
0000A9CE  90                nop
0000A9CF  90                nop
0000A9D0  90                nop
0000A9D1  90                nop
0000A9D2  90                nop
0000A9D3  90                nop
0000A9D4  90                nop
0000A9D5  90                nop
0000A9D6  90                nop
0000A9D7  90                nop
0000A9D8  90                nop
0000A9D9  90                nop
0000A9DA  90                nop
0000A9DB  90                nop
0000A9DC  90                nop
0000A9DD  90                nop
0000A9DE  90                nop
0000A9DF  90                nop
0000A9E0  90                nop
0000A9E1  90                nop
0000A9E2  90                nop
0000A9E3  90                nop
0000A9E4  90                nop
0000A9E5  90                nop
0000A9E6  90                nop
0000A9E7  90                nop
0000A9E8  90                nop
0000A9E9  90                nop
0000A9EA  90                nop
0000A9EB  90                nop
0000A9EC  90                nop
0000A9ED  90                nop
0000A9EE  90                nop
0000A9EF  90                nop
0000A9F0  90                nop
0000A9F1  90                nop
0000A9F2  90                nop
0000A9F3  90                nop
0000A9F4  90                nop
0000A9F5  90                nop
0000A9F6  90                nop
0000A9F7  90                nop
0000A9F8  90                nop
0000A9F9  90                nop
0000A9FA  90                nop
0000A9FB  90                nop
0000A9FC  90                nop
0000A9FD  90                nop
0000A9FE  90                nop
0000A9FF  90                nop
0000AA00  90                nop
0000AA01  90                nop
0000AA02  90                nop
0000AA03  90                nop
0000AA04  90                nop
0000AA05  90                nop
0000AA06  90                nop
0000AA07  90                nop
0000AA08  90                nop
0000AA09  90                nop
0000AA0A  90                nop
0000AA0B  90                nop
0000AA0C  90                nop
0000AA0D  90                nop
0000AA0E  90                nop
0000AA0F  90                nop
0000AA10  90                nop
0000AA11  90                nop
0000AA12  90                nop
0000AA13  90                nop
0000AA14  90                nop
0000AA15  90                nop
0000AA16  90                nop
0000AA17  90                nop
0000AA18  90                nop
0000AA19  90                nop
0000AA1A  90                nop
0000AA1B  90                nop
0000AA1C  90                nop
0000AA1D  90                nop
0000AA1E  90                nop
0000AA1F  90                nop
0000AA20  90                nop
0000AA21  90                nop
0000AA22  90                nop
0000AA23  90                nop
0000AA24  90                nop
0000AA25  90                nop
0000AA26  90                nop
0000AA27  90                nop
0000AA28  90                nop
0000AA29  90                nop
0000AA2A  90                nop
0000AA2B  90                nop
0000AA2C  90                nop
0000AA2D  90                nop
0000AA2E  90                nop
0000AA2F  90                nop
0000AA30  90                nop
0000AA31  90                nop
0000AA32  90                nop
0000AA33  90                nop
0000AA34  90                nop
0000AA35  90                nop
0000AA36  90                nop
0000AA37  90                nop
0000AA38  90                nop
0000AA39  90                nop
0000AA3A  90                nop
0000AA3B  90                nop
0000AA3C  90                nop
0000AA3D  90                nop
0000AA3E  90                nop
0000AA3F  90                nop
0000AA40  90                nop
0000AA41  90                nop
0000AA42  90                nop
0000AA43  90                nop
0000AA44  90                nop
0000AA45  90                nop
0000AA46  90                nop
0000AA47  90                nop
0000AA48  90                nop
0000AA49  90                nop
0000AA4A  90                nop
0000AA4B  90                nop
0000AA4C  90                nop
0000AA4D  90                nop
0000AA4E  90                nop
0000AA4F  90                nop
0000AA50  90                nop
0000AA51  90                nop
0000AA52  90                nop
0000AA53  90                nop
0000AA54  90                nop
0000AA55  90                nop
0000AA56  90                nop
0000AA57  90                nop
0000AA58  90                nop
0000AA59  90                nop
0000AA5A  90                nop
0000AA5B  90                nop
0000AA5C  90                nop
0000AA5D  90                nop
0000AA5E  90                nop
0000AA5F  90                nop
0000AA60  90                nop
0000AA61  90                nop
0000AA62  90                nop
0000AA63  90                nop
0000AA64  90                nop
0000AA65  90                nop
0000AA66  90                nop
0000AA67  90                nop
0000AA68  90                nop
0000AA69  90                nop
0000AA6A  90                nop
0000AA6B  90                nop
0000AA6C  90                nop
0000AA6D  90                nop
0000AA6E  90                nop
0000AA6F  90                nop
0000AA70  90                nop
0000AA71  90                nop
0000AA72  90                nop
0000AA73  90                nop
0000AA74  90                nop
0000AA75  90                nop
0000AA76  90                nop
0000AA77  90                nop
0000AA78  90                nop
0000AA79  90                nop
0000AA7A  90                nop
0000AA7B  90                nop
0000AA7C  90                nop
0000AA7D  90                nop
0000AA7E  90                nop
0000AA7F  90                nop
0000AA80  90                nop
0000AA81  90                nop
0000AA82  90                nop
0000AA83  90                nop
0000AA84  90                nop
0000AA85  90                nop
0000AA86  90                nop
0000AA87  90                nop
0000AA88  90                nop
0000AA89  90                nop
0000AA8A  90                nop
0000AA8B  90                nop
0000AA8C  90                nop
0000AA8D  90                nop
0000AA8E  90                nop
0000AA8F  90                nop
0000AA90  90                nop
0000AA91  90                nop
0000AA92  90                nop
0000AA93  90                nop
0000AA94  90                nop
0000AA95  90                nop
0000AA96  90                nop
0000AA97  90                nop
0000AA98  90                nop
0000AA99  90                nop
0000AA9A  90                nop
0000AA9B  90                nop
0000AA9C  90                nop
0000AA9D  90                nop
0000AA9E  90                nop
0000AA9F  90                nop
0000AAA0  90                nop
0000AAA1  90                nop
0000AAA2  90                nop
0000AAA3  90                nop
0000AAA4  90                nop
0000AAA5  90                nop
0000AAA6  90                nop
0000AAA7  90                nop
0000AAA8  90                nop
0000AAA9  90                nop
0000AAAA  90                nop
0000AAAB  90                nop
0000AAAC  90                nop
0000AAAD  90                nop
0000AAAE  90                nop
0000AAAF  90                nop
0000AAB0  90                nop
0000AAB1  90                nop
0000AAB2  90                nop
0000AAB3  90                nop
0000AAB4  90                nop
0000AAB5  90                nop
0000AAB6  90                nop
0000AAB7  90                nop
0000AAB8  90                nop
0000AAB9  90                nop
0000AABA  90                nop
0000AABB  90                nop
0000AABC  90                nop
0000AABD  90                nop
0000AABE  90                nop
0000AABF  90                nop
0000AAC0  90                nop
0000AAC1  90                nop
0000AAC2  90                nop
0000AAC3  90                nop
0000AAC4  90                nop
0000AAC5  90                nop
0000AAC6  90                nop
0000AAC7  90                nop
0000AAC8  90                nop
0000AAC9  90                nop
0000AACA  90                nop
0000AACB  90                nop
0000AACC  90                nop
0000AACD  90                nop
0000AACE  90                nop
0000AACF  90                nop
0000AAD0  90                nop
0000AAD1  90                nop
0000AAD2  90                nop
0000AAD3  90                nop
0000AAD4  90                nop
0000AAD5  90                nop
0000AAD6  90                nop
0000AAD7  90                nop
0000AAD8  90                nop
0000AAD9  90                nop
0000AADA  90                nop
0000AADB  90                nop
0000AADC  90                nop
0000AADD  90                nop
0000AADE  90                nop
0000AADF  90                nop
0000AAE0  90                nop
0000AAE1  90                nop
0000AAE2  90                nop
0000AAE3  90                nop
0000AAE4  90                nop
0000AAE5  90                nop
0000AAE6  90                nop
0000AAE7  90                nop
0000AAE8  90                nop
0000AAE9  90                nop
0000AAEA  90                nop
0000AAEB  90                nop
0000AAEC  90                nop
0000AAED  90                nop
0000AAEE  90                nop
0000AAEF  90                nop
0000AAF0  90                nop
0000AAF1  90                nop
0000AAF2  90                nop
0000AAF3  90                nop
0000AAF4  90                nop
0000AAF5  90                nop
0000AAF6  90                nop
0000AAF7  90                nop
0000AAF8  90                nop
0000AAF9  90                nop
0000AAFA  90                nop
0000AAFB  90                nop
0000AAFC  90                nop
0000AAFD  90                nop
0000AAFE  90                nop
0000AAFF  90                nop
0000AB00  90                nop
0000AB01  90                nop
0000AB02  90                nop
0000AB03  90                nop
0000AB04  90                nop
0000AB05  90                nop
0000AB06  90                nop
0000AB07  90                nop
0000AB08  90                nop
0000AB09  90                nop
0000AB0A  90                nop
0000AB0B  90                nop
0000AB0C  90                nop
0000AB0D  90                nop
0000AB0E  90                nop
0000AB0F  90                nop
0000AB10  90                nop
0000AB11  90                nop
0000AB12  90                nop
0000AB13  90                nop
0000AB14  90                nop
0000AB15  90                nop
0000AB16  90                nop
0000AB17  90                nop
0000AB18  90                nop
0000AB19  90                nop
0000AB1A  90                nop
0000AB1B  90                nop
0000AB1C  90                nop
0000AB1D  90                nop
0000AB1E  90                nop
0000AB1F  90                nop
0000AB20  90                nop
0000AB21  90                nop
0000AB22  90                nop
0000AB23  90                nop
0000AB24  90                nop
0000AB25  90                nop
0000AB26  90                nop
0000AB27  90                nop
0000AB28  90                nop
0000AB29  90                nop
0000AB2A  90                nop
0000AB2B  90                nop
0000AB2C  90                nop
0000AB2D  90                nop
0000AB2E  90                nop
0000AB2F  90                nop
0000AB30  90                nop
0000AB31  90                nop
0000AB32  90                nop
0000AB33  90                nop
0000AB34  90                nop
0000AB35  90                nop
0000AB36  90                nop
0000AB37  90                nop
0000AB38  90                nop
0000AB39  90                nop
0000AB3A  90                nop
0000AB3B  90                nop
0000AB3C  90                nop
0000AB3D  90                nop
0000AB3E  90                nop
0000AB3F  90                nop
0000AB40  90                nop
0000AB41  90                nop
0000AB42  90                nop
0000AB43  90                nop
0000AB44  90                nop
0000AB45  90                nop
0000AB46  90                nop
0000AB47  90                nop
0000AB48  90                nop
0000AB49  90                nop
0000AB4A  90                nop
0000AB4B  90                nop
0000AB4C  90                nop
0000AB4D  90                nop
0000AB4E  90                nop
0000AB4F  90                nop
0000AB50  90                nop
0000AB51  90                nop
0000AB52  90                nop
0000AB53  90                nop
0000AB54  90                nop
0000AB55  90                nop
0000AB56  90                nop
0000AB57  90                nop
0000AB58  90                nop
0000AB59  90                nop
0000AB5A  90                nop
0000AB5B  90                nop
0000AB5C  90                nop
0000AB5D  90                nop
0000AB5E  90                nop
0000AB5F  90                nop
0000AB60  90                nop
0000AB61  90                nop
0000AB62  90                nop
0000AB63  90                nop
0000AB64  90                nop
0000AB65  90                nop
0000AB66  90                nop
0000AB67  90                nop
0000AB68  90                nop
0000AB69  90                nop
0000AB6A  90                nop
0000AB6B  90                nop
0000AB6C  90                nop
0000AB6D  90                nop
0000AB6E  90                nop
0000AB6F  90                nop
0000AB70  90                nop
0000AB71  90                nop
0000AB72  90                nop
0000AB73  90                nop
0000AB74  90                nop
0000AB75  90                nop
0000AB76  90                nop
0000AB77  90                nop
0000AB78  90                nop
0000AB79  90                nop
0000AB7A  90                nop
0000AB7B  90                nop
0000AB7C  90                nop
0000AB7D  90                nop
0000AB7E  90                nop
0000AB7F  90                nop
0000AB80  90                nop
0000AB81  90                nop
0000AB82  90                nop
0000AB83  90                nop
0000AB84  90                nop
0000AB85  90                nop
0000AB86  90                nop
0000AB87  90                nop
0000AB88  90                nop
0000AB89  90                nop
0000AB8A  90                nop
0000AB8B  90                nop
0000AB8C  90                nop
0000AB8D  90                nop
0000AB8E  90                nop
0000AB8F  90                nop
0000AB90  90                nop
0000AB91  90                nop
0000AB92  90                nop
0000AB93  90                nop
0000AB94  90                nop
0000AB95  90                nop
0000AB96  90                nop
0000AB97  90                nop
0000AB98  90                nop
0000AB99  90                nop
0000AB9A  90                nop
0000AB9B  90                nop
0000AB9C  90                nop
0000AB9D  90                nop
0000AB9E  90                nop
0000AB9F  90                nop
0000ABA0  90                nop
0000ABA1  90                nop
0000ABA2  90                nop
0000ABA3  90                nop
0000ABA4  90                nop
0000ABA5  90                nop
0000ABA6  90                nop
0000ABA7  90                nop
0000ABA8  90                nop
0000ABA9  90                nop
0000ABAA  90                nop
0000ABAB  90                nop
0000ABAC  90                nop
0000ABAD  90                nop
0000ABAE  90                nop
0000ABAF  90                nop
0000ABB0  90                nop
0000ABB1  90                nop
0000ABB2  90                nop
0000ABB3  90                nop
0000ABB4  90                nop
0000ABB5  90                nop
0000ABB6  90                nop
0000ABB7  90                nop
0000ABB8  90                nop
0000ABB9  90                nop
0000ABBA  90                nop
0000ABBB  90                nop
0000ABBC  90                nop
0000ABBD  90                nop
0000ABBE  90                nop
0000ABBF  90                nop
0000ABC0  90                nop
0000ABC1  90                nop
0000ABC2  90                nop
0000ABC3  90                nop
0000ABC4  90                nop
0000ABC5  90                nop
0000ABC6  90                nop
0000ABC7  90                nop
0000ABC8  90                nop
0000ABC9  90                nop
0000ABCA  90                nop
0000ABCB  90                nop
0000ABCC  90                nop
0000ABCD  90                nop
0000ABCE  90                nop
0000ABCF  90                nop
0000ABD0  90                nop
0000ABD1  90                nop
0000ABD2  90                nop
0000ABD3  90                nop
0000ABD4  90                nop
0000ABD5  90                nop
0000ABD6  90                nop
0000ABD7  90                nop
0000ABD8  90                nop
0000ABD9  90                nop
0000ABDA  90                nop
0000ABDB  90                nop
0000ABDC  90                nop
0000ABDD  90                nop
0000ABDE  90                nop
0000ABDF  90                nop
0000ABE0  90                nop
0000ABE1  90                nop
0000ABE2  90                nop
0000ABE3  90                nop
0000ABE4  90                nop
0000ABE5  90                nop
0000ABE6  90                nop
0000ABE7  90                nop
0000ABE8  90                nop
0000ABE9  90                nop
0000ABEA  90                nop
0000ABEB  90                nop
0000ABEC  90                nop
0000ABED  90                nop
0000ABEE  90                nop
0000ABEF  90                nop
0000ABF0  90                nop
0000ABF1  90                nop
0000ABF2  90                nop
0000ABF3  90                nop
0000ABF4  90                nop
0000ABF5  90                nop
0000ABF6  90                nop
0000ABF7  90                nop
0000ABF8  90                nop
0000ABF9  90                nop
0000ABFA  90                nop
0000ABFB  90                nop
0000ABFC  90                nop
0000ABFD  90                nop
0000ABFE  90                nop
0000ABFF  90                nop
0000AC00  90                nop
0000AC01  90                nop
0000AC02  90                nop
0000AC03  90                nop
0000AC04  90                nop
0000AC05  90                nop
0000AC06  90                nop
0000AC07  90                nop
0000AC08  90                nop
0000AC09  90                nop
0000AC0A  90                nop
0000AC0B  90                nop
0000AC0C  90                nop
0000AC0D  90                nop
0000AC0E  90                nop
0000AC0F  90                nop
0000AC10  90                nop
0000AC11  90                nop
0000AC12  90                nop
0000AC13  90                nop
0000AC14  90                nop
0000AC15  90                nop
0000AC16  90                nop
0000AC17  90                nop
0000AC18  90                nop
0000AC19  90                nop
0000AC1A  90                nop
0000AC1B  90                nop
0000AC1C  90                nop
0000AC1D  90                nop
0000AC1E  90                nop
0000AC1F  90                nop
0000AC20  90                nop
0000AC21  90                nop
0000AC22  90                nop
0000AC23  90                nop
0000AC24  90                nop
0000AC25  90                nop
0000AC26  90                nop
0000AC27  90                nop
0000AC28  90                nop
0000AC29  90                nop
0000AC2A  90                nop
0000AC2B  90                nop
0000AC2C  90                nop
0000AC2D  90                nop
0000AC2E  90                nop
0000AC2F  90                nop
0000AC30  90                nop
0000AC31  90                nop
0000AC32  90                nop
0000AC33  90                nop
0000AC34  90                nop
0000AC35  90                nop
0000AC36  90                nop
0000AC37  90                nop
0000AC38  90                nop
0000AC39  90                nop
0000AC3A  90                nop
0000AC3B  90                nop
0000AC3C  90                nop
0000AC3D  90                nop
0000AC3E  90                nop
0000AC3F  90                nop
0000AC40  90                nop
0000AC41  90                nop
0000AC42  90                nop
0000AC43  90                nop
0000AC44  90                nop
0000AC45  90                nop
0000AC46  90                nop
0000AC47  90                nop
0000AC48  90                nop
0000AC49  90                nop
0000AC4A  90                nop
0000AC4B  90                nop
0000AC4C  90                nop
0000AC4D  90                nop
0000AC4E  90                nop
0000AC4F  90                nop
0000AC50  90                nop
0000AC51  90                nop
0000AC52  90                nop
0000AC53  90                nop
0000AC54  90                nop
0000AC55  90                nop
0000AC56  90                nop
0000AC57  90                nop
0000AC58  90                nop
0000AC59  90                nop
0000AC5A  90                nop
0000AC5B  90                nop
0000AC5C  90                nop
0000AC5D  90                nop
0000AC5E  90                nop
0000AC5F  90                nop
0000AC60  90                nop
0000AC61  90                nop
0000AC62  90                nop
0000AC63  90                nop
0000AC64  90                nop
0000AC65  90                nop
0000AC66  90                nop
0000AC67  90                nop
0000AC68  90                nop
0000AC69  90                nop
0000AC6A  90                nop
0000AC6B  90                nop
0000AC6C  90                nop
0000AC6D  90                nop
0000AC6E  90                nop
0000AC6F  90                nop
0000AC70  90                nop
0000AC71  90                nop
0000AC72  90                nop
0000AC73  90                nop
0000AC74  90                nop
0000AC75  90                nop
0000AC76  90                nop
0000AC77  90                nop
0000AC78  90                nop
0000AC79  90                nop
0000AC7A  90                nop
0000AC7B  90                nop
0000AC7C  90                nop
0000AC7D  90                nop
0000AC7E  90                nop
0000AC7F  90                nop
0000AC80  90                nop
0000AC81  90                nop
0000AC82  90                nop
0000AC83  90                nop
0000AC84  90                nop
0000AC85  90                nop
0000AC86  90                nop
0000AC87  90                nop
0000AC88  90                nop
0000AC89  90                nop
0000AC8A  90                nop
0000AC8B  90                nop
0000AC8C  90                nop
0000AC8D  90                nop
0000AC8E  90                nop
0000AC8F  90                nop
0000AC90  90                nop
0000AC91  90                nop
0000AC92  90                nop
0000AC93  90                nop
0000AC94  90                nop
0000AC95  90                nop
0000AC96  90                nop
0000AC97  90                nop
0000AC98  90                nop
0000AC99  90                nop
0000AC9A  90                nop
0000AC9B  90                nop
0000AC9C  90                nop
0000AC9D  90                nop
0000AC9E  90                nop
0000AC9F  90                nop
0000ACA0  90                nop
0000ACA1  90                nop
0000ACA2  90                nop
0000ACA3  90                nop
0000ACA4  90                nop
0000ACA5  90                nop
0000ACA6  90                nop
0000ACA7  90                nop
0000ACA8  90                nop
0000ACA9  90                nop
0000ACAA  90                nop
0000ACAB  90                nop
0000ACAC  90                nop
0000ACAD  90                nop
0000ACAE  90                nop
0000ACAF  90                nop
0000ACB0  90                nop
0000ACB1  90                nop
0000ACB2  90                nop
0000ACB3  90                nop
0000ACB4  90                nop
0000ACB5  90                nop
0000ACB6  90                nop
0000ACB7  90                nop
0000ACB8  90                nop
0000ACB9  90                nop
0000ACBA  90                nop
0000ACBB  90                nop
0000ACBC  90                nop
0000ACBD  90                nop
0000ACBE  90                nop
0000ACBF  90                nop
0000ACC0  90                nop
0000ACC1  90                nop
0000ACC2  90                nop
0000ACC3  90                nop
0000ACC4  90                nop
0000ACC5  90                nop
0000ACC6  90                nop
0000ACC7  90                nop
0000ACC8  90                nop
0000ACC9  90                nop
0000ACCA  90                nop
0000ACCB  90                nop
0000ACCC  90                nop
0000ACCD  90                nop
0000ACCE  90                nop
0000ACCF  90                nop
0000ACD0  90                nop
0000ACD1  90                nop
0000ACD2  90                nop
0000ACD3  90                nop
0000ACD4  90                nop
0000ACD5  90                nop
0000ACD6  90                nop
0000ACD7  90                nop
0000ACD8  90                nop
0000ACD9  90                nop
0000ACDA  90                nop
0000ACDB  90                nop
0000ACDC  90                nop
0000ACDD  90                nop
0000ACDE  90                nop
0000ACDF  90                nop
0000ACE0  90                nop
0000ACE1  90                nop
0000ACE2  90                nop
0000ACE3  90                nop
0000ACE4  90                nop
0000ACE5  90                nop
0000ACE6  90                nop
0000ACE7  90                nop
0000ACE8  90                nop
0000ACE9  90                nop
0000ACEA  90                nop
0000ACEB  90                nop
0000ACEC  90                nop
0000ACED  90                nop
0000ACEE  90                nop
0000ACEF  90                nop
0000ACF0  90                nop
0000ACF1  90                nop
0000ACF2  90                nop
0000ACF3  90                nop
0000ACF4  90                nop
0000ACF5  90                nop
0000ACF6  90                nop
0000ACF7  90                nop
0000ACF8  90                nop
0000ACF9  90                nop
0000ACFA  90                nop
0000ACFB  90                nop
0000ACFC  90                nop
0000ACFD  90                nop
0000ACFE  90                nop
0000ACFF  90                nop
0000AD00  90                nop
0000AD01  90                nop
0000AD02  90                nop
0000AD03  90                nop
0000AD04  90                nop
0000AD05  90                nop
0000AD06  90                nop
0000AD07  90                nop
0000AD08  90                nop
0000AD09  90                nop
0000AD0A  90                nop
0000AD0B  90                nop
0000AD0C  90                nop
0000AD0D  90                nop
0000AD0E  90                nop
0000AD0F  90                nop
0000AD10  90                nop
0000AD11  90                nop
0000AD12  90                nop
0000AD13  90                nop
0000AD14  90                nop
0000AD15  90                nop
0000AD16  90                nop
0000AD17  90                nop
0000AD18  90                nop
0000AD19  90                nop
0000AD1A  90                nop
0000AD1B  90                nop
0000AD1C  90                nop
0000AD1D  90                nop
0000AD1E  90                nop
0000AD1F  90                nop
0000AD20  90                nop
0000AD21  90                nop
0000AD22  90                nop
0000AD23  90                nop
0000AD24  90                nop
0000AD25  90                nop
0000AD26  90                nop
0000AD27  90                nop
0000AD28  90                nop
0000AD29  90                nop
0000AD2A  90                nop
0000AD2B  90                nop
0000AD2C  90                nop
0000AD2D  90                nop
0000AD2E  90                nop
0000AD2F  90                nop
0000AD30  90                nop
0000AD31  90                nop
0000AD32  90                nop
0000AD33  90                nop
0000AD34  90                nop
0000AD35  90                nop
0000AD36  90                nop
0000AD37  90                nop
0000AD38  90                nop
0000AD39  90                nop
0000AD3A  90                nop
0000AD3B  90                nop
0000AD3C  90                nop
0000AD3D  90                nop
0000AD3E  90                nop
0000AD3F  90                nop
0000AD40  90                nop
0000AD41  90                nop
0000AD42  90                nop
0000AD43  90                nop
0000AD44  90                nop
0000AD45  90                nop
0000AD46  90                nop
0000AD47  90                nop
0000AD48  90                nop
0000AD49  90                nop
0000AD4A  90                nop
0000AD4B  90                nop
0000AD4C  90                nop
0000AD4D  90                nop
0000AD4E  90                nop
0000AD4F  90                nop
0000AD50  90                nop
0000AD51  90                nop
0000AD52  90                nop
0000AD53  90                nop
0000AD54  90                nop
0000AD55  90                nop
0000AD56  90                nop
0000AD57  90                nop
0000AD58  90                nop
0000AD59  90                nop
0000AD5A  90                nop
0000AD5B  90                nop
0000AD5C  90                nop
0000AD5D  90                nop
0000AD5E  90                nop
0000AD5F  90                nop
0000AD60  90                nop
0000AD61  90                nop
0000AD62  90                nop
0000AD63  90                nop
0000AD64  90                nop
0000AD65  90                nop
0000AD66  90                nop
0000AD67  90                nop
0000AD68  90                nop
0000AD69  90                nop
0000AD6A  90                nop
0000AD6B  90                nop
0000AD6C  90                nop
0000AD6D  90                nop
0000AD6E  90                nop
0000AD6F  90                nop
0000AD70  90                nop
0000AD71  90                nop
0000AD72  90                nop
0000AD73  90                nop
0000AD74  90                nop
0000AD75  90                nop
0000AD76  90                nop
0000AD77  90                nop
0000AD78  90                nop
0000AD79  90                nop
0000AD7A  90                nop
0000AD7B  90                nop
0000AD7C  90                nop
0000AD7D  90                nop
0000AD7E  90                nop
0000AD7F  90                nop
0000AD80  90                nop
0000AD81  90                nop
0000AD82  90                nop
0000AD83  90                nop
0000AD84  90                nop
0000AD85  90                nop
0000AD86  90                nop
0000AD87  90                nop
0000AD88  90                nop
0000AD89  90                nop
0000AD8A  90                nop
0000AD8B  90                nop
0000AD8C  90                nop
0000AD8D  90                nop
0000AD8E  90                nop
0000AD8F  90                nop
0000AD90  90                nop
0000AD91  90                nop
0000AD92  90                nop
0000AD93  90                nop
0000AD94  90                nop
0000AD95  90                nop
0000AD96  90                nop
0000AD97  90                nop
0000AD98  90                nop
0000AD99  90                nop
0000AD9A  90                nop
0000AD9B  90                nop
0000AD9C  90                nop
0000AD9D  90                nop
0000AD9E  90                nop
0000AD9F  90                nop
0000ADA0  90                nop
0000ADA1  90                nop
0000ADA2  90                nop
0000ADA3  90                nop
0000ADA4  90                nop
0000ADA5  90                nop
0000ADA6  90                nop
0000ADA7  90                nop
0000ADA8  90                nop
0000ADA9  90                nop
0000ADAA  90                nop
0000ADAB  90                nop
0000ADAC  90                nop
0000ADAD  90                nop
0000ADAE  90                nop
0000ADAF  90                nop
0000ADB0  90                nop
0000ADB1  90                nop
0000ADB2  90                nop
0000ADB3  90                nop
0000ADB4  90                nop
0000ADB5  90                nop
0000ADB6  90                nop
0000ADB7  90                nop
0000ADB8  90                nop
0000ADB9  90                nop
0000ADBA  90                nop
0000ADBB  90                nop
0000ADBC  90                nop
0000ADBD  90                nop
0000ADBE  90                nop
0000ADBF  90                nop
0000ADC0  90                nop
0000ADC1  90                nop
0000ADC2  90                nop
0000ADC3  90                nop
0000ADC4  90                nop
0000ADC5  90                nop
0000ADC6  90                nop
0000ADC7  90                nop
0000ADC8  90                nop
0000ADC9  90                nop
0000ADCA  90                nop
0000ADCB  90                nop
0000ADCC  90                nop
0000ADCD  90                nop
0000ADCE  90                nop
0000ADCF  90                nop
0000ADD0  90                nop
0000ADD1  90                nop
0000ADD2  90                nop
0000ADD3  90                nop
0000ADD4  90                nop
0000ADD5  90                nop
0000ADD6  90                nop
0000ADD7  90                nop
0000ADD8  90                nop
0000ADD9  90                nop
0000ADDA  90                nop
0000ADDB  90                nop
0000ADDC  90                nop
0000ADDD  90                nop
0000ADDE  90                nop
0000ADDF  90                nop
0000ADE0  90                nop
0000ADE1  90                nop
0000ADE2  90                nop
0000ADE3  90                nop
0000ADE4  90                nop
0000ADE5  90                nop
0000ADE6  90                nop
0000ADE7  90                nop
0000ADE8  90                nop
0000ADE9  90                nop
0000ADEA  90                nop
0000ADEB  90                nop
0000ADEC  90                nop
0000ADED  90                nop
0000ADEE  90                nop
0000ADEF  90                nop
0000ADF0  90                nop
0000ADF1  90                nop
0000ADF2  90                nop
0000ADF3  90                nop
0000ADF4  90                nop
0000ADF5  90                nop
0000ADF6  90                nop
0000ADF7  90                nop
0000ADF8  90                nop
0000ADF9  90                nop
0000ADFA  90                nop
0000ADFB  90                nop
0000ADFC  90                nop
0000ADFD  90                nop
0000ADFE  90                nop
0000ADFF  90                nop
0000AE00  90                nop
0000AE01  90                nop
0000AE02  90                nop
0000AE03  90                nop
0000AE04  90                nop
0000AE05  90                nop
0000AE06  90                nop
0000AE07  90                nop
0000AE08  90                nop
0000AE09  90                nop
0000AE0A  90                nop
0000AE0B  90                nop
0000AE0C  90                nop
0000AE0D  90                nop
0000AE0E  90                nop
0000AE0F  90                nop
0000AE10  90                nop
0000AE11  90                nop
0000AE12  90                nop
0000AE13  90                nop
0000AE14  90                nop
0000AE15  90                nop
0000AE16  90                nop
0000AE17  90                nop
0000AE18  90                nop
0000AE19  90                nop
0000AE1A  90                nop
0000AE1B  90                nop
0000AE1C  90                nop
0000AE1D  90                nop
0000AE1E  90                nop
0000AE1F  90                nop
0000AE20  90                nop
0000AE21  90                nop
0000AE22  90                nop
0000AE23  90                nop
0000AE24  90                nop
0000AE25  90                nop
0000AE26  90                nop
0000AE27  90                nop
0000AE28  90                nop
0000AE29  90                nop
0000AE2A  90                nop
0000AE2B  90                nop
0000AE2C  90                nop
0000AE2D  90                nop
0000AE2E  90                nop
0000AE2F  90                nop
0000AE30  90                nop
0000AE31  90                nop
0000AE32  90                nop
0000AE33  90                nop
0000AE34  90                nop
0000AE35  90                nop
0000AE36  90                nop
0000AE37  90                nop
0000AE38  90                nop
0000AE39  90                nop
0000AE3A  90                nop
0000AE3B  90                nop
0000AE3C  90                nop
0000AE3D  90                nop
0000AE3E  90                nop
0000AE3F  90                nop
0000AE40  90                nop
0000AE41  90                nop
0000AE42  90                nop
0000AE43  90                nop
0000AE44  90                nop
0000AE45  90                nop
0000AE46  90                nop
0000AE47  90                nop
0000AE48  90                nop
0000AE49  90                nop
0000AE4A  90                nop
0000AE4B  90                nop
0000AE4C  90                nop
0000AE4D  90                nop
0000AE4E  90                nop
0000AE4F  90                nop
0000AE50  90                nop
0000AE51  90                nop
0000AE52  90                nop
0000AE53  90                nop
0000AE54  90                nop
0000AE55  90                nop
0000AE56  90                nop
0000AE57  90                nop
0000AE58  90                nop
0000AE59  90                nop
0000AE5A  90                nop
0000AE5B  90                nop
0000AE5C  90                nop
0000AE5D  90                nop
0000AE5E  90                nop
0000AE5F  90                nop
0000AE60  90                nop
0000AE61  90                nop
0000AE62  90                nop
0000AE63  90                nop
0000AE64  90                nop
0000AE65  90                nop
0000AE66  90                nop
0000AE67  90                nop
0000AE68  90                nop
0000AE69  90                nop
0000AE6A  90                nop
0000AE6B  90                nop
0000AE6C  90                nop
0000AE6D  90                nop
0000AE6E  90                nop
0000AE6F  90                nop
0000AE70  90                nop
0000AE71  90                nop
0000AE72  90                nop
0000AE73  90                nop
0000AE74  90                nop
0000AE75  90                nop
0000AE76  90                nop
0000AE77  90                nop
0000AE78  90                nop
0000AE79  90                nop
0000AE7A  90                nop
0000AE7B  90                nop
0000AE7C  90                nop
0000AE7D  90                nop
0000AE7E  90                nop
0000AE7F  90                nop
0000AE80  90                nop
0000AE81  90                nop
0000AE82  90                nop
0000AE83  90                nop
0000AE84  90                nop
0000AE85  90                nop
0000AE86  90                nop
0000AE87  90                nop
0000AE88  90                nop
0000AE89  90                nop
0000AE8A  90                nop
0000AE8B  90                nop
0000AE8C  90                nop
0000AE8D  90                nop
0000AE8E  90                nop
0000AE8F  90                nop
0000AE90  90                nop
0000AE91  90                nop
0000AE92  90                nop
0000AE93  90                nop
0000AE94  90                nop
0000AE95  90                nop
0000AE96  90                nop
0000AE97  90                nop
0000AE98  90                nop
0000AE99  90                nop
0000AE9A  90                nop
0000AE9B  90                nop
0000AE9C  90                nop
0000AE9D  90                nop
0000AE9E  90                nop
0000AE9F  90                nop
0000AEA0  90                nop
0000AEA1  90                nop
0000AEA2  90                nop
0000AEA3  90                nop
0000AEA4  90                nop
0000AEA5  90                nop
0000AEA6  90                nop
0000AEA7  90                nop
0000AEA8  90                nop
0000AEA9  90                nop
0000AEAA  90                nop
0000AEAB  90                nop
0000AEAC  90                nop
0000AEAD  90                nop
0000AEAE  90                nop
0000AEAF  90                nop
0000AEB0  90                nop
0000AEB1  90                nop
0000AEB2  90                nop
0000AEB3  90                nop
0000AEB4  90                nop
0000AEB5  90                nop
0000AEB6  90                nop
0000AEB7  90                nop
0000AEB8  90                nop
0000AEB9  90                nop
0000AEBA  90                nop
0000AEBB  90                nop
0000AEBC  90                nop
0000AEBD  90                nop
0000AEBE  90                nop
0000AEBF  90                nop
0000AEC0  90                nop
0000AEC1  90                nop
0000AEC2  90                nop
0000AEC3  90                nop
0000AEC4  90                nop
0000AEC5  90                nop
0000AEC6  90                nop
0000AEC7  90                nop
0000AEC8  90                nop
0000AEC9  90                nop
0000AECA  90                nop
0000AECB  90                nop
0000AECC  90                nop
0000AECD  90                nop
0000AECE  90                nop
0000AECF  90                nop
0000AED0  90                nop
0000AED1  90                nop
0000AED2  90                nop
0000AED3  90                nop
0000AED4  90                nop
0000AED5  90                nop
0000AED6  90                nop
0000AED7  90                nop
0000AED8  90                nop
0000AED9  90                nop
0000AEDA  90                nop
0000AEDB  90                nop
0000AEDC  90                nop
0000AEDD  90                nop
0000AEDE  90                nop
0000AEDF  90                nop
0000AEE0  90                nop
0000AEE1  90                nop
0000AEE2  90                nop
0000AEE3  90                nop
0000AEE4  90                nop
0000AEE5  90                nop
0000AEE6  90                nop
0000AEE7  90                nop
0000AEE8  90                nop
0000AEE9  90                nop
0000AEEA  90                nop
0000AEEB  90                nop
0000AEEC  90                nop
0000AEED  90                nop
0000AEEE  90                nop
0000AEEF  90                nop
0000AEF0  90                nop
0000AEF1  90                nop
0000AEF2  90                nop
0000AEF3  90                nop
0000AEF4  90                nop
0000AEF5  90                nop
0000AEF6  90                nop
0000AEF7  90                nop
0000AEF8  90                nop
0000AEF9  90                nop
0000AEFA  90                nop
0000AEFB  90                nop
0000AEFC  90                nop
0000AEFD  90                nop
0000AEFE  90                nop
0000AEFF  90                nop
0000AF00  90                nop
0000AF01  90                nop
0000AF02  90                nop
0000AF03  90                nop
0000AF04  90                nop
0000AF05  90                nop
0000AF06  90                nop
0000AF07  90                nop
0000AF08  90                nop
0000AF09  90                nop
0000AF0A  90                nop
0000AF0B  90                nop
0000AF0C  90                nop
0000AF0D  90                nop
0000AF0E  90                nop
0000AF0F  90                nop
0000AF10  90                nop
0000AF11  90                nop
0000AF12  90                nop
0000AF13  90                nop
0000AF14  90                nop
0000AF15  90                nop
0000AF16  90                nop
0000AF17  90                nop
0000AF18  90                nop
0000AF19  90                nop
0000AF1A  90                nop
0000AF1B  90                nop
0000AF1C  90                nop
0000AF1D  90                nop
0000AF1E  90                nop
0000AF1F  90                nop
0000AF20  90                nop
0000AF21  90                nop
0000AF22  90                nop
0000AF23  90                nop
0000AF24  90                nop
0000AF25  90                nop
0000AF26  90                nop
0000AF27  90                nop
0000AF28  90                nop
0000AF29  90                nop
0000AF2A  90                nop
0000AF2B  90                nop
0000AF2C  90                nop
0000AF2D  90                nop
0000AF2E  90                nop
0000AF2F  90                nop
0000AF30  90                nop
0000AF31  90                nop
0000AF32  90                nop
0000AF33  90                nop
0000AF34  90                nop
0000AF35  90                nop
0000AF36  90                nop
0000AF37  90                nop
0000AF38  90                nop
0000AF39  90                nop
0000AF3A  90                nop
0000AF3B  90                nop
0000AF3C  90                nop
0000AF3D  90                nop
0000AF3E  90                nop
0000AF3F  90                nop
0000AF40  90                nop
0000AF41  90                nop
0000AF42  90                nop
0000AF43  90                nop
0000AF44  90                nop
0000AF45  90                nop
0000AF46  90                nop
0000AF47  90                nop
0000AF48  90                nop
0000AF49  90                nop
0000AF4A  90                nop
0000AF4B  90                nop
0000AF4C  90                nop
0000AF4D  90                nop
0000AF4E  90                nop
0000AF4F  90                nop
0000AF50  90                nop
0000AF51  90                nop
0000AF52  90                nop
0000AF53  90                nop
0000AF54  90                nop
0000AF55  90                nop
0000AF56  90                nop
0000AF57  90                nop
0000AF58  90                nop
0000AF59  90                nop
0000AF5A  90                nop
0000AF5B  90                nop
0000AF5C  90                nop
0000AF5D  90                nop
0000AF5E  90                nop
0000AF5F  90                nop
0000AF60  90                nop
0000AF61  90                nop
0000AF62  90                nop
0000AF63  90                nop
0000AF64  90                nop
0000AF65  90                nop
0000AF66  90                nop
0000AF67  90                nop
0000AF68  90                nop
0000AF69  90                nop
0000AF6A  90                nop
0000AF6B  90                nop
0000AF6C  90                nop
0000AF6D  90                nop
0000AF6E  90                nop
0000AF6F  90                nop
0000AF70  90                nop
0000AF71  90                nop
0000AF72  90                nop
0000AF73  90                nop
0000AF74  90                nop
0000AF75  90                nop
0000AF76  90                nop
0000AF77  90                nop
0000AF78  90                nop
0000AF79  90                nop
0000AF7A  90                nop
0000AF7B  90                nop
0000AF7C  90                nop
0000AF7D  90                nop
0000AF7E  90                nop
0000AF7F  90                nop
0000AF80  90                nop
0000AF81  90                nop
0000AF82  90                nop
0000AF83  90                nop
0000AF84  90                nop
0000AF85  90                nop
0000AF86  90                nop
0000AF87  90                nop
0000AF88  90                nop
0000AF89  90                nop
0000AF8A  90                nop
0000AF8B  90                nop
0000AF8C  90                nop
0000AF8D  90                nop
0000AF8E  90                nop
0000AF8F  90                nop
0000AF90  90                nop
0000AF91  90                nop
0000AF92  90                nop
0000AF93  90                nop
0000AF94  90                nop
0000AF95  90                nop
0000AF96  90                nop
0000AF97  90                nop
0000AF98  90                nop
0000AF99  90                nop
0000AF9A  90                nop
0000AF9B  90                nop
0000AF9C  90                nop
0000AF9D  90                nop
0000AF9E  90                nop
0000AF9F  90                nop
0000AFA0  90                nop
0000AFA1  90                nop
0000AFA2  90                nop
0000AFA3  90                nop
0000AFA4  90                nop
0000AFA5  90                nop
0000AFA6  90                nop
0000AFA7  90                nop
0000AFA8  90                nop
0000AFA9  90                nop
0000AFAA  90                nop
0000AFAB  90                nop
0000AFAC  90                nop
0000AFAD  90                nop
0000AFAE  90                nop
0000AFAF  90                nop
0000AFB0  90                nop
0000AFB1  90                nop
0000AFB2  90                nop
0000AFB3  90                nop
0000AFB4  90                nop
0000AFB5  90                nop
0000AFB6  90                nop
0000AFB7  90                nop
0000AFB8  90                nop
0000AFB9  90                nop
0000AFBA  90                nop
0000AFBB  90                nop
0000AFBC  90                nop
0000AFBD  90                nop
0000AFBE  90                nop
0000AFBF  90                nop
0000AFC0  90                nop
0000AFC1  90                nop
0000AFC2  90                nop
0000AFC3  90                nop
0000AFC4  90                nop
0000AFC5  90                nop
0000AFC6  90                nop
0000AFC7  90                nop
0000AFC8  90                nop
0000AFC9  90                nop
0000AFCA  90                nop
0000AFCB  90                nop
0000AFCC  90                nop
0000AFCD  90                nop
0000AFCE  90                nop
0000AFCF  90                nop
0000AFD0  90                nop
0000AFD1  90                nop
0000AFD2  90                nop
0000AFD3  90                nop
0000AFD4  90                nop
0000AFD5  90                nop
0000AFD6  90                nop
0000AFD7  90                nop
0000AFD8  90                nop
0000AFD9  90                nop
0000AFDA  90                nop
0000AFDB  90                nop
0000AFDC  90                nop
0000AFDD  90                nop
0000AFDE  90                nop
0000AFDF  90                nop
0000AFE0  90                nop
0000AFE1  90                nop
0000AFE2  90                nop
0000AFE3  90                nop
0000AFE4  90                nop
0000AFE5  90                nop
0000AFE6  90                nop
0000AFE7  90                nop
0000AFE8  90                nop
0000AFE9  90                nop
0000AFEA  90                nop
0000AFEB  90                nop
0000AFEC  90                nop
0000AFED  90                nop
0000AFEE  90                nop
0000AFEF  90                nop
0000AFF0  90                nop
0000AFF1  90                nop
0000AFF2  90                nop
0000AFF3  90                nop
0000AFF4  90                nop
0000AFF5  90                nop
0000AFF6  90                nop
0000AFF7  90                nop
0000AFF8  90                nop
0000AFF9  90                nop
0000AFFA  90                nop
0000AFFB  90                nop
0000AFFC  90                nop
0000AFFD  90                nop
0000AFFE  90                nop
0000AFFF  F6                db 0xF6
